

Microchip MPLAB XC8 Assembler V2.30 build 20200825195618 
                                                                                               Thu May 30 15:05:54 2024

Microchip MPLAB XC8 C Compiler v2.30 (Free license) build 20200825195618 Og1 
     1                           	processor	18F8722
     2                           	fnconf	rparam,??,?,0
     3                           	pagewidth 120
     4                           	opt	flic
     5                           	psect	idataBANK1,global,class=CODE,delta=1,noexec
     6                           	psect	smallconst,global,reloc=2,class=SMALLCONST,delta=1,noexec
     7                           	psect	cinit,global,reloc=2,class=CODE,delta=1
     8                           	psect	bssBANK0,global,class=BANK0,space=1,delta=1,lowdata,noexec
     9                           	psect	bssBANK1,global,class=BANK1,space=1,delta=1,lowdata,noexec
    10                           	psect	dataBANK1,global,class=BANK1,space=1,delta=1,lowdata,noexec
    11                           	psect	bssBANK2,global,class=BANK2,space=1,delta=1,lowdata,noexec
    12                           	psect	bssBANK3,global,class=BANK3,space=1,delta=1,lowdata,noexec
    13                           	psect	cstackBANK1,global,class=BANK1,space=1,delta=1,lowdata,noexec
    14                           	psect	cstackBANK0,global,class=BANK0,space=1,delta=1,lowdata,noexec
    15                           	psect	cstackCOMRAM,global,class=COMRAM,space=1,delta=1,lowdata,noexec
    16                           	psect	text0,global,reloc=2,class=CODE,delta=1
    17                           	psect	text1,global,reloc=2,class=CODE,delta=1
    18                           	psect	text2,global,reloc=2,class=CODE,delta=1
    19                           	psect	text3,global,reloc=2,class=CODE,delta=1
    20                           	psect	text4,global,reloc=2,class=CODE,delta=1
    21                           	psect	text5,global,reloc=2,class=CODE,delta=1
    22                           	psect	text6,global,reloc=2,class=CODE,delta=1
    23                           	psect	text7,global,reloc=2,class=CODE,delta=1
    24                           	psect	text8,global,reloc=2,class=CODE,delta=1,group=3
    25                           	psect	text9,global,reloc=2,class=CODE,delta=1
    26                           	psect	text10,global,reloc=2,class=CODE,delta=1
    27                           	psect	text11,global,reloc=2,class=CODE,delta=1
    28                           	psect	text12,global,reloc=2,class=CODE,delta=1
    29                           	psect	intcode,global,reloc=2,class=CODE,delta=1
    30                           	psect	intcode_body,global,reloc=2,class=CODE,delta=1
    31                           	psect	text14,global,reloc=2,class=CODE,delta=1
    32                           	psect	text15,global,reloc=2,class=CODE,delta=1
    33                           	psect	text16,global,reloc=2,class=CODE,delta=1
    34                           	psect	text17,global,reloc=2,class=CODE,delta=1
    35                           	psect	text18,global,reloc=2,class=CODE,delta=1
    36                           	psect	text19,global,reloc=2,class=CODE,delta=1,group=3
    37                           	psect	text20,global,reloc=2,class=CODE,delta=1,group=3
    38                           	psect	text21,global,reloc=2,class=CODE,delta=1,group=1
    39                           	psect	text22,global,reloc=2,class=CODE,delta=1,group=1
    40                           	psect	text23,global,reloc=2,class=CODE,delta=1,group=1
    41                           	psect	text24,global,reloc=2,class=CODE,delta=1,group=3
    42                           	psect	text25,global,reloc=2,class=CODE,delta=1,group=3
    43                           	psect	text26,global,reloc=2,class=CODE,delta=1,group=3
    44                           	psect	text27,global,reloc=2,class=CODE,delta=1,group=3
    45                           	psect	text28,global,reloc=2,class=CODE,delta=1,group=1
    46                           	psect	text29,global,reloc=2,class=CODE,delta=1,group=2
    47                           	psect	text30,global,reloc=2,class=CODE,delta=1,group=2
    48                           	psect	text31,global,reloc=2,class=CODE,delta=1,group=3
    49                           	psect	text32,global,reloc=2,class=CODE,delta=1,group=1
    50                           	psect	text33,global,reloc=2,class=CODE,delta=1,group=1
    51                           	psect	text34,global,reloc=2,class=CODE,delta=1,group=1
    52                           	psect	text35,global,reloc=2,class=CODE,delta=1,group=1
    53                           	psect	text36,global,reloc=2,class=CODE,delta=1,group=3
    54                           	psect	text37,global,reloc=2,class=CODE,delta=1,group=3
    55                           	psect	text38,global,reloc=2,class=CODE,delta=1,group=3
    56                           	psect	text39,global,reloc=2,class=CODE,delta=1,group=2
    57                           	psect	text40,global,reloc=2,class=CODE,delta=1,group=2
    58                           	psect	text41,global,reloc=2,class=CODE,delta=1,group=1
    59                           	psect	text42,global,reloc=2,class=CODE,delta=1,group=3
    60                           	psect	text43,global,reloc=2,class=CODE,delta=1,group=3
    61                           	psect	text44,global,reloc=2,class=CODE,delta=1,group=3
    62                           	psect	text45,global,reloc=2,class=CODE,delta=1,group=3
    63                           	psect	text46,global,reloc=2,class=CODE,delta=1,group=3
    64                           	psect	text47,global,reloc=2,class=CODE,delta=1,group=2
    65                           	psect	text48,global,reloc=2,class=CODE,delta=1
    66                           	psect	intsave_regs,global,class=BIGRAM,space=1,delta=1,noexec
    67                           	psect	rparam,global,class=COMRAM,space=1,delta=1,noexec
    68                           	psect	temp,global,ovrld,common,class=COMRAM,space=1,delta=1
    69                           	psect	idloc,global,abs,ovrld,class=IDLOC,space=5,delta=1,noexec
    70                           	psect	config,global,abs,ovrld,class=CONFIG,space=4,delta=1,noexec
    71  0000                     
    72                           ; Version 2.20
    73                           ; Generated 12/02/2020 GMT
    74                           ; 
    75                           ; Copyright © 2020, Microchip Technology Inc. and its subsidiaries ("Microchip")
    76                           ; All rights reserved.
    77                           ; 
    78                           ; This software is developed by Microchip Technology Inc. and its subsidiaries ("Microch
      +                          ip").
    79                           ; 
    80                           ; Redistribution and use in source and binary forms, with or without modification, are
    81                           ; permitted provided that the following conditions are met:
    82                           ; 
    83                           ;     1. Redistributions of source code must retain the above copyright notice, this lis
      +                          t of
    84                           ;        conditions and the following disclaimer.
    85                           ; 
    86                           ;     2. Redistributions in binary form must reproduce the above copyright notice, this 
      +                          list
    87                           ;        of conditions and the following disclaimer in the documentation and/or other
    88                           ;        materials provided with the distribution.
    89                           ; 
    90                           ;     3. Microchip's name may not be used to endorse or promote products derived from th
      +                          is
    91                           ;        software without specific prior written permission.
    92                           ; 
    93                           ; THIS SOFTWARE IS PROVIDED BY MICROCHIP "AS IS" AND ANY EXPRESS OR IMPLIED WARRANTIES,
    94                           ; INCLUDING, BUT NOT LIMITED TO, THE IMPLIED WARRANTIES OF MERCHANTABILITY AND FITNESS F
      +                          OR
    95                           ; PURPOSE ARE DISCLAIMED.  IN NO EVENT SHALL MICROCHIP BE LIABLE FOR ANY DIRECT, INDIREC
      +                          T,
    96                           ; INCIDENTAL, SPECIAL, EXEMPLARY, OR CONSEQUENTIAL DAMAGES (INCLUDING BUT NOT LIMITED TO
    97                           ; PROCUREMENT OF SUBSTITUTE GOODS OR SERVICES; LOSS OF USE, DATA OR PROFITS; OR BUSINESS
    98                           ; INTERRUPTION) HOWSOEVER CAUSED AND ON ANY THEORY OF LIABILITY, WHETHER IN CONTRACT, ST
      +                          RICT
    99                           ; LIABILITY, OR TORT (INCLUDING NEGLIGENCE OR OTHERWISE) ARISING IN ANY WAY OUT OF THE U
      +                          SE OF
   100                           ; THIS SOFTWARE, EVEN IF ADVISED OF THE POSSIBILITY OF SUCH DAMAGE.
   101                           ; 
   102                           ; 
   103                           ; Code-generator required, PIC18F8722 Definitions
   104                           ; 
   105                           ; SFR Addresses
   106  0000                     
   107                           	psect	idataBANK1
   108  004E44                     __pidataBANK1:
   109                           	callstack 0
   110                           
   111                           ;initializer for set_message@F5192
   112  004E44  24                 	db	36
   113  004E45  50                 	db	80
   114  004E46  52                 	db	82
   115  004E47  53                 	db	83
   116  004E48  30                 	db	48
   117  004E49  37                 	db	55
   118  004E4A  23                 	db	35
   119  004E4B  00                 	db	0
   120                           
   121                           ;initializer for set_message@F5190
   122  004E4C  24                 	db	36
   123  004E4D  50                 	db	80
   124  004E4E  52                 	db	82
   125  004E4F  53                 	db	83
   126  004E50  30                 	db	48
   127  004E51  36                 	db	54
   128  004E52  23                 	db	35
   129  004E53  00                 	db	0
   130                           
   131                           ;initializer for set_message@F5188
   132  004E54  24                 	db	36
   133  004E55  50                 	db	80
   134  004E56  52                 	db	82
   135  004E57  53                 	db	83
   136  004E58  30                 	db	48
   137  004E59  35                 	db	53
   138  004E5A  23                 	db	35
   139  004E5B  00                 	db	0
   140                           
   141                           ;initializer for set_message@F5186
   142  004E5C  24                 	db	36
   143  004E5D  50                 	db	80
   144  004E5E  52                 	db	82
   145  004E5F  53                 	db	83
   146  004E60  30                 	db	48
   147  004E61  34                 	db	52
   148  004E62  23                 	db	35
   149  004E63  00                 	db	0
   150                           
   151                           ;initializer for stoa@F1154
   152  004E64  28                 	db	40
   153  004E65  6E                 	db	110
   154  004E66  75                 	db	117
   155  004E67  6C                 	db	108
   156  004E68  6C                 	db	108
   157  004E69  29                 	db	41
   158  004E6A  00                 	db	0
   159                           
   160                           ;initializer for set_message@F5194
   161  004E6B  24                 	db	36
   162  004E6C  44                 	db	68
   163  004E6D  53                 	db	83
   164  004E6E  54                 	db	84
   165  004E6F  00                 	db	0
   166                           
   167                           ;initializer for set_message@F5184
   168  004E70  41                 	db	65
   169  004E71  4C                 	db	76
   170  004E72  54                 	db	84
   171  004E73  00                 	db	0
   172  0000                     _RCREG1	set	4014
   173  0000                     _TXREG1	set	4013
   174  0000                     _PIR1bits	set	3998
   175  0000                     _RCONbits	set	4048
   176  0000                     _T0CON	set	4053
   177  0000                     _IPR1bits	set	3999
   178  0000                     _ADRESL	set	4035
   179  0000                     _ADRESH	set	4036
   180  0000                     _ADCON2	set	4032
   181  0000                     _ADCON0	set	4034
   182  0000                     _TRISH	set	3993
   183  0000                     _RCSTA1bits	set	4011
   184  0000                     _TXSTA1bits	set	4012
   185  0000                     _BAUDCON1bits	set	3966
   186  0000                     _SPBRGH1	set	3967
   187  0000                     _SPBRG1	set	4015
   188  0000                     _ADCON1	set	4033
   189  0000                     _IPR1	set	3999
   190  0000                     _PIR1	set	3998
   191  0000                     _INTCON	set	4082
   192  0000                     _PIE1	set	3997
   193  0000                     _BAUDCON1	set	3966
   194  0000                     _RCSTA1	set	4011
   195  0000                     _TXSTA1	set	4012
   196  0000                     _TRISC	set	3988
   197  0000                     _TRISDbits	set	3989
   198  0000                     _TRISCbits	set	3988
   199  0000                     _TRISBbits	set	3987
   200  0000                     _TRISAbits	set	3986
   201  0000                     _TRISB	set	3987
   202  0000                     _LATB	set	3978
   203  0000                     _PORTBbits	set	3969
   204  0000                     _LATDbits	set	3980
   205  0000                     _LATCbits	set	3979
   206  0000                     _LATBbits	set	3978
   207  0000                     _LATAbits	set	3977
   208  0000                     _INTCONbits	set	4082
   209  0000                     _TMR0H	set	4055
   210  0000                     _TMR0L	set	4054
   211  0000                     _PIE1bits	set	3997
   212  0000                     _GODONE	set	32273
   213                           
   214                           	psect	smallconst
   215  001000                     __psmallconst:
   216                           	callstack 0
   217  001000  00                 	db	0
   218  001001                     STR_7:
   219  001001  25                 	db	37
   220  001002  30                 	db	48	;'0'
   221  001003  34                 	db	52	;'4'
   222  001004  58                 	db	88	;'X'
   223  001005  00                 	db	0
   224  001006                     STR_84:
   225  001006  68                 	db	104	;'h'
   226  001007  68                 	db	104	;'h'
   227  001008  58                 	db	88	;'X'
   228  001009  00                 	db	0
   229  00100A                     STR_8:
   230  00100A  68                 	db	104	;'h'
   231  00100B  68                 	db	104	;'h'
   232  00100C  64                 	db	100	;'d'
   233  00100D  00                 	db	0
   234  00100E                     STR_12:
   235  00100E  68                 	db	104	;'h'
   236  00100F  68                 	db	104	;'h'
   237  001010  69                 	db	105	;'i'
   238  001011  00                 	db	0
   239  001012                     STR_50:
   240  001012  68                 	db	104	;'h'
   241  001013  68                 	db	104	;'h'
   242  001014  6E                 	db	110	;'n'
   243  001015  00                 	db	0
   244  001016                     STR_35:
   245  001016  68                 	db	104	;'h'
   246  001017  68                 	db	104	;'h'
   247  001018  6F                 	db	111	;'o'
   248  001019  00                 	db	0
   249  00101A                     STR_65:
   250  00101A  68                 	db	104	;'h'
   251  00101B  68                 	db	104	;'h'
   252  00101C  75                 	db	117	;'u'
   253  00101D  00                 	db	0
   254  00101E                     STR_80:
   255  00101E  68                 	db	104	;'h'
   256  00101F  68                 	db	104	;'h'
   257  001020  78                 	db	120	;'x'
   258  001021  00                 	db	0
   259  001022                     STR_6:
   260  001022  4C                 	db	76	;'L'
   261  001023  45                 	db	69	;'E'
   262  001024  44                 	db	68	;'D'
   263  001025  00                 	db	0
   264  001026                     STR_2:
   265  001026  45                 	db	69	;'E'
   266  001027  4E                 	db	78	;'N'
   267  001028  44                 	db	68	;'D'
   268  001029  00                 	db	0
   269  00102A                     STR_3:
   270  00102A  53                 	db	83	;'S'
   271  00102B  50                 	db	80	;'P'
   272  00102C  44                 	db	68	;'D'
   273  00102D  00                 	db	0
   274  00102E                     STR_5:
   275  00102E  4D                 	db	77	;'M'
   276  00102F  41                 	db	65	;'A'
   277  001030  4E                 	db	78	;'N'
   278  001031  00                 	db	0
   279  001032                     STR_1:
   280  001032  47                 	db	71	;'G'
   281  001033  4F                 	db	79	;'O'
   282  001034  4F                 	db	79	;'O'
   283  001035  00                 	db	0
   284  001036                     STR_4:
   285  001036  41                 	db	65	;'A'
   286  001037  4C                 	db	76	;'L'
   287  001038  54                 	db	84	;'T'
   288  001039  00                 	db	0
   289  00103A                     STR_102:
   290  00103A  7A                 	db	122	;'z'
   291  00103B  58                 	db	88	;'X'
   292  00103C  00                 	db	0
   293  00103D                     STR_26:
   294  00103D  7A                 	db	122	;'z'
   295  00103E  64                 	db	100	;'d'
   296  00103F  00                 	db	0
   297  001040                     STR_30:
   298  001040  7A                 	db	122	;'z'
   299  001041  69                 	db	105	;'i'
   300  001042  00                 	db	0
   301  001043                     STR_60:
   302  001043  7A                 	db	122	;'z'
   303  001044  6E                 	db	110	;'n'
   304  001045  00                 	db	0
   305  001046                     STR_45:
   306  001046  7A                 	db	122	;'z'
   307  001047  6F                 	db	111	;'o'
   308  001048  00                 	db	0
   309  001049                     STR_75:
   310  001049  7A                 	db	122	;'z'
   311  00104A  75                 	db	117	;'u'
   312  00104B  00                 	db	0
   313  00104C                     STR_98:
   314  00104C  7A                 	db	122	;'z'
   315  00104D  78                 	db	120	;'x'
   316  00104E  00                 	db	0
   317  00104F  00                 	db	0	; dummy byte at the end
   318  0000                     
   319                           ; #config settings
   320                           
   321                           	psect	cinit
   322  004B4C                     __pcinit:
   323                           	callstack 0
   324  004B4C                     start_initialization:
   325                           	callstack 0
   326  004B4C                     __initialization:
   327                           	callstack 0
   328                           
   329                           ; Initialize objects allocated to BANK1 (48 bytes)
   330                           ; load TBLPTR registers with __pidataBANK1
   331  004B4C  0E44               	movlw	low __pidataBANK1
   332  004B4E  6EF6               	movwf	tblptrl,c
   333  004B50  0E4E               	movlw	high __pidataBANK1
   334  004B52  6EF7               	movwf	tblptrh,c
   335  004B54  0E00               	movlw	low (__pidataBANK1 shr (0+16))
   336  004B56  6EF8               	movwf	tblptru,c
   337  004B58  EE01  F0B3         	lfsr	0,__pdataBANK1
   338  004B5C  EE10 F030          	lfsr	1,48
   339  004B60                     copy_data0:
   340  004B60  0009               	tblrd		*+
   341  004B62  CFF5 FFEE          	movff	tablat,postinc0
   342  004B66  50E5               	movf	postdec1,w,c
   343  004B68  50E1               	movf	fsr1l,w,c
   344  004B6A  E1FA               	bnz	copy_data0
   345                           
   346                           ; Clear objects allocated to BANK3 (128 bytes)
   347  004B6C  EE03  F000         	lfsr	0,__pbssBANK3
   348  004B70  0E80               	movlw	128
   349  004B72                     clear_0:
   350  004B72  6AEE               	clrf	postinc0,c
   351  004B74  06E8               	decf	wreg,f,c
   352  004B76  E1FD               	bnz	clear_0
   353                           
   354                           ; Clear objects allocated to BANK2 (132 bytes)
   355  004B78  EE02  F000         	lfsr	0,__pbssBANK2
   356  004B7C  0E84               	movlw	132
   357  004B7E                     clear_1:
   358  004B7E  6AEE               	clrf	postinc0,c
   359  004B80  06E8               	decf	wreg,f,c
   360  004B82  E1FD               	bnz	clear_1
   361                           
   362                           ; Clear objects allocated to BANK1 (179 bytes)
   363  004B84  EE01  F000         	lfsr	0,__pbssBANK1
   364  004B88  0EB3               	movlw	179
   365  004B8A                     clear_2:
   366  004B8A  6AEE               	clrf	postinc0,c
   367  004B8C  06E8               	decf	wreg,f,c
   368  004B8E  E1FD               	bnz	clear_2
   369                           
   370                           ; Clear objects allocated to BANK0 (35 bytes)
   371  004B90  EE00  F0DC         	lfsr	0,__pbssBANK0
   372  004B94  0E23               	movlw	35
   373  004B96                     clear_3:
   374  004B96  6AEE               	clrf	postinc0,c
   375  004B98  06E8               	decf	wreg,f,c
   376  004B9A  E1FD               	bnz	clear_3
   377  004B9C                     end_of_initialization:
   378                           	callstack 0
   379  004B9C                     __end_of__initialization:
   380                           	callstack 0
   381  004B9C  905E               	bcf	int$flags,0,c	;clear compiler interrupt flag (level 1)
   382  004B9E  925E               	bcf	int$flags,1,c	;clear compiler interrupt flag (level 2)
   383  004BA0  0100               	movlb	0
   384  004BA2  EF3E  F026         	goto	_main	;jump to C main() function
   385                           
   386                           	psect	bssBANK0
   387  0000DC                     __pbssBANK0:
   388                           	callstack 0
   389  0000DC                     _nout:
   390                           	callstack 0
   391  0000DC                     	ds	2
   392  0000DE                     _width:
   393                           	callstack 0
   394  0000DE                     	ds	2
   395  0000E0                     _prec:
   396                           	callstack 0
   397  0000E0                     	ds	2
   398  0000E2                     _flags:
   399                           	callstack 0
   400  0000E2                     	ds	2
   401  0000E4                     _rb4mode:
   402                           	callstack 0
   403  0000E4                     	ds	2
   404  0000E6                     _rb7_pressed_flag:
   405                           	callstack 0
   406  0000E6                     	ds	2
   407  0000E8                     _rb6_pressed_flag:
   408                           	callstack 0
   409  0000E8                     	ds	2
   410  0000EA                     _rb5_pressed_flag:
   411                           	callstack 0
   412  0000EA                     	ds	2
   413  0000EC                     _rb4_pressed_flag:
   414                           	callstack 0
   415  0000EC                     	ds	2
   416  0000EE                     _rb7_prev:
   417                           	callstack 0
   418  0000EE                     	ds	2
   419  0000F0                     _rb6_prev:
   420                           	callstack 0
   421  0000F0                     	ds	2
   422  0000F2                     _rb5_prev:
   423                           	callstack 0
   424  0000F2                     	ds	2
   425  0000F4                     _rb4_prev:
   426                           	callstack 0
   427  0000F4                     	ds	2
   428  0000F6                     _alt_counter:
   429                           	callstack 0
   430  0000F6                     	ds	2
   431  0000F8                     _alt_period:
   432                           	callstack 0
   433  0000F8                     	ds	2
   434  0000FA                     _speed:
   435                           	callstack 0
   436  0000FA                     	ds	2
   437  0000FC                     _distance:
   438                           	callstack 0
   439  0000FC                     	ds	2
   440  0000FE                     _operation_mode:
   441                           	callstack 0
   442  0000FE                     	ds	1
   443                           
   444                           	psect	bssBANK1
   445  000100                     __pbssBANK1:
   446                           	callstack 0
   447  000100                     _input:
   448                           	callstack 0
   449  000100                     	ds	132
   450  000184                     _errno:
   451                           	callstack 0
   452  000184                     	ds	2
   453  000186                     _manualflag:
   454                           	callstack 0
   455  000186                     	ds	2
   456  000188                     _rb7mode:
   457                           	callstack 0
   458  000188                     	ds	2
   459  00018A                     _rb6mode:
   460                           	callstack 0
   461  00018A                     	ds	2
   462  00018C                     _rb5mode:
   463                           	callstack 0
   464  00018C                     	ds	2
   465  00018E                     _packet_is_proccessing:
   466                           	callstack 0
   467  00018E                     	ds	2
   468  000190                     _pkt_body_size:
   469                           	callstack 0
   470  000190                     	ds	2
   471  000192                     _pkt_state:
   472                           	callstack 0
   473  000192                     	ds	1
   474  000193                     _dbuf:
   475                           	callstack 0
   476  000193                     	ds	32
   477                           
   478                           	psect	dataBANK1
   479  0001B3                     __pdataBANK1:
   480                           	callstack 0
   481  0001B3                     set_message@F5192:
   482                           	callstack 0
   483  0001B3                     	ds	8
   484  0001BB                     set_message@F5190:
   485                           	callstack 0
   486  0001BB                     	ds	8
   487  0001C3                     set_message@F5188:
   488                           	callstack 0
   489  0001C3                     	ds	8
   490  0001CB                     set_message@F5186:
   491                           	callstack 0
   492  0001CB                     	ds	8
   493  0001D3                     stoa@F1154:
   494                           	callstack 0
   495  0001D3                     	ds	7
   496  0001DA                     set_message@F5194:
   497                           	callstack 0
   498  0001DA                     	ds	5
   499  0001DF                     set_message@F5184:
   500                           	callstack 0
   501  0001DF                     	ds	4
   502                           
   503                           	psect	bssBANK2
   504  000200                     __pbssBANK2:
   505                           	callstack 0
   506  000200                     _output:
   507                           	callstack 0
   508  000200                     	ds	132
   509                           
   510                           	psect	bssBANK3
   511  000300                     __pbssBANK3:
   512                           	callstack 0
   513  000300                     _packet:
   514                           	callstack 0
   515  000300                     	ds	128
   516                           
   517                           	psect	cstackBANK1
   518  0001E3                     __pcstackBANK1:
   519                           	callstack 0
   520  0001E3                     ?_strcmp:
   521                           	callstack 0
   522  0001E3                     ?_buffer_is_empty:
   523                           	callstack 0
   524  0001E3                     ?_char_to_int:
   525                           	callstack 0
   526  0001E3                     initialize_buffer@buf_type:
   527                           	callstack 0
   528  0001E3                     clear_packet@i:
   529                           	callstack 0
   530  0001E3                     strcmp@l:
   531                           	callstack 0
   532                           
   533                           ; 2 bytes @ 0x0
   534  0001E3                     	ds	1
   535  0001E4                     initialize_buffer@i:
   536                           	callstack 0
   537                           
   538                           ; 2 bytes @ 0x1
   539  0001E4                     	ds	1
   540  0001E5                     buffer_is_empty@buf_type:
   541                           	callstack 0
   542  0001E5                     char_to_int@c:
   543                           	callstack 0
   544  0001E5                     strcmp@r:
   545                           	callstack 0
   546                           
   547                           ; 2 bytes @ 0x2
   548  0001E5                     	ds	1
   549  0001E6                     ?_hex_string_to_int:
   550                           	callstack 0
   551  0001E6                     buffer_pop@buf_type:
   552                           	callstack 0
   553  0001E6                     initialize_buffer@i_952:
   554                           	callstack 0
   555  0001E6                     hex_string_to_int@packet:
   556                           	callstack 0
   557                           
   558                           ; 2 bytes @ 0x3
   559  0001E6                     	ds	1
   560  0001E7                     ??_strcmp:
   561  0001E7                     buffer_pop@result:
   562                           	callstack 0
   563                           
   564                           ; 1 bytes @ 0x4
   565  0001E7                     	ds	1
   566  0001E8                     create_packet@c:
   567                           	callstack 0
   568  0001E8                     hex_string_to_int@size:
   569                           	callstack 0
   570  0001E8                     get_command_type@command:
   571                           	callstack 0
   572                           
   573                           ; 2 bytes @ 0x5
   574  0001E8                     	ds	1
   575  0001E9                     create_packet@c_965:
   576                           	callstack 0
   577                           
   578                           ; 1 bytes @ 0x6
   579  0001E9                     	ds	1
   580  0001EA                     ??_hex_string_to_int:
   581  0001EA                     
   582                           ; 1 bytes @ 0x7
   583  0001EA                     	ds	3
   584  0001ED                     hex_string_to_int@result:
   585                           	callstack 0
   586                           
   587                           ; 2 bytes @ 0xA
   588  0001ED                     	ds	2
   589  0001EF                     hex_string_to_int@i:
   590                           	callstack 0
   591                           
   592                           ; 2 bytes @ 0xC
   593  0001EF                     	ds	2
   594  0001F1                     ??_evaluate_packet:
   595                           
   596                           ; 1 bytes @ 0xE
   597  0001F1                     	ds	2
   598  0001F3                     evaluate_packet@command:
   599                           	callstack 0
   600                           
   601                           ; 4 bytes @ 0x10
   602  0001F3                     	ds	4
   603  0001F7                     evaluate_packet@command_type:
   604                           	callstack 0
   605                           
   606                           ; 1 bytes @ 0x14
   607  0001F7                     	ds	1
   608  0001F8                     evaluate_packet@open_rbs:
   609                           	callstack 0
   610                           
   611                           ; 2 bytes @ 0x15
   612  0001F8                     	ds	2
   613  0001FA                     evaluate_packet@i:
   614                           	callstack 0
   615                           
   616                           ; 2 bytes @ 0x17
   617  0001FA                     	ds	2
   618  0001FC                     evaluate_packet@led_number:
   619                           	callstack 0
   620                           
   621                           ; 2 bytes @ 0x19
   622  0001FC                     	ds	2
   623  0001FE                     
   624                           ; 1 bytes @ 0x1B
   625                           
   626                           	psect	cstackBANK0
   627  000060                     __pcstackBANK0:
   628                           	callstack 0
   629  000060                     vfpfcnvrt@cp:
   630                           	callstack 0
   631                           
   632                           ; 2 bytes @ 0x0
   633  000060                     	ds	2
   634  000062                     vfpfcnvrt@done:
   635                           	callstack 0
   636                           
   637                           ; 2 bytes @ 0x2
   638  000062                     	ds	2
   639  000064                     _vfpfcnvrt$1790:
   640                           	callstack 0
   641                           
   642                           ; 2 bytes @ 0x4
   643  000064                     	ds	2
   644  000066                     _vfpfcnvrt$1791:
   645                           	callstack 0
   646                           
   647                           ; 2 bytes @ 0x6
   648  000066                     	ds	2
   649  000068                     vfpfcnvrt@ll:
   650                           	callstack 0
   651                           
   652                           ; 8 bytes @ 0x8
   653  000068                     	ds	8
   654  000070                     vfpfcnvrt@vp:
   655                           	callstack 0
   656                           
   657                           ; 2 bytes @ 0x10
   658  000070                     	ds	2
   659  000072                     vfpfcnvrt@c:
   660                           	callstack 0
   661                           
   662                           ; 1 bytes @ 0x12
   663  000072                     	ds	1
   664  000073                     vfpfcnvrt@llu:
   665                           	callstack 0
   666                           
   667                           ; 8 bytes @ 0x13
   668  000073                     	ds	8
   669  00007B                     ?_vsnprintf:
   670                           	callstack 0
   671  00007B                     vsnprintf@s:
   672                           	callstack 0
   673                           
   674                           ; 2 bytes @ 0x1B
   675  00007B                     	ds	2
   676  00007D                     vsnprintf@n:
   677                           	callstack 0
   678                           
   679                           ; 2 bytes @ 0x1D
   680  00007D                     	ds	2
   681  00007F                     vsnprintf@fmt:
   682                           	callstack 0
   683                           
   684                           ; 2 bytes @ 0x1F
   685  00007F                     	ds	2
   686  000081                     vsnprintf@ap:
   687                           	callstack 0
   688                           
   689                           ; 2 bytes @ 0x21
   690  000081                     	ds	2
   691  000083                     _vsnprintf$1653:
   692                           	callstack 0
   693                           
   694                           ; 2 bytes @ 0x23
   695  000083                     	ds	2
   696  000085                     vsnprintf@cnt:
   697                           	callstack 0
   698                           
   699                           ; 2 bytes @ 0x25
   700  000085                     	ds	2
   701  000087                     vsnprintf@f:
   702                           	callstack 0
   703                           
   704                           ; 6 bytes @ 0x27
   705  000087                     	ds	6
   706  00008D                     ?_snprintf:
   707                           	callstack 0
   708  00008D                     snprintf@s:
   709                           	callstack 0
   710                           
   711                           ; 2 bytes @ 0x2D
   712  00008D                     	ds	2
   713  00008F                     snprintf@n:
   714                           	callstack 0
   715                           
   716                           ; 2 bytes @ 0x2F
   717  00008F                     	ds	2
   718  000091                     snprintf@fmt:
   719                           	callstack 0
   720                           
   721                           ; 2 bytes @ 0x31
   722  000091                     	ds	4
   723  000095                     int_to_hex_and_push@num:
   724                           	callstack 0
   725                           
   726                           ; 2 bytes @ 0x35
   727  000095                     	ds	2
   728  000097                     int_to_hex_and_push@hexStr:
   729                           	callstack 0
   730                           
   731                           ; 9 bytes @ 0x37
   732  000097                     	ds	9
   733  0000A0                     int_to_hex_and_push@ptr:
   734                           	callstack 0
   735                           
   736                           ; 2 bytes @ 0x40
   737  0000A0                     	ds	2
   738  0000A2                     set_message@string:
   739                           	callstack 0
   740                           
   741                           ; 8 bytes @ 0x42
   742  0000A2                     	ds	8
   743  0000AA                     set_message@string_1139:
   744                           	callstack 0
   745                           
   746                           ; 8 bytes @ 0x4A
   747  0000AA                     	ds	8
   748  0000B2                     set_message@string_1141:
   749                           	callstack 0
   750                           
   751                           ; 8 bytes @ 0x52
   752  0000B2                     	ds	8
   753  0000BA                     set_message@string_1143:
   754                           	callstack 0
   755                           
   756                           ; 8 bytes @ 0x5A
   757  0000BA                     	ds	8
   758  0000C2                     set_message@string_1145:
   759                           	callstack 0
   760                           
   761                           ; 5 bytes @ 0x62
   762  0000C2                     	ds	5
   763  0000C7                     set_message@start_string:
   764                           	callstack 0
   765                           
   766                           ; 4 bytes @ 0x67
   767  0000C7                     	ds	4
   768  0000CB                     set_message@message_sent:
   769                           	callstack 0
   770                           
   771                           ; 2 bytes @ 0x6B
   772  0000CB                     	ds	2
   773  0000CD                     ??_highPriorityISR:
   774                           
   775                           ; 1 bytes @ 0x6D
   776  0000CD                     	ds	12
   777  0000D9                     highPriorityISR@c:
   778                           	callstack 0
   779                           
   780                           ; 1 bytes @ 0x79
   781  0000D9                     	ds	1
   782  0000DA                     highPriorityISR@result:
   783                           	callstack 0
   784                           
   785                           ; 2 bytes @ 0x7A
   786  0000DA                     	ds	2
   787                           
   788                           	psect	cstackCOMRAM
   789  000001                     __pcstackCOMRAM:
   790                           	callstack 0
   791  000001                     ?_strlen:
   792                           	callstack 0
   793  000001                     ?_isupper:
   794                           	callstack 0
   795  000001                     ?_isalpha:
   796                           	callstack 0
   797  000001                     ?_isdigit:
   798                           	callstack 0
   799  000001                     ?_strncmp:
   800                           	callstack 0
   801  000001                     ?_isspace:
   802                           	callstack 0
   803  000001                     ?_islower:
   804                           	callstack 0
   805  000001                     ?___wmul:
   806                           	callstack 0
   807  000001                     ?i2_buffer_is_empty:
   808                           	callstack 0
   809  000001                     ?___aodiv:
   810                           	callstack 0
   811  000001                     ?___aomod:
   812                           	callstack 0
   813  000001                     ?___lodiv:
   814                           	callstack 0
   815  000001                     ?___lomod:
   816                           	callstack 0
   817  000001                     buffer_push@buf_type:
   818                           	callstack 0
   819  000001                     ___wmul@multiplier:
   820                           	callstack 0
   821  000001                     isalpha@c:
   822                           	callstack 0
   823  000001                     isdigit@c:
   824                           	callstack 0
   825  000001                     isspace@c:
   826                           	callstack 0
   827  000001                     isupper@c:
   828                           	callstack 0
   829  000001                     fputc@c:
   830                           	callstack 0
   831  000001                     strlen@s:
   832                           	callstack 0
   833  000001                     strncmp@_l:
   834                           	callstack 0
   835  000001                     islower@c:
   836                           	callstack 0
   837  000001                     ___aodiv@dividend:
   838                           	callstack 0
   839  000001                     ___aomod@dividend:
   840                           	callstack 0
   841  000001                     ___lodiv@dividend:
   842                           	callstack 0
   843  000001                     ___lomod@dividend:
   844                           	callstack 0
   845                           
   846                           ; 8 bytes @ 0x0
   847  000001                     	ds	1
   848  000002                     buffer_push@c:
   849                           	callstack 0
   850                           
   851                           ; 1 bytes @ 0x1
   852  000002                     	ds	1
   853  000003                     ??_isupper:
   854  000003                     ??_isalpha:
   855  000003                     ??_isdigit:
   856  000003                     ??_isspace:
   857  000003                     ??_islower:
   858  000003                     i2buffer_is_empty@buf_type:
   859                           	callstack 0
   860  000003                     write_string_to_output_buffer@str:
   861                           	callstack 0
   862  000003                     ___wmul@multiplicand:
   863                           	callstack 0
   864  000003                     fputc@fp:
   865                           	callstack 0
   866  000003                     strlen@a:
   867                           	callstack 0
   868  000003                     strncmp@_r:
   869                           	callstack 0
   870                           
   871                           ; 2 bytes @ 0x2
   872  000003                     	ds	1
   873  000004                     i2buffer_pop@buf_type:
   874                           	callstack 0
   875                           
   876                           ; 1 bytes @ 0x3
   877  000004                     	ds	1
   878  000005                     ??_fputc:
   879  000005                     i2buffer_pop@result:
   880                           	callstack 0
   881  000005                     ___wmul@product:
   882                           	callstack 0
   883  000005                     strncmp@n:
   884                           	callstack 0
   885                           
   886                           ; 2 bytes @ 0x4
   887  000005                     	ds	2
   888  000007                     ??_strncmp:
   889  000007                     ?_toupper:
   890                           	callstack 0
   891  000007                     _isspace$1943:
   892                           	callstack 0
   893  000007                     toupper@c:
   894                           	callstack 0
   895                           
   896                           ; 2 bytes @ 0x6
   897  000007                     	ds	1
   898  000008                     ?_atoi:
   899                           	callstack 0
   900  000008                     atoi@s:
   901                           	callstack 0
   902  000008                     strncmp@l:
   903                           	callstack 0
   904                           
   905                           ; 2 bytes @ 0x7
   906  000008                     	ds	1
   907  000009                     ??_toupper:
   908  000009                     ___aodiv@divisor:
   909                           	callstack 0
   910  000009                     ___aomod@divisor:
   911                           	callstack 0
   912  000009                     ___lodiv@divisor:
   913                           	callstack 0
   914  000009                     ___lomod@divisor:
   915                           	callstack 0
   916                           
   917                           ; 8 bytes @ 0x8
   918  000009                     	ds	1
   919  00000A                     ??_atoi:
   920  00000A                     ?_ctoa:
   921                           	callstack 0
   922  00000A                     ?_stoa:
   923                           	callstack 0
   924  00000A                     ctoa@fp:
   925                           	callstack 0
   926  00000A                     stoa@fp:
   927                           	callstack 0
   928  00000A                     fputs@s:
   929                           	callstack 0
   930  00000A                     strncmp@r:
   931                           	callstack 0
   932                           
   933                           ; 2 bytes @ 0x9
   934  00000A                     	ds	2
   935  00000C                     ctoa@c:
   936                           	callstack 0
   937  00000C                     stoa@s:
   938                           	callstack 0
   939  00000C                     fputs@fp:
   940                           	callstack 0
   941                           
   942                           ; 2 bytes @ 0xB
   943  00000C                     	ds	1
   944  00000D                     ??_ctoa:
   945  00000D                     _toupper$2006:
   946                           	callstack 0
   947                           
   948                           ; 2 bytes @ 0xC
   949  00000D                     	ds	1
   950  00000E                     ??_stoa:
   951  00000E                     fputs@c:
   952                           	callstack 0
   953  00000E                     ctoa@l:
   954                           	callstack 0
   955  00000E                     atoi@neg:
   956                           	callstack 0
   957                           
   958                           ; 2 bytes @ 0xD
   959  00000E                     	ds	1
   960  00000F                     fputs@i:
   961                           	callstack 0
   962  00000F                     stoa@nuls:
   963                           	callstack 0
   964                           
   965                           ; 7 bytes @ 0xE
   966  00000F                     	ds	1
   967  000010                     ctoa@w:
   968                           	callstack 0
   969  000010                     _atoi$1915:
   970                           	callstack 0
   971                           
   972                           ; 2 bytes @ 0xF
   973  000010                     	ds	1
   974  000011                     ?_pad:
   975                           	callstack 0
   976  000011                     ___aodiv@counter:
   977                           	callstack 0
   978  000011                     ___aomod@counter:
   979                           	callstack 0
   980  000011                     ___lomod@counter:
   981                           	callstack 0
   982  000011                     pad@fp:
   983                           	callstack 0
   984  000011                     ___lodiv@quotient:
   985                           	callstack 0
   986                           
   987                           ; 8 bytes @ 0x10
   988  000011                     	ds	1
   989  000012                     ___aodiv@sign:
   990                           	callstack 0
   991  000012                     ___aomod@sign:
   992                           	callstack 0
   993  000012                     _atoi$1917:
   994                           	callstack 0
   995                           
   996                           ; 2 bytes @ 0x11
   997  000012                     	ds	1
   998  000013                     ?_abs:
   999                           	callstack 0
  1000  000013                     pad@buf:
  1001                           	callstack 0
  1002  000013                     abs@a:
  1003                           	callstack 0
  1004  000013                     ___aodiv@quotient:
  1005                           	callstack 0
  1006                           
  1007                           ; 8 bytes @ 0x12
  1008  000013                     	ds	1
  1009  000014                     _atoi$1916:
  1010                           	callstack 0
  1011                           
  1012                           ; 1 bytes @ 0x13
  1013  000014                     	ds	1
  1014  000015                     ??_abs:
  1015  000015                     pad@p:
  1016                           	callstack 0
  1017  000015                     atoi@n:
  1018                           	callstack 0
  1019                           
  1020                           ; 2 bytes @ 0x14
  1021  000015                     	ds	1
  1022  000016                     stoa@i:
  1023                           	callstack 0
  1024                           
  1025                           ; 2 bytes @ 0x15
  1026  000016                     	ds	1
  1027  000017                     ??_pad:
  1028                           
  1029                           ; 1 bytes @ 0x16
  1030  000017                     	ds	1
  1031  000018                     pad@i:
  1032                           	callstack 0
  1033  000018                     stoa@w:
  1034                           	callstack 0
  1035                           
  1036                           ; 2 bytes @ 0x17
  1037  000018                     	ds	1
  1038  000019                     ___lodiv@counter:
  1039                           	callstack 0
  1040                           
  1041                           ; 1 bytes @ 0x18
  1042  000019                     	ds	1
  1043  00001A                     pad@w:
  1044                           	callstack 0
  1045  00001A                     stoa@cp:
  1046                           	callstack 0
  1047                           
  1048                           ; 2 bytes @ 0x19
  1049  00001A                     	ds	2
  1050  00001C                     ?_dtoa:
  1051                           	callstack 0
  1052  00001C                     ?_otoa:
  1053                           	callstack 0
  1054  00001C                     ?_utoa:
  1055                           	callstack 0
  1056  00001C                     ?_xtoa:
  1057                           	callstack 0
  1058  00001C                     dtoa@fp:
  1059                           	callstack 0
  1060  00001C                     otoa@fp:
  1061                           	callstack 0
  1062  00001C                     stoa@p:
  1063                           	callstack 0
  1064  00001C                     utoa@fp:
  1065                           	callstack 0
  1066  00001C                     xtoa@fp:
  1067                           	callstack 0
  1068                           
  1069                           ; 2 bytes @ 0x1B
  1070  00001C                     	ds	2
  1071  00001E                     stoa@l:
  1072                           	callstack 0
  1073  00001E                     dtoa@d:
  1074                           	callstack 0
  1075  00001E                     otoa@d:
  1076                           	callstack 0
  1077  00001E                     utoa@d:
  1078                           	callstack 0
  1079  00001E                     xtoa@d:
  1080                           	callstack 0
  1081                           
  1082                           ; 8 bytes @ 0x1D
  1083  00001E                     	ds	8
  1084  000026                     ??_dtoa:
  1085  000026                     ??_otoa:
  1086  000026                     ??_utoa:
  1087  000026                     xtoa@x:
  1088                           	callstack 0
  1089                           
  1090                           ; 1 bytes @ 0x25
  1091  000026                     	ds	1
  1092  000027                     ??_xtoa:
  1093                           
  1094                           ; 1 bytes @ 0x26
  1095  000027                     	ds	7
  1096  00002E                     _dtoa$1738:
  1097                           	callstack 0
  1098  00002E                     otoa@p:
  1099                           	callstack 0
  1100  00002E                     utoa@p:
  1101                           	callstack 0
  1102                           
  1103                           ; 2 bytes @ 0x2D
  1104  00002E                     	ds	1
  1105  00002F                     _xtoa$1775:
  1106                           	callstack 0
  1107                           
  1108                           ; 2 bytes @ 0x2E
  1109  00002F                     	ds	1
  1110  000030                     dtoa@p:
  1111                           	callstack 0
  1112  000030                     otoa@t:
  1113                           	callstack 0
  1114  000030                     utoa@w:
  1115                           	callstack 0
  1116                           
  1117                           ; 2 bytes @ 0x2F
  1118  000030                     	ds	1
  1119  000031                     _xtoa$1776:
  1120                           	callstack 0
  1121                           
  1122                           ; 2 bytes @ 0x30
  1123  000031                     	ds	1
  1124  000032                     dtoa@w:
  1125                           	callstack 0
  1126  000032                     otoa@w:
  1127                           	callstack 0
  1128  000032                     utoa@n:
  1129                           	callstack 0
  1130                           
  1131                           ; 8 bytes @ 0x31
  1132  000032                     	ds	1
  1133  000033                     xtoa@p:
  1134                           	callstack 0
  1135                           
  1136                           ; 2 bytes @ 0x32
  1137  000033                     	ds	1
  1138  000034                     dtoa@s:
  1139                           	callstack 0
  1140  000034                     otoa@n:
  1141                           	callstack 0
  1142                           
  1143                           ; 8 bytes @ 0x33
  1144  000034                     	ds	1
  1145  000035                     xtoa@w:
  1146                           	callstack 0
  1147                           
  1148                           ; 2 bytes @ 0x34
  1149  000035                     	ds	1
  1150  000036                     dtoa@n:
  1151                           	callstack 0
  1152                           
  1153                           ; 8 bytes @ 0x35
  1154  000036                     	ds	1
  1155  000037                     xtoa@n:
  1156                           	callstack 0
  1157                           
  1158                           ; 8 bytes @ 0x36
  1159  000037                     	ds	3
  1160  00003A                     utoa@i:
  1161                           	callstack 0
  1162                           
  1163                           ; 2 bytes @ 0x39
  1164  00003A                     	ds	2
  1165  00003C                     otoa@i:
  1166                           	callstack 0
  1167                           
  1168                           ; 2 bytes @ 0x3B
  1169  00003C                     	ds	2
  1170  00003E                     dtoa@i:
  1171                           	callstack 0
  1172                           
  1173                           ; 2 bytes @ 0x3D
  1174  00003E                     	ds	1
  1175  00003F                     xtoa@i:
  1176                           	callstack 0
  1177                           
  1178                           ; 2 bytes @ 0x3E
  1179  00003F                     	ds	2
  1180  000041                     xtoa@c:
  1181                           	callstack 0
  1182                           
  1183                           ; 2 bytes @ 0x40
  1184  000041                     	ds	2
  1185  000043                     ?_vfpfcnvrt:
  1186                           	callstack 0
  1187  000043                     vfpfcnvrt@fp:
  1188                           	callstack 0
  1189                           
  1190                           ; 2 bytes @ 0x42
  1191  000043                     	ds	2
  1192  000045                     vfpfcnvrt@fmt:
  1193                           	callstack 0
  1194                           
  1195                           ; 2 bytes @ 0x44
  1196  000045                     	ds	2
  1197  000047                     vfpfcnvrt@ap:
  1198                           	callstack 0
  1199                           
  1200                           ; 2 bytes @ 0x46
  1201  000047                     	ds	2
  1202  000049                     ??_vfpfcnvrt:
  1203                           
  1204                           ; 1 bytes @ 0x48
  1205  000049                     	ds	4
  1206  00004D                     ?_vfprintf:
  1207                           	callstack 0
  1208  00004D                     vfprintf@fp:
  1209                           	callstack 0
  1210                           
  1211                           ; 2 bytes @ 0x4C
  1212  00004D                     	ds	2
  1213  00004F                     vfprintf@fmt:
  1214                           	callstack 0
  1215                           
  1216                           ; 2 bytes @ 0x4E
  1217  00004F                     	ds	2
  1218  000051                     vfprintf@ap:
  1219                           	callstack 0
  1220                           
  1221                           ; 2 bytes @ 0x50
  1222  000051                     	ds	2
  1223  000053                     vfprintf@cfmt:
  1224                           	callstack 0
  1225                           
  1226                           ; 2 bytes @ 0x52
  1227  000053                     	ds	2
  1228  000055                     ??_vsnprintf:
  1229                           
  1230                           ; 1 bytes @ 0x54
  1231  000055                     	ds	5
  1232  00005A                     
  1233                           ; 1 bytes @ 0x59
  1234  00005A                     	ds	2
  1235  00005C                     snprintf@ap:
  1236                           	callstack 0
  1237                           
  1238                           ; 2 bytes @ 0x5B
  1239  00005C                     	ds	2
  1240  00005E                     
  1241                           ; 1 bytes @ 0x5D
  1242 ;;
  1243 ;;Main: autosize = 0, tempsize = 0, incstack = 0, save=0
  1244 ;;
  1245 ;; *************** function _main *****************
  1246 ;; Defined at:
  1247 ;;		line 610 in file "main.c"
  1248 ;; Parameters:    Size  Location     Type
  1249 ;;		None
  1250 ;; Auto vars:     Size  Location     Type
  1251 ;;		None
  1252 ;; Return value:  Size  Location     Type
  1253 ;;                  1    wreg      void 
  1254 ;; Registers used:
  1255 ;;		wreg, fsr1l, fsr1h, fsr2l, fsr2h, status,2, status,0, tblptrl, tblptrh, tblptru, cstack
  1256 ;; Tracked objects:
  1257 ;;		On entry : 0/0
  1258 ;;		On exit  : 0/0
  1259 ;;		Unchanged: 0/0
  1260 ;; Data sizes:     COMRAM   BANK0   BANK1   BANK2   BANK3   BANK4   BANK5   BANK6   BANK7   BANK8   BANK9  BANK10  BANK1
      +1  BANK12  BANK13  BANK14  BANK15
  1261 ;;      Params:         0       0       0       0       0       0       0       0       0       0       0       0       
      +0       0       0       0       0
  1262 ;;      Locals:         0       0       0       0       0       0       0       0       0       0       0       0       
      +0       0       0       0       0
  1263 ;;      Temps:          0       0       0       0       0       0       0       0       0       0       0       0       
      +0       0       0       0       0
  1264 ;;      Totals:         0       0       0       0       0       0       0       0       0       0       0       0       
      +0       0       0       0       0
  1265 ;;Total ram usage:        0 bytes
  1266 ;; Hardware stack levels required when called:   15
  1267 ;; This function calls:
  1268 ;;		_create_packet
  1269 ;;		_evaluate_packet
  1270 ;;		_initialize
  1271 ;;		_initialize_variables
  1272 ;; This function is called by:
  1273 ;;		Startup code after reset
  1274 ;; This function uses a non-reentrant model
  1275 ;;
  1276                           
  1277                           	psect	text0
  1278  004C7C                     __ptext0:
  1279                           	callstack 0
  1280  004C7C                     _main:
  1281                           	callstack 16
  1282  004C7C                     
  1283                           ;main.c: 611:     initialize_variables();
  1284  004C7C  EC3F  F021         	call	_initialize_variables	;wreg free
  1285  004C80                     
  1286                           ;main.c: 612:     initialize();
  1287  004C80  ECF2  F023         	call	_initialize	;wreg free
  1288  004C84                     
  1289                           ;main.c: 613:     TMR0L = 0xF7;
  1290  004C84  0EF7               	movlw	247
  1291  004C86  6ED6               	movwf	214,c	;volatile
  1292  004C88                     
  1293                           ;main.c: 614:     TMR0H = 0xC2;
  1294  004C88  0EC2               	movlw	194
  1295  004C8A  6ED7               	movwf	215,c	;volatile
  1296  004C8C                     
  1297                           ;main.c: 615:     pkt_state = PKT_WAIT_HDR;
  1298  004C8C  0E00               	movlw	0
  1299  004C8E  0101               	movlb	1	; () banked
  1300  004C90  6F92               	movwf	_pkt_state& (0+255),b
  1301  004C92                     l4670:
  1302                           
  1303                           ;main.c: 617:         if(operation_mode == END) break;
  1304  004C92  0E02               	movlw	2
  1305  004C94  0100               	movlb	0	; () banked
  1306  004C96  19FE               	xorwf	_operation_mode& (0+255),w,b
  1307  004C98  A4D8               	btfss	status,2,c
  1308  004C9A  EF51  F026         	goto	u5721
  1309  004C9E  EF53  F026         	goto	u5720
  1310  004CA2                     u5721:
  1311  004CA2  EF55  F026         	goto	l4674
  1312  004CA6                     u5720:
  1313  004CA6  EF5B  F026         	goto	l329
  1314  004CAA                     l4674:
  1315                           
  1316                           ; BSR set to: 0
  1317                           ;main.c: 618:         create_packet();
  1318  004CAA  EC79  F01F         	call	_create_packet	;wreg free
  1319  004CAE                     
  1320                           ;main.c: 619:         evaluate_packet();
  1321  004CAE  EC47  F013         	call	_evaluate_packet	;wreg free
  1322  004CB2  EF49  F026         	goto	l4670
  1323  004CB6                     l329:
  1324                           
  1325                           ; BSR set to: 0
  1326  004CB6  EF07  F000         	goto	start
  1327  004CBA                     __end_of_main:
  1328                           	callstack 0
  1329                           
  1330 ;; *************** function _initialize_variables *****************
  1331 ;; Defined at:
  1332 ;;		line 340 in file "main.c"
  1333 ;; Parameters:    Size  Location     Type
  1334 ;;		None
  1335 ;; Auto vars:     Size  Location     Type
  1336 ;;		None
  1337 ;; Return value:  Size  Location     Type
  1338 ;;                  1    wreg      void 
  1339 ;; Registers used:
  1340 ;;		wreg, fsr2l, fsr2h, status,2, status,0, cstack
  1341 ;; Tracked objects:
  1342 ;;		On entry : 0/0
  1343 ;;		On exit  : 0/0
  1344 ;;		Unchanged: 0/0
  1345 ;; Data sizes:     COMRAM   BANK0   BANK1   BANK2   BANK3   BANK4   BANK5   BANK6   BANK7   BANK8   BANK9  BANK10  BANK1
      +1  BANK12  BANK13  BANK14  BANK15
  1346 ;;      Params:         0       0       0       0       0       0       0       0       0       0       0       0       
      +0       0       0       0       0
  1347 ;;      Locals:         0       0       0       0       0       0       0       0       0       0       0       0       
      +0       0       0       0       0
  1348 ;;      Temps:          0       0       0       0       0       0       0       0       0       0       0       0       
      +0       0       0       0       0
  1349 ;;      Totals:         0       0       0       0       0       0       0       0       0       0       0       0       
      +0       0       0       0       0
  1350 ;;Total ram usage:        0 bytes
  1351 ;; Hardware stack levels used:    1
  1352 ;; Hardware stack levels required when called:   13
  1353 ;; This function calls:
  1354 ;;		_clear_packet
  1355 ;;		_initialize_buffer
  1356 ;; This function is called by:
  1357 ;;		_main
  1358 ;; This function uses a non-reentrant model
  1359 ;;
  1360                           
  1361                           	psect	text1
  1362  00427E                     __ptext1:
  1363                           	callstack 0
  1364  00427E                     _initialize_variables:
  1365                           	callstack 17
  1366  00427E                     
  1367                           ;main.c: 341:     initialize_buffer(INBUF);
  1368  00427E  0E01               	movlw	1
  1369  004280  EC6D  F022         	call	_initialize_buffer
  1370                           
  1371                           ;main.c: 342:     initialize_buffer(OUTBUF);
  1372  004284  0E00               	movlw	0
  1373  004286  EC6D  F022         	call	_initialize_buffer
  1374  00428A                     
  1375                           ;main.c: 344:     pkt_body_size = 0;
  1376  00428A  0E00               	movlw	0
  1377  00428C  0101               	movlb	1	; () banked
  1378  00428E  6F91               	movwf	(_pkt_body_size+1)& (0+255),b
  1379  004290  0E00               	movlw	0
  1380  004292  6F90               	movwf	_pkt_body_size& (0+255),b
  1381  004294                     
  1382                           ; BSR set to: 1
  1383                           ;main.c: 345:     clear_packet();
  1384  004294  EC5D  F026         	call	_clear_packet	;wreg free
  1385                           
  1386                           ;main.c: 346:     packet_is_proccessing = 0;
  1387  004298  0E00               	movlw	0
  1388  00429A  0101               	movlb	1	; () banked
  1389  00429C  6F8F               	movwf	(_packet_is_proccessing+1)& (0+255),b
  1390  00429E  0E00               	movlw	0
  1391  0042A0  6F8E               	movwf	_packet_is_proccessing& (0+255),b
  1392                           
  1393                           ;main.c: 348:     pkt_state = PKT_WAIT_HDR;
  1394  0042A2  0E00               	movlw	0
  1395  0042A4  6F92               	movwf	_pkt_state& (0+255),b
  1396                           
  1397                           ;main.c: 350:     distance = 0;
  1398  0042A6  0E00               	movlw	0
  1399  0042A8  0100               	movlb	0	; () banked
  1400  0042AA  6FFD               	movwf	(_distance+1)& (0+255),b
  1401  0042AC  0E00               	movlw	0
  1402  0042AE  6FFC               	movwf	_distance& (0+255),b
  1403                           
  1404                           ;main.c: 351:     speed = 0;
  1405  0042B0  0E00               	movlw	0
  1406  0042B2  6FFB               	movwf	(_speed+1)& (0+255),b
  1407  0042B4  0E00               	movlw	0
  1408  0042B6  6FFA               	movwf	_speed& (0+255),b
  1409                           
  1410                           ;main.c: 352:     rb4_pressed_flag = 0;
  1411  0042B8  0E00               	movlw	0
  1412  0042BA  6FED               	movwf	(_rb4_pressed_flag+1)& (0+255),b
  1413  0042BC  0E00               	movlw	0
  1414  0042BE  6FEC               	movwf	_rb4_pressed_flag& (0+255),b
  1415                           
  1416                           ;main.c: 353:     rb5_pressed_flag = 0;
  1417  0042C0  0E00               	movlw	0
  1418  0042C2  6FEB               	movwf	(_rb5_pressed_flag+1)& (0+255),b
  1419  0042C4  0E00               	movlw	0
  1420  0042C6  6FEA               	movwf	_rb5_pressed_flag& (0+255),b
  1421                           
  1422                           ;main.c: 354:     rb6_pressed_flag = 0;
  1423  0042C8  0E00               	movlw	0
  1424  0042CA  6FE9               	movwf	(_rb6_pressed_flag+1)& (0+255),b
  1425  0042CC  0E00               	movlw	0
  1426  0042CE  6FE8               	movwf	_rb6_pressed_flag& (0+255),b
  1427                           
  1428                           ;main.c: 355:     rb7_pressed_flag = 0;
  1429  0042D0  0E00               	movlw	0
  1430  0042D2  6FE7               	movwf	(_rb7_pressed_flag+1)& (0+255),b
  1431  0042D4  0E00               	movlw	0
  1432  0042D6  6FE6               	movwf	_rb7_pressed_flag& (0+255),b
  1433                           
  1434                           ;main.c: 356:     rb4mode = 0;
  1435  0042D8  0E00               	movlw	0
  1436  0042DA  6FE5               	movwf	(_rb4mode+1)& (0+255),b
  1437  0042DC  0E00               	movlw	0
  1438  0042DE  6FE4               	movwf	_rb4mode& (0+255),b
  1439                           
  1440                           ;main.c: 357:     rb5mode = 0;
  1441  0042E0  0E00               	movlw	0
  1442  0042E2  0101               	movlb	1	; () banked
  1443  0042E4  6F8D               	movwf	(_rb5mode+1)& (0+255),b
  1444  0042E6  0E00               	movlw	0
  1445  0042E8  6F8C               	movwf	_rb5mode& (0+255),b
  1446                           
  1447                           ;main.c: 358:     rb6mode = 0;
  1448  0042EA  0E00               	movlw	0
  1449  0042EC  6F8B               	movwf	(_rb6mode+1)& (0+255),b
  1450  0042EE  0E00               	movlw	0
  1451  0042F0  6F8A               	movwf	_rb6mode& (0+255),b
  1452                           
  1453                           ;main.c: 359:     rb7mode = 0;
  1454  0042F2  0E00               	movlw	0
  1455  0042F4  6F89               	movwf	(_rb7mode+1)& (0+255),b
  1456  0042F6  0E00               	movlw	0
  1457  0042F8  6F88               	movwf	_rb7mode& (0+255),b
  1458                           
  1459                           ;main.c: 360:     operation_mode = IDLE;
  1460  0042FA  0E00               	movlw	0
  1461  0042FC  0100               	movlb	0	; () banked
  1462  0042FE  6FFE               	movwf	_operation_mode& (0+255),b
  1463                           
  1464                           ;main.c: 362:     alt_period = 0;
  1465  004300  0E00               	movlw	0
  1466  004302  6FF9               	movwf	(_alt_period+1)& (0+255),b
  1467  004304  0E00               	movlw	0
  1468  004306  6FF8               	movwf	_alt_period& (0+255),b
  1469                           
  1470                           ;main.c: 363:     alt_counter = 0;
  1471  004308  0E00               	movlw	0
  1472  00430A  6FF7               	movwf	(_alt_counter+1)& (0+255),b
  1473  00430C  0E00               	movlw	0
  1474  00430E  6FF6               	movwf	_alt_counter& (0+255),b
  1475                           
  1476                           ;main.c: 365:     LATB = 0x00;
  1477  004310  0E00               	movlw	0
  1478  004312  6E8A               	movwf	138,c	;volatile
  1479                           
  1480                           ;main.c: 366:     TRISB = 0xF0;
  1481  004314  0EF0               	movlw	240
  1482  004316  6E93               	movwf	147,c	;volatile
  1483                           
  1484                           ;main.c: 367:     rb4_prev = 0;
  1485  004318  0E00               	movlw	0
  1486  00431A  6FF5               	movwf	(_rb4_prev+1)& (0+255),b
  1487  00431C  0E00               	movlw	0
  1488  00431E  6FF4               	movwf	_rb4_prev& (0+255),b
  1489                           
  1490                           ;main.c: 368:     rb5_prev = 0;
  1491  004320  0E00               	movlw	0
  1492  004322  6FF3               	movwf	(_rb5_prev+1)& (0+255),b
  1493  004324  0E00               	movlw	0
  1494  004326  6FF2               	movwf	_rb5_prev& (0+255),b
  1495                           
  1496                           ;main.c: 369:     rb6_prev = 0;
  1497  004328  0E00               	movlw	0
  1498  00432A  6FF1               	movwf	(_rb6_prev+1)& (0+255),b
  1499  00432C  0E00               	movlw	0
  1500  00432E  6FF0               	movwf	_rb6_prev& (0+255),b
  1501                           
  1502                           ;main.c: 370:     rb7_prev = 0;
  1503  004330  0E00               	movlw	0
  1504  004332  6FEF               	movwf	(_rb7_prev+1)& (0+255),b
  1505  004334  0E00               	movlw	0
  1506  004336  6FEE               	movwf	_rb7_prev& (0+255),b
  1507  004338                     
  1508                           ; BSR set to: 0
  1509                           ;main.c: 372:     LATAbits.LA0 = 0;
  1510  004338  9089               	bcf	137,0,c	;volatile
  1511  00433A                     
  1512                           ; BSR set to: 0
  1513                           ;main.c: 373:     TRISAbits.RA0 = 0;
  1514  00433A  9092               	bcf	146,0,c	;volatile
  1515  00433C                     
  1516                           ; BSR set to: 0
  1517                           ;main.c: 375:     LATBbits.LB0 = 0;
  1518  00433C  908A               	bcf	138,0,c	;volatile
  1519  00433E                     
  1520                           ; BSR set to: 0
  1521                           ;main.c: 376:     TRISBbits.RB0 = 0;
  1522  00433E  9093               	bcf	147,0,c	;volatile
  1523  004340                     
  1524                           ; BSR set to: 0
  1525                           ;main.c: 378:     LATCbits.LC0 = 0;
  1526  004340  908B               	bcf	139,0,c	;volatile
  1527  004342                     
  1528                           ; BSR set to: 0
  1529                           ;main.c: 379:     TRISCbits.RC0 = 0;
  1530  004342  9094               	bcf	148,0,c	;volatile
  1531  004344                     
  1532                           ; BSR set to: 0
  1533                           ;main.c: 381:     LATDbits.LD0 = 0;
  1534  004344  908C               	bcf	140,0,c	;volatile
  1535  004346                     
  1536                           ; BSR set to: 0
  1537                           ;main.c: 382:     TRISDbits.RD0 = 0;
  1538  004346  9095               	bcf	149,0,c	;volatile
  1539  004348                     
  1540                           ; BSR set to: 0
  1541  004348  0012               	return		;funcret
  1542  00434A                     __end_of_initialize_variables:
  1543                           	callstack 0
  1544                           
  1545 ;; *************** function _initialize_buffer *****************
  1546 ;; Defined at:
  1547 ;;		line 90 in file "main.c"
  1548 ;; Parameters:    Size  Location     Type
  1549 ;;  buf_type        1    wreg     enum E5081
  1550 ;; Auto vars:     Size  Location     Type
  1551 ;;  buf_type        1    0[BANK1 ] enum E5081
  1552 ;;  i               2    3[BANK1 ] int 
  1553 ;;  i               2    1[BANK1 ] int 
  1554 ;; Return value:  Size  Location     Type
  1555 ;;                  1    wreg      void 
  1556 ;; Registers used:
  1557 ;;		wreg, fsr2l, fsr2h, status,2, status,0
  1558 ;; Tracked objects:
  1559 ;;		On entry : 0/0
  1560 ;;		On exit  : 0/0
  1561 ;;		Unchanged: 0/0
  1562 ;; Data sizes:     COMRAM   BANK0   BANK1   BANK2   BANK3   BANK4   BANK5   BANK6   BANK7   BANK8   BANK9  BANK10  BANK1
      +1  BANK12  BANK13  BANK14  BANK15
  1563 ;;      Params:         0       0       0       0       0       0       0       0       0       0       0       0       
      +0       0       0       0       0
  1564 ;;      Locals:         0       0       5       0       0       0       0       0       0       0       0       0       
      +0       0       0       0       0
  1565 ;;      Temps:          0       0       0       0       0       0       0       0       0       0       0       0       
      +0       0       0       0       0
  1566 ;;      Totals:         0       0       5       0       0       0       0       0       0       0       0       0       
      +0       0       0       0       0
  1567 ;;Total ram usage:        5 bytes
  1568 ;; Hardware stack levels used:    1
  1569 ;; Hardware stack levels required when called:   12
  1570 ;; This function calls:
  1571 ;;		Nothing
  1572 ;; This function is called by:
  1573 ;;		_initialize_variables
  1574 ;; This function uses a non-reentrant model
  1575 ;;
  1576                           
  1577                           	psect	text2
  1578  0044DA                     __ptext2:
  1579                           	callstack 0
  1580  0044DA                     _initialize_buffer:
  1581                           	callstack 17
  1582                           
  1583                           ; BSR set to: 0
  1584                           ;incstack = 0
  1585                           ;initialize_buffer@buf_type stored from wreg
  1586  0044DA  0101               	movlb	1	; () banked
  1587  0044DC  6FE3               	movwf	initialize_buffer@buf_type& (0+255),b
  1588  0044DE                     
  1589                           ;main.c: 91:     if(buf_type == INBUF){
  1590  0044DE  0101               	movlb	1	; () banked
  1591  0044E0  05E3               	decf	initialize_buffer@buf_type& (0+255),w,b
  1592  0044E2  A4D8               	btfss	status,2,c
  1593  0044E4  EF76  F022         	goto	u4731
  1594  0044E8  EF78  F022         	goto	u4730
  1595  0044EC                     u4731:
  1596  0044EC  EF9E  F022         	goto	l4106
  1597  0044F0                     u4730:
  1598  0044F0                     
  1599                           ; BSR set to: 1
  1600                           ;main.c: 92:         input.head = 0;
  1601  0044F0  0E00               	movlw	0
  1602  0044F2  6F81               	movwf	(_input+129)& (0+255),b
  1603  0044F4  0E00               	movlw	0
  1604  0044F6  6F80               	movwf	(_input+128)& (0+255),b
  1605                           
  1606                           ;main.c: 93:         input.tail = 0;
  1607  0044F8  0E00               	movlw	0
  1608  0044FA  6F83               	movwf	(_input+131)& (0+255),b
  1609  0044FC  0E00               	movlw	0
  1610  0044FE  6F82               	movwf	(_input+130)& (0+255),b
  1611                           
  1612                           ;main.c: 94:         for(int i = 0; i < 128; i++) {
  1613  004500  0E00               	movlw	0
  1614  004502  6FE5               	movwf	(initialize_buffer@i+1)& (0+255),b
  1615  004504  0E00               	movlw	0
  1616  004506  6FE4               	movwf	initialize_buffer@i& (0+255),b
  1617  004508                     l4100:
  1618                           
  1619                           ; BSR set to: 1
  1620                           ;main.c: 95:             input.buffer[i] = 0;
  1621  004508  0E00               	movlw	low _input
  1622  00450A  25E4               	addwf	initialize_buffer@i& (0+255),w,b
  1623  00450C  6ED9               	movwf	fsr2l,c
  1624  00450E  0E01               	movlw	high _input
  1625  004510  21E5               	addwfc	(initialize_buffer@i+1)& (0+255),w,b
  1626  004512  6EDA               	movwf	fsr2h,c
  1627  004514  0E00               	movlw	0
  1628  004516  6EDF               	movwf	indf2,c
  1629  004518                     
  1630                           ; BSR set to: 1
  1631                           ;main.c: 96:         }
  1632  004518  4BE4               	infsnz	initialize_buffer@i& (0+255),f,b
  1633  00451A  2BE5               	incf	(initialize_buffer@i+1)& (0+255),f,b
  1634  00451C                     
  1635                           ; BSR set to: 1
  1636  00451C  BFE5               	btfsc	(initialize_buffer@i+1)& (0+255),7,b
  1637  00451E  EF9A  F022         	goto	u4741
  1638  004522  51E5               	movf	(initialize_buffer@i+1)& (0+255),w,b
  1639  004524  E109               	bnz	u4740
  1640  004526  0E80               	movlw	128
  1641  004528  5DE4               	subwf	initialize_buffer@i& (0+255),w,b
  1642  00452A  A0D8               	btfss	status,0,c
  1643  00452C  EF9A  F022         	goto	u4741
  1644  004530  EF9C  F022         	goto	u4740
  1645  004534                     u4741:
  1646  004534  EF84  F022         	goto	l4100
  1647  004538                     u4740:
  1648  004538  EFC4  F022         	goto	l151
  1649  00453C                     l4106:
  1650                           
  1651                           ; BSR set to: 1
  1652                           ;main.c: 99:         output.head = 0;
  1653  00453C  0E00               	movlw	0
  1654  00453E  0102               	movlb	2	; () banked
  1655  004540  6F81               	movwf	(_output+129)& (0+255),b
  1656  004542  0E00               	movlw	0
  1657  004544  6F80               	movwf	(_output+128)& (0+255),b
  1658                           
  1659                           ;main.c: 100:         output.tail = 0;
  1660  004546  0E00               	movlw	0
  1661  004548  6F83               	movwf	(_output+131)& (0+255),b
  1662  00454A  0E00               	movlw	0
  1663  00454C  6F82               	movwf	(_output+130)& (0+255),b
  1664                           
  1665                           ;main.c: 101:         for(int i = 0; i < 128; i++) {
  1666  00454E  0E00               	movlw	0
  1667  004550  0101               	movlb	1	; () banked
  1668  004552  6FE7               	movwf	(initialize_buffer@i_952+1)& (0+255),b
  1669  004554  0E00               	movlw	0
  1670  004556  6FE6               	movwf	initialize_buffer@i_952& (0+255),b
  1671  004558                     l4112:
  1672                           
  1673                           ; BSR set to: 1
  1674                           ;main.c: 102:             output.buffer[i] = 0;
  1675  004558  0E00               	movlw	low _output
  1676  00455A  25E6               	addwf	initialize_buffer@i_952& (0+255),w,b
  1677  00455C  6ED9               	movwf	fsr2l,c
  1678  00455E  0E02               	movlw	high _output
  1679  004560  21E7               	addwfc	(initialize_buffer@i_952+1)& (0+255),w,b
  1680  004562  6EDA               	movwf	fsr2h,c
  1681  004564  0E00               	movlw	0
  1682  004566  6EDF               	movwf	indf2,c
  1683  004568                     
  1684                           ; BSR set to: 1
  1685                           ;main.c: 103:         }
  1686  004568  4BE6               	infsnz	initialize_buffer@i_952& (0+255),f,b
  1687  00456A  2BE7               	incf	(initialize_buffer@i_952+1)& (0+255),f,b
  1688  00456C                     
  1689                           ; BSR set to: 1
  1690  00456C  BFE7               	btfsc	(initialize_buffer@i_952+1)& (0+255),7,b
  1691  00456E  EFC2  F022         	goto	u4751
  1692  004572  51E7               	movf	(initialize_buffer@i_952+1)& (0+255),w,b
  1693  004574  E109               	bnz	u4750
  1694  004576  0E80               	movlw	128
  1695  004578  5DE6               	subwf	initialize_buffer@i_952& (0+255),w,b
  1696  00457A  A0D8               	btfss	status,0,c
  1697  00457C  EFC2  F022         	goto	u4751
  1698  004580  EFC4  F022         	goto	u4750
  1699  004584                     u4751:
  1700  004584  EFAC  F022         	goto	l4112
  1701  004588                     u4750:
  1702  004588                     l151:
  1703                           
  1704                           ; BSR set to: 1
  1705  004588  0012               	return		;funcret
  1706  00458A                     __end_of_initialize_buffer:
  1707                           	callstack 0
  1708                           
  1709 ;; *************** function _initialize *****************
  1710 ;; Defined at:
  1711 ;;		line 388 in file "main.c"
  1712 ;; Parameters:    Size  Location     Type
  1713 ;;		None
  1714 ;; Auto vars:     Size  Location     Type
  1715 ;;		None
  1716 ;; Return value:  Size  Location     Type
  1717 ;;                  1    wreg      void 
  1718 ;; Registers used:
  1719 ;;		wreg, status,2
  1720 ;; Tracked objects:
  1721 ;;		On entry : 0/0
  1722 ;;		On exit  : 0/0
  1723 ;;		Unchanged: 0/0
  1724 ;; Data sizes:     COMRAM   BANK0   BANK1   BANK2   BANK3   BANK4   BANK5   BANK6   BANK7   BANK8   BANK9  BANK10  BANK1
      +1  BANK12  BANK13  BANK14  BANK15
  1725 ;;      Params:         0       0       0       0       0       0       0       0       0       0       0       0       
      +0       0       0       0       0
  1726 ;;      Locals:         0       0       0       0       0       0       0       0       0       0       0       0       
      +0       0       0       0       0
  1727 ;;      Temps:          0       0       0       0       0       0       0       0       0       0       0       0       
      +0       0       0       0       0
  1728 ;;      Totals:         0       0       0       0       0       0       0       0       0       0       0       0       
      +0       0       0       0       0
  1729 ;;Total ram usage:        0 bytes
  1730 ;; Hardware stack levels used:    1
  1731 ;; Hardware stack levels required when called:   12
  1732 ;; This function calls:
  1733 ;;		Nothing
  1734 ;; This function is called by:
  1735 ;;		_main
  1736 ;; This function uses a non-reentrant model
  1737 ;;
  1738                           
  1739                           	psect	text3
  1740  0047E4                     __ptext3:
  1741                           	callstack 0
  1742  0047E4                     _initialize:
  1743                           	callstack 18
  1744  0047E4                     
  1745                           ;main.c: 391:     TRISC = 0x00;
  1746  0047E4  0E00               	movlw	0
  1747  0047E6  6E94               	movwf	148,c	;volatile
  1748                           
  1749                           ;main.c: 392:     TXSTA1=0x00;
  1750  0047E8  0E00               	movlw	0
  1751  0047EA  6EAC               	movwf	172,c	;volatile
  1752                           
  1753                           ;main.c: 393:     RCSTA1=0x00;
  1754  0047EC  0E00               	movlw	0
  1755  0047EE  6EAB               	movwf	171,c	;volatile
  1756                           
  1757                           ;main.c: 394:     BAUDCON1 = 0x00;
  1758  0047F0  0E00               	movlw	0
  1759  0047F2  6E7E               	movwf	126,c	;volatile
  1760                           
  1761                           ;main.c: 395:     PIE1 = 0x00;
  1762  0047F4  0E00               	movlw	0
  1763  0047F6  6E9D               	movwf	157,c	;volatile
  1764                           
  1765                           ;main.c: 396:     INTCON = 0x00;
  1766  0047F8  0E00               	movlw	0
  1767  0047FA  6EF2               	movwf	242,c	;volatile
  1768                           
  1769                           ;main.c: 397:     PIR1 = 0x00;
  1770  0047FC  0E00               	movlw	0
  1771  0047FE  6E9E               	movwf	158,c	;volatile
  1772                           
  1773                           ;main.c: 398:     IPR1 = 0x00;
  1774  004800  0E00               	movlw	0
  1775  004802  6E9F               	movwf	159,c	;volatile
  1776                           
  1777                           ;main.c: 399:     ADCON1 = 0x00;
  1778  004804  0E00               	movlw	0
  1779  004806  6EC1               	movwf	193,c	;volatile
  1780  004808                     
  1781                           ;main.c: 402:     TRISCbits.RC7 = 1;
  1782  004808  8E94               	bsf	148,7,c	;volatile
  1783  00480A                     
  1784                           ;main.c: 403:     TRISCbits.RC6 = 0;
  1785  00480A  9C94               	bcf	148,6,c	;volatile
  1786                           
  1787                           ;main.c: 409:     SPBRG1 = 0x56 ;
  1788  00480C  0E56               	movlw	86
  1789  00480E  6EAF               	movwf	175,c	;volatile
  1790                           
  1791                           ;main.c: 410:     SPBRGH1 = 0x00 ;
  1792  004810  0E00               	movlw	0
  1793  004812  6E7F               	movwf	127,c	;volatile
  1794  004814                     
  1795                           ;main.c: 411:     BAUDCON1bits.BRG16 = 1;
  1796  004814  867E               	bsf	126,3,c	;volatile
  1797  004816                     
  1798                           ;main.c: 412:     TXSTA1bits.SYNC = 0;
  1799  004816  98AC               	bcf	172,4,c	;volatile
  1800  004818                     
  1801                           ;main.c: 413:     RCSTA1bits.SPEN = 1;
  1802  004818  8EAB               	bsf	171,7,c	;volatile
  1803  00481A                     
  1804                           ;main.c: 414:  PIE1bits.RC1IE = 1;
  1805  00481A  8A9D               	bsf	157,5,c	;volatile
  1806  00481C                     
  1807                           ;main.c: 415:     RCSTA1bits.RX9 = 0;
  1808  00481C  9CAB               	bcf	171,6,c	;volatile
  1809  00481E                     
  1810                           ;main.c: 416:     RCSTA1bits.CREN = 1;
  1811  00481E  88AB               	bsf	171,4,c	;volatile
  1812  004820                     
  1813                           ;main.c: 417:     TXSTA1bits.TX9 = 0;
  1814  004820  9CAC               	bcf	172,6,c	;volatile
  1815  004822                     
  1816                           ;main.c: 418:     TXSTA1bits.TXEN = 0;
  1817  004822  9AAC               	bcf	172,5,c	;volatile
  1818  004824                     
  1819                           ;main.c: 419:     TXSTA1bits.BRGH = 1;
  1820  004824  84AC               	bsf	172,2,c	;volatile
  1821                           
  1822                           ;main.c: 420:     SPBRG1 = 0x56 ;
  1823  004826  0E56               	movlw	86
  1824  004828  6EAF               	movwf	175,c	;volatile
  1825                           
  1826                           ;main.c: 421:     SPBRGH1 = 0x00 ;
  1827  00482A  0E00               	movlw	0
  1828  00482C  6E7F               	movwf	127,c	;volatile
  1829                           
  1830                           ;main.c: 424:     INTCON = 0;
  1831  00482E  0E00               	movlw	0
  1832  004830  6EF2               	movwf	242,c	;volatile
  1833  004832                     
  1834                           ;main.c: 425:  PIE1bits.TX1IE = 1;
  1835  004832  889D               	bsf	157,4,c	;volatile
  1836                           
  1837                           ;main.c: 426:  PIR1 = 0;
  1838  004834  0E00               	movlw	0
  1839  004836  6E9E               	movwf	158,c	;volatile
  1840                           
  1841                           ;main.c: 432:     TRISH = 0x10;
  1842  004838  0E10               	movlw	16
  1843  00483A  6E99               	movwf	153,c	;volatile
  1844                           
  1845                           ;main.c: 434:     ADCON0 = 0x31;
  1846  00483C  0E31               	movlw	49
  1847  00483E  6EC2               	movwf	194,c	;volatile
  1848                           
  1849                           ;main.c: 435:     ADCON1 = 0x00;
  1850  004840  0E00               	movlw	0
  1851  004842  6EC1               	movwf	193,c	;volatile
  1852                           
  1853                           ;main.c: 436:     ADCON2 = 0xAA;
  1854  004844  0EAA               	movlw	170
  1855  004846  6EC0               	movwf	192,c	;volatile
  1856                           
  1857                           ;main.c: 437:     ADRESH = 0x00;
  1858  004848  0E00               	movlw	0
  1859  00484A  6EC4               	movwf	196,c	;volatile
  1860                           
  1861                           ;main.c: 438:     ADRESL = 0x00;
  1862  00484C  0E00               	movlw	0
  1863  00484E  6EC3               	movwf	195,c	;volatile
  1864  004850                     
  1865                           ;main.c: 441:     PIE1bits.ADIE = 1;
  1866  004850  8C9D               	bsf	157,6,c	;volatile
  1867  004852                     
  1868                           ;main.c: 442:     IPR1bits.ADIP = 1;
  1869  004852  8C9F               	bsf	159,6,c	;volatile
  1870                           
  1871                           ;main.c: 448:     T0CON = 0b10000101;
  1872  004854  0E85               	movlw	133
  1873  004856  6ED5               	movwf	213,c	;volatile
  1874                           
  1875                           ;main.c: 449:     TMR0L = 0xF7;
  1876  004858  0EF7               	movlw	247
  1877  00485A  6ED6               	movwf	214,c	;volatile
  1878                           
  1879                           ;main.c: 450:     TMR0H = 0xC2;
  1880  00485C  0EC2               	movlw	194
  1881  00485E  6ED7               	movwf	215,c	;volatile
  1882  004860                     
  1883                           ;main.c: 452:     INTCONbits.TMR0IE = 0;
  1884  004860  9AF2               	bcf	242,5,c	;volatile
  1885  004862                     
  1886                           ;main.c: 457:     INTCONbits.RBIF = 0;
  1887  004862  90F2               	bcf	242,0,c	;volatile
  1888  004864                     
  1889                           ;main.c: 460:     RCONbits.IPEN = 0;
  1890  004864  9ED0               	bcf	208,7,c	;volatile
  1891  004866                     
  1892                           ;main.c: 461:  INTCONbits.PEIE = 1;
  1893  004866  8CF2               	bsf	242,6,c	;volatile
  1894  004868                     
  1895                           ;main.c: 462:  INTCONbits.GIE = 1;
  1896  004868  8EF2               	bsf	242,7,c	;volatile
  1897  00486A  0012               	return		;funcret
  1898  00486C                     __end_of_initialize:
  1899                           	callstack 0
  1900                           
  1901 ;; *************** function _evaluate_packet *****************
  1902 ;; Defined at:
  1903 ;;		line 237 in file "main.c"
  1904 ;; Parameters:    Size  Location     Type
  1905 ;;		None
  1906 ;; Auto vars:     Size  Location     Type
  1907 ;;  led_number      2   25[BANK1 ] int 
  1908 ;;  open_rbs        2   21[BANK1 ] int 
  1909 ;;  i               2   23[BANK1 ] int 
  1910 ;;  command         4   16[BANK1 ] unsigned char [4]
  1911 ;;  command_type    1   20[BANK1 ] enum E5061
  1912 ;; Return value:  Size  Location     Type
  1913 ;;                  1    wreg      void 
  1914 ;; Registers used:
  1915 ;;		wreg, fsr1l, fsr1h, fsr2l, fsr2h, status,2, status,0, tblptrl, tblptrh, tblptru, cstack
  1916 ;; Tracked objects:
  1917 ;;		On entry : 0/0
  1918 ;;		On exit  : 0/0
  1919 ;;		Unchanged: 0/0
  1920 ;; Data sizes:     COMRAM   BANK0   BANK1   BANK2   BANK3   BANK4   BANK5   BANK6   BANK7   BANK8   BANK9  BANK10  BANK1
      +1  BANK12  BANK13  BANK14  BANK15
  1921 ;;      Params:         0       0       0       0       0       0       0       0       0       0       0       0       
      +0       0       0       0       0
  1922 ;;      Locals:         0       0      11       0       0       0       0       0       0       0       0       0       
      +0       0       0       0       0
  1923 ;;      Temps:          0       0       2       0       0       0       0       0       0       0       0       0       
      +0       0       0       0       0
  1924 ;;      Totals:         0       0      13       0       0       0       0       0       0       0       0       0       
      +0       0       0       0       0
  1925 ;;Total ram usage:       13 bytes
  1926 ;; Hardware stack levels used:    1
  1927 ;; Hardware stack levels required when called:   14
  1928 ;; This function calls:
  1929 ;;		_get_command_type
  1930 ;;		_hex_string_to_int
  1931 ;; This function is called by:
  1932 ;;		_main
  1933 ;; This function uses a non-reentrant model
  1934 ;;
  1935                           
  1936                           	psect	text4
  1937  00268E                     __ptext4:
  1938                           	callstack 0
  1939  00268E                     _evaluate_packet:
  1940                           	callstack 16
  1941  00268E                     
  1942                           ;main.c: 238:     if(!packet_is_proccessing) return;
  1943  00268E  0101               	movlb	1	; () banked
  1944  002690  518E               	movf	_packet_is_proccessing& (0+255),w,b
  1945  002692  118F               	iorwf	(_packet_is_proccessing+1)& (0+255),w,b
  1946  002694  A4D8               	btfss	status,2,c
  1947  002696  EF4F  F013         	goto	u5031
  1948  00269A  EF51  F013         	goto	u5030
  1949  00269E                     u5031:
  1950  00269E  EF53  F013         	goto	l4280
  1951  0026A2                     u5030:
  1952  0026A2  EFEE  F014         	goto	l217
  1953  0026A6                     l4280:
  1954                           
  1955                           ; BSR set to: 1
  1956                           ;main.c: 241:     char command[4];;main.c: 242:     for(int i = 0; i < 3; i++){
  1957  0026A6  0E00               	movlw	0
  1958  0026A8  6FFB               	movwf	(evaluate_packet@i+1)& (0+255),b
  1959  0026AA  0E00               	movlw	0
  1960  0026AC  6FFA               	movwf	evaluate_packet@i& (0+255),b
  1961  0026AE                     l4286:
  1962                           
  1963                           ; BSR set to: 1
  1964                           ;main.c: 243:         command[i] = packet[i];
  1965  0026AE  0E00               	movlw	low _packet
  1966  0026B0  25FA               	addwf	evaluate_packet@i& (0+255),w,b
  1967  0026B2  6ED9               	movwf	fsr2l,c
  1968  0026B4  0E03               	movlw	high _packet
  1969  0026B6  21FB               	addwfc	(evaluate_packet@i+1)& (0+255),w,b
  1970  0026B8  6EDA               	movwf	fsr2h,c
  1971  0026BA  0EF3               	movlw	low evaluate_packet@command
  1972  0026BC  25FA               	addwf	evaluate_packet@i& (0+255),w,b
  1973  0026BE  6EE1               	movwf	fsr1l,c
  1974  0026C0  0E01               	movlw	high evaluate_packet@command
  1975  0026C2  21FB               	addwfc	(evaluate_packet@i+1)& (0+255),w,b
  1976  0026C4  6EE2               	movwf	fsr1h,c
  1977  0026C6  CFDF FFE7          	movff	indf2,indf1
  1978  0026CA                     
  1979                           ; BSR set to: 1
  1980                           ;main.c: 244:     }
  1981  0026CA  4BFA               	infsnz	evaluate_packet@i& (0+255),f,b
  1982  0026CC  2BFB               	incf	(evaluate_packet@i+1)& (0+255),f,b
  1983  0026CE                     
  1984                           ; BSR set to: 1
  1985  0026CE  BFFB               	btfsc	(evaluate_packet@i+1)& (0+255),7,b
  1986  0026D0  EF73  F013         	goto	u5041
  1987  0026D4  51FB               	movf	(evaluate_packet@i+1)& (0+255),w,b
  1988  0026D6  E109               	bnz	u5040
  1989  0026D8  0E03               	movlw	3
  1990  0026DA  5DFA               	subwf	evaluate_packet@i& (0+255),w,b
  1991  0026DC  A0D8               	btfss	status,0,c
  1992  0026DE  EF73  F013         	goto	u5041
  1993  0026E2  EF75  F013         	goto	u5040
  1994  0026E6                     u5041:
  1995  0026E6  EF57  F013         	goto	l4286
  1996  0026EA                     u5040:
  1997  0026EA                     
  1998                           ; BSR set to: 1
  1999                           ;main.c: 245:     command[3] = '\0';
  2000  0026EA  0E00               	movlw	0
  2001  0026EC  6FF6               	movwf	(evaluate_packet@command+3)& (0+255),b
  2002  0026EE                     
  2003                           ; BSR set to: 1
  2004                           ;main.c: 247:     CommandType command_type = get_command_type(command);
  2005  0026EE  0EF3               	movlw	low evaluate_packet@command
  2006  0026F0  6FE8               	movwf	get_command_type@command& (0+255),b
  2007  0026F2  0E01               	movlw	high evaluate_packet@command
  2008  0026F4  6FE9               	movwf	(get_command_type@command+1)& (0+255),b
  2009  0026F6  EC71  F01E         	call	_get_command_type	;wreg free
  2010  0026FA  0101               	movlb	1	; () banked
  2011  0026FC  6FF7               	movwf	evaluate_packet@command_type& (0+255),b
  2012                           
  2013                           ;main.c: 249:     switch(command_type){
  2014  0026FE  EFC0  F014         	goto	l4368
  2015  002702                     l4296:
  2016                           
  2017                           ; BSR set to: 1
  2018                           ;main.c: 251:             TMR0L = 0xF7;
  2019  002702  0EF7               	movlw	247
  2020  002704  6ED6               	movwf	214,c	;volatile
  2021                           
  2022                           ;main.c: 252:             TMR0H = 0xC2;
  2023  002706  0EC2               	movlw	194
  2024  002708  6ED7               	movwf	215,c	;volatile
  2025  00270A                     
  2026                           ; BSR set to: 1
  2027                           ;main.c: 253:             INTCONbits.TMR0IE = 1;
  2028  00270A  8AF2               	bsf	242,5,c	;volatile
  2029                           
  2030                           ;main.c: 254:             operation_mode = ACTIVE;
  2031  00270C  0E01               	movlw	1
  2032  00270E  0100               	movlb	0	; () banked
  2033  002710  6FFE               	movwf	_operation_mode& (0+255),b
  2034  002712                     
  2035                           ; BSR set to: 0
  2036                           ;main.c: 255:             distance = hex_string_to_int(packet, 4);
  2037  002712  0E00               	movlw	low _packet
  2038  002714  0101               	movlb	1	; () banked
  2039  002716  6FE6               	movwf	hex_string_to_int@packet& (0+255),b
  2040  002718  0E03               	movlw	high _packet
  2041  00271A  6FE7               	movwf	(hex_string_to_int@packet+1)& (0+255),b
  2042  00271C  0E00               	movlw	0
  2043  00271E  6FE9               	movwf	(hex_string_to_int@size+1)& (0+255),b
  2044  002720  0E04               	movlw	4
  2045  002722  6FE8               	movwf	hex_string_to_int@size& (0+255),b
  2046  002724  ECC5  F022         	call	_hex_string_to_int	;wreg free
  2047  002728  C1E6  F0FC         	movff	?_hex_string_to_int,_distance
  2048  00272C  C1E7  F0FD         	movff	?_hex_string_to_int+1,_distance+1
  2049                           
  2050                           ;main.c: 256:             break;
  2051  002730  EFE9  F014         	goto	l4370
  2052  002734                     l4302:
  2053                           
  2054                           ; BSR set to: 1
  2055                           ;main.c: 258:             operation_mode = END;
  2056  002734  0E02               	movlw	2
  2057  002736  0100               	movlb	0	; () banked
  2058  002738  6FFE               	movwf	_operation_mode& (0+255),b
  2059                           
  2060                           ;main.c: 259:             break;
  2061  00273A  EFE9  F014         	goto	l4370
  2062  00273E                     l4304:
  2063                           
  2064                           ; BSR set to: 1
  2065                           ;main.c: 261:             speed = hex_string_to_int(packet, 4);
  2066  00273E  0E00               	movlw	low _packet
  2067  002740  6FE6               	movwf	hex_string_to_int@packet& (0+255),b
  2068  002742  0E03               	movlw	high _packet
  2069  002744  6FE7               	movwf	(hex_string_to_int@packet+1)& (0+255),b
  2070  002746  0E00               	movlw	0
  2071  002748  6FE9               	movwf	(hex_string_to_int@size+1)& (0+255),b
  2072  00274A  0E04               	movlw	4
  2073  00274C  6FE8               	movwf	hex_string_to_int@size& (0+255),b
  2074  00274E  ECC5  F022         	call	_hex_string_to_int	;wreg free
  2075  002752  C1E6  F0FA         	movff	?_hex_string_to_int,_speed
  2076  002756  C1E7  F0FB         	movff	?_hex_string_to_int+1,_speed+1
  2077                           
  2078                           ;main.c: 262:             break;
  2079  00275A  EFE9  F014         	goto	l4370
  2080  00275E                     l4306:
  2081                           
  2082                           ; BSR set to: 1
  2083                           ;main.c: 264:             alt_period = hex_string_to_int(packet, 4);
  2084  00275E  0E00               	movlw	low _packet
  2085  002760  6FE6               	movwf	hex_string_to_int@packet& (0+255),b
  2086  002762  0E03               	movlw	high _packet
  2087  002764  6FE7               	movwf	(hex_string_to_int@packet+1)& (0+255),b
  2088  002766  0E00               	movlw	0
  2089  002768  6FE9               	movwf	(hex_string_to_int@size+1)& (0+255),b
  2090  00276A  0E04               	movlw	4
  2091  00276C  6FE8               	movwf	hex_string_to_int@size& (0+255),b
  2092  00276E  ECC5  F022         	call	_hex_string_to_int	;wreg free
  2093  002772  C1E6  F0F8         	movff	?_hex_string_to_int,_alt_period
  2094  002776  C1E7  F0F9         	movff	?_hex_string_to_int+1,_alt_period+1
  2095                           
  2096                           ;main.c: 265:             break;
  2097  00277A  EFE9  F014         	goto	l4370
  2098  00277E                     l4308:
  2099                           
  2100                           ; BSR set to: 1
  2101                           ;main.c: 268:             int open_rbs = hex_string_to_int(packet, 2);
  2102  00277E  0E00               	movlw	low _packet
  2103  002780  6FE6               	movwf	hex_string_to_int@packet& (0+255),b
  2104  002782  0E03               	movlw	high _packet
  2105  002784  6FE7               	movwf	(hex_string_to_int@packet+1)& (0+255),b
  2106  002786  0E00               	movlw	0
  2107  002788  6FE9               	movwf	(hex_string_to_int@size+1)& (0+255),b
  2108  00278A  0E02               	movlw	2
  2109  00278C  6FE8               	movwf	hex_string_to_int@size& (0+255),b
  2110  00278E  ECC5  F022         	call	_hex_string_to_int	;wreg free
  2111  002792  C1E6  F1F8         	movff	?_hex_string_to_int,evaluate_packet@open_rbs
  2112  002796  C1E7  F1F9         	movff	?_hex_string_to_int+1,evaluate_packet@open_rbs+1
  2113  00279A                     
  2114                           ;main.c: 269:             if(open_rbs == 0) {
  2115  00279A  0101               	movlb	1	; () banked
  2116  00279C  51F8               	movf	evaluate_packet@open_rbs& (0+255),w,b
  2117  00279E  11F9               	iorwf	(evaluate_packet@open_rbs+1)& (0+255),w,b
  2118  0027A0  A4D8               	btfss	status,2,c
  2119  0027A2  EFD5  F013         	goto	u5051
  2120  0027A6  EFD7  F013         	goto	u5050
  2121  0027AA                     u5051:
  2122  0027AA  EFF3  F013         	goto	l4324
  2123  0027AE                     u5050:
  2124  0027AE                     
  2125                           ; BSR set to: 1
  2126                           ;main.c: 270:                 INTCONbits.RBIE = 0;
  2127  0027AE  96F2               	bcf	242,3,c	;volatile
  2128  0027B0                     
  2129                           ; BSR set to: 1
  2130                           ;main.c: 271:                 manualflag = 0;
  2131  0027B0  0E00               	movlw	0
  2132  0027B2  6F87               	movwf	(_manualflag+1)& (0+255),b
  2133  0027B4  0E00               	movlw	0
  2134  0027B6  6F86               	movwf	_manualflag& (0+255),b
  2135  0027B8                     
  2136                           ; BSR set to: 1
  2137                           ;main.c: 272:                 LATAbits.LA0 = 0;
  2138  0027B8  9089               	bcf	137,0,c	;volatile
  2139  0027BA                     
  2140                           ; BSR set to: 1
  2141                           ;main.c: 273:                 LATBbits.LB0 = 0;
  2142  0027BA  908A               	bcf	138,0,c	;volatile
  2143  0027BC                     
  2144                           ; BSR set to: 1
  2145                           ;main.c: 274:                 LATCbits.LC0 = 0;
  2146  0027BC  908B               	bcf	139,0,c	;volatile
  2147  0027BE                     
  2148                           ; BSR set to: 1
  2149                           ;main.c: 275:                 LATDbits.LD0 = 0;
  2150  0027BE  908C               	bcf	140,0,c	;volatile
  2151                           
  2152                           ;main.c: 276:                 rb7mode = 0;
  2153  0027C0  0E00               	movlw	0
  2154  0027C2  6F89               	movwf	(_rb7mode+1)& (0+255),b
  2155  0027C4  0E00               	movlw	0
  2156  0027C6  6F88               	movwf	_rb7mode& (0+255),b
  2157                           
  2158                           ;main.c: 277:                 rb6mode = 0;
  2159  0027C8  0E00               	movlw	0
  2160  0027CA  6F8B               	movwf	(_rb6mode+1)& (0+255),b
  2161  0027CC  0E00               	movlw	0
  2162  0027CE  6F8A               	movwf	_rb6mode& (0+255),b
  2163                           
  2164                           ;main.c: 278:                 rb5mode = 0;
  2165  0027D0  0E00               	movlw	0
  2166  0027D2  6F8D               	movwf	(_rb5mode+1)& (0+255),b
  2167  0027D4  0E00               	movlw	0
  2168  0027D6  6F8C               	movwf	_rb5mode& (0+255),b
  2169                           
  2170                           ;main.c: 279:                 rb4mode = 0;
  2171  0027D8  0E00               	movlw	0
  2172  0027DA  0100               	movlb	0	; () banked
  2173  0027DC  6FE5               	movwf	(_rb4mode+1)& (0+255),b
  2174  0027DE  0E00               	movlw	0
  2175  0027E0  6FE4               	movwf	_rb4mode& (0+255),b
  2176                           
  2177                           ;main.c: 280:             }
  2178  0027E2  EFE9  F014         	goto	l4370
  2179  0027E6                     l4324:
  2180                           
  2181                           ; BSR set to: 1
  2182  0027E6  05F8               	decf	evaluate_packet@open_rbs& (0+255),w,b
  2183  0027E8  11F9               	iorwf	(evaluate_packet@open_rbs+1)& (0+255),w,b
  2184  0027EA  A4D8               	btfss	status,2,c
  2185  0027EC  EFFA  F013         	goto	u5061
  2186  0027F0  EFFC  F013         	goto	u5060
  2187  0027F4                     u5061:
  2188  0027F4  EFE9  F014         	goto	l4370
  2189  0027F8                     u5060:
  2190  0027F8                     
  2191                           ; BSR set to: 1
  2192                           ;main.c: 282:                 INTCONbits.RBIE = 1;
  2193  0027F8  86F2               	bsf	242,3,c	;volatile
  2194  0027FA                     
  2195                           ; BSR set to: 1
  2196                           ;main.c: 283:                 manualflag = 1;
  2197  0027FA  0E00               	movlw	0
  2198  0027FC  6F87               	movwf	(_manualflag+1)& (0+255),b
  2199  0027FE  0E01               	movlw	1
  2200  002800  6F86               	movwf	_manualflag& (0+255),b
  2201  002802  EFE9  F014         	goto	l4370
  2202  002806                     l228:
  2203                           
  2204                           ; BSR set to: 1
  2205                           ;main.c: 285:             break;
  2206  002806  EFE9  F014         	goto	l4370
  2207  00280A                     l4330:
  2208                           
  2209                           ; BSR set to: 1
  2210                           ;main.c: 287:             if (manualflag == 0) break;
  2211  00280A  5186               	movf	_manualflag& (0+255),w,b
  2212  00280C  1187               	iorwf	(_manualflag+1)& (0+255),w,b
  2213  00280E  A4D8               	btfss	status,2,c
  2214  002810  EF0C  F014         	goto	u5071
  2215  002814  EF0E  F014         	goto	u5070
  2216  002818                     u5071:
  2217  002818  EF10  F014         	goto	l4334
  2218  00281C                     u5070:
  2219  00281C  EFE9  F014         	goto	l4370
  2220  002820                     l4334:
  2221                           
  2222                           ; BSR set to: 1
  2223                           ;main.c: 288:             int led_number = hex_string_to_int(packet, 2);
  2224  002820  0E00               	movlw	low _packet
  2225  002822  6FE6               	movwf	hex_string_to_int@packet& (0+255),b
  2226  002824  0E03               	movlw	high _packet
  2227  002826  6FE7               	movwf	(hex_string_to_int@packet+1)& (0+255),b
  2228  002828  0E00               	movlw	0
  2229  00282A  6FE9               	movwf	(hex_string_to_int@size+1)& (0+255),b
  2230  00282C  0E02               	movlw	2
  2231  00282E  6FE8               	movwf	hex_string_to_int@size& (0+255),b
  2232  002830  ECC5  F022         	call	_hex_string_to_int	;wreg free
  2233  002834  C1E6  F1FC         	movff	?_hex_string_to_int,evaluate_packet@led_number
  2234  002838  C1E7  F1FD         	movff	?_hex_string_to_int+1,evaluate_packet@led_number+1
  2235  00283C                     
  2236                           ;main.c: 289:             if(led_number == 0){
  2237  00283C  0101               	movlb	1	; () banked
  2238  00283E  51FC               	movf	evaluate_packet@led_number& (0+255),w,b
  2239  002840  11FD               	iorwf	(evaluate_packet@led_number+1)& (0+255),w,b
  2240  002842  A4D8               	btfss	status,2,c
  2241  002844  EF26  F014         	goto	u5081
  2242  002848  EF28  F014         	goto	u5080
  2243  00284C                     u5081:
  2244  00284C  EF3F  F014         	goto	l4342
  2245  002850                     u5080:
  2246  002850                     
  2247                           ; BSR set to: 1
  2248                           ;main.c: 290:                 LATAbits.LA0 = 0;
  2249  002850  9089               	bcf	137,0,c	;volatile
  2250                           
  2251                           ;main.c: 291:                 LATBbits.LB0 = 0;
  2252  002852  908A               	bcf	138,0,c	;volatile
  2253                           
  2254                           ;main.c: 292:                 LATCbits.LC0 = 0;
  2255  002854  908B               	bcf	139,0,c	;volatile
  2256                           
  2257                           ;main.c: 293:                 LATDbits.LD0 = 0;
  2258  002856  908C               	bcf	140,0,c	;volatile
  2259  002858                     
  2260                           ; BSR set to: 1
  2261                           ;main.c: 294:                 rb7mode = 0;
  2262  002858  0E00               	movlw	0
  2263  00285A  6F89               	movwf	(_rb7mode+1)& (0+255),b
  2264  00285C  0E00               	movlw	0
  2265  00285E  6F88               	movwf	_rb7mode& (0+255),b
  2266                           
  2267                           ;main.c: 295:                 rb6mode = 0;
  2268  002860  0E00               	movlw	0
  2269  002862  6F8B               	movwf	(_rb6mode+1)& (0+255),b
  2270  002864  0E00               	movlw	0
  2271  002866  6F8A               	movwf	_rb6mode& (0+255),b
  2272                           
  2273                           ;main.c: 296:                 rb5mode = 0;
  2274  002868  0E00               	movlw	0
  2275  00286A  6F8D               	movwf	(_rb5mode+1)& (0+255),b
  2276  00286C  0E00               	movlw	0
  2277  00286E  6F8C               	movwf	_rb5mode& (0+255),b
  2278                           
  2279                           ;main.c: 297:                 rb4mode = 0;
  2280  002870  0E00               	movlw	0
  2281  002872  0100               	movlb	0	; () banked
  2282  002874  6FE5               	movwf	(_rb4mode+1)& (0+255),b
  2283  002876  0E00               	movlw	0
  2284  002878  6FE4               	movwf	_rb4mode& (0+255),b
  2285                           
  2286                           ;main.c: 298:             }
  2287  00287A  EFE9  F014         	goto	l4370
  2288  00287E                     l4342:
  2289                           
  2290                           ; BSR set to: 1
  2291  00287E  0E04               	movlw	4
  2292  002880  19FC               	xorwf	evaluate_packet@led_number& (0+255),w,b
  2293  002882  11FD               	iorwf	(evaluate_packet@led_number+1)& (0+255),w,b
  2294  002884  A4D8               	btfss	status,2,c
  2295  002886  EF47  F014         	goto	u5091
  2296  00288A  EF49  F014         	goto	u5090
  2297  00288E                     u5091:
  2298  00288E  EF5F  F014         	goto	l4348
  2299  002892                     u5090:
  2300  002892                     
  2301                           ; BSR set to: 1
  2302                           ;main.c: 300:                 LATAbits.LA0 = 1;
  2303  002892  8089               	bsf	137,0,c	;volatile
  2304  002894                     
  2305                           ; BSR set to: 1
  2306                           ;main.c: 301:                 rb7mode=1;
  2307  002894  0E00               	movlw	0
  2308  002896  6F89               	movwf	(_rb7mode+1)& (0+255),b
  2309  002898  0E01               	movlw	1
  2310  00289A  6F88               	movwf	_rb7mode& (0+255),b
  2311                           
  2312                           ;main.c: 302:                 rb7_prev = PORTBbits.RB7;
  2313  00289C  BE81               	btfsc	129,7,c	;volatile
  2314  00289E  EF53  F014         	goto	u5101
  2315  0028A2  EF57  F014         	goto	u5100
  2316  0028A6                     u5101:
  2317  0028A6  6BF1               	clrf	??_evaluate_packet& (0+255),b
  2318  0028A8  2BF1               	incf	??_evaluate_packet& (0+255),f,b
  2319  0028AA  EF59  F014         	goto	u5108
  2320  0028AE                     u5100:
  2321  0028AE  0101               	movlb	1	; () banked
  2322  0028B0  6BF1               	clrf	??_evaluate_packet& (0+255),b
  2323  0028B2                     u5108:
  2324  0028B2  51F1               	movf	??_evaluate_packet& (0+255),w,b
  2325  0028B4  0100               	movlb	0	; () banked
  2326  0028B6  6FEE               	movwf	_rb7_prev& (0+255),b
  2327  0028B8  6BEF               	clrf	(_rb7_prev+1)& (0+255),b
  2328                           
  2329                           ;main.c: 303:             }
  2330  0028BA  EFE9  F014         	goto	l4370
  2331  0028BE                     l4348:
  2332                           
  2333                           ; BSR set to: 1
  2334  0028BE  0E03               	movlw	3
  2335  0028C0  19FC               	xorwf	evaluate_packet@led_number& (0+255),w,b
  2336  0028C2  11FD               	iorwf	(evaluate_packet@led_number+1)& (0+255),w,b
  2337  0028C4  A4D8               	btfss	status,2,c
  2338  0028C6  EF67  F014         	goto	u5111
  2339  0028CA  EF69  F014         	goto	u5110
  2340  0028CE                     u5111:
  2341  0028CE  EF7F  F014         	goto	l4354
  2342  0028D2                     u5110:
  2343  0028D2                     
  2344                           ; BSR set to: 1
  2345                           ;main.c: 305:                 LATBbits.LB0 = 1;
  2346  0028D2  808A               	bsf	138,0,c	;volatile
  2347  0028D4                     
  2348                           ; BSR set to: 1
  2349                           ;main.c: 306:                 rb6mode=1;
  2350  0028D4  0E00               	movlw	0
  2351  0028D6  6F8B               	movwf	(_rb6mode+1)& (0+255),b
  2352  0028D8  0E01               	movlw	1
  2353  0028DA  6F8A               	movwf	_rb6mode& (0+255),b
  2354                           
  2355                           ;main.c: 307:                 rb6_prev = PORTBbits.RB6;
  2356  0028DC  BC81               	btfsc	129,6,c	;volatile
  2357  0028DE  EF73  F014         	goto	u5121
  2358  0028E2  EF77  F014         	goto	u5120
  2359  0028E6                     u5121:
  2360  0028E6  6BF1               	clrf	??_evaluate_packet& (0+255),b
  2361  0028E8  2BF1               	incf	??_evaluate_packet& (0+255),f,b
  2362  0028EA  EF79  F014         	goto	u5128
  2363  0028EE                     u5120:
  2364  0028EE  0101               	movlb	1	; () banked
  2365  0028F0  6BF1               	clrf	??_evaluate_packet& (0+255),b
  2366  0028F2                     u5128:
  2367  0028F2  51F1               	movf	??_evaluate_packet& (0+255),w,b
  2368  0028F4  0100               	movlb	0	; () banked
  2369  0028F6  6FF0               	movwf	_rb6_prev& (0+255),b
  2370  0028F8  6BF1               	clrf	(_rb6_prev+1)& (0+255),b
  2371                           
  2372                           ;main.c: 308:             }
  2373  0028FA  EFE9  F014         	goto	l4370
  2374  0028FE                     l4354:
  2375                           
  2376                           ; BSR set to: 1
  2377  0028FE  0E02               	movlw	2
  2378  002900  19FC               	xorwf	evaluate_packet@led_number& (0+255),w,b
  2379  002902  11FD               	iorwf	(evaluate_packet@led_number+1)& (0+255),w,b
  2380  002904  A4D8               	btfss	status,2,c
  2381  002906  EF87  F014         	goto	u5131
  2382  00290A  EF89  F014         	goto	u5130
  2383  00290E                     u5131:
  2384  00290E  EF9F  F014         	goto	l4360
  2385  002912                     u5130:
  2386  002912                     
  2387                           ; BSR set to: 1
  2388                           ;main.c: 310:                 LATCbits.LC0 = 1;
  2389  002912  808B               	bsf	139,0,c	;volatile
  2390  002914                     
  2391                           ; BSR set to: 1
  2392                           ;main.c: 311:                 rb5mode=1;
  2393  002914  0E00               	movlw	0
  2394  002916  6F8D               	movwf	(_rb5mode+1)& (0+255),b
  2395  002918  0E01               	movlw	1
  2396  00291A  6F8C               	movwf	_rb5mode& (0+255),b
  2397                           
  2398                           ;main.c: 312:                 rb5_prev = PORTBbits.RB5;
  2399  00291C  BA81               	btfsc	129,5,c	;volatile
  2400  00291E  EF93  F014         	goto	u5141
  2401  002922  EF97  F014         	goto	u5140
  2402  002926                     u5141:
  2403  002926  6BF1               	clrf	??_evaluate_packet& (0+255),b
  2404  002928  2BF1               	incf	??_evaluate_packet& (0+255),f,b
  2405  00292A  EF99  F014         	goto	u5148
  2406  00292E                     u5140:
  2407  00292E  0101               	movlb	1	; () banked
  2408  002930  6BF1               	clrf	??_evaluate_packet& (0+255),b
  2409  002932                     u5148:
  2410  002932  51F1               	movf	??_evaluate_packet& (0+255),w,b
  2411  002934  0100               	movlb	0	; () banked
  2412  002936  6FF2               	movwf	_rb5_prev& (0+255),b
  2413  002938  6BF3               	clrf	(_rb5_prev+1)& (0+255),b
  2414                           
  2415                           ;main.c: 313:             }
  2416  00293A  EFE9  F014         	goto	l4370
  2417  00293E                     l4360:
  2418                           
  2419                           ; BSR set to: 1
  2420  00293E  05FC               	decf	evaluate_packet@led_number& (0+255),w,b
  2421  002940  11FD               	iorwf	(evaluate_packet@led_number+1)& (0+255),w,b
  2422  002942  A4D8               	btfss	status,2,c
  2423  002944  EFA6  F014         	goto	u5151
  2424  002948  EFA8  F014         	goto	u5150
  2425  00294C                     u5151:
  2426  00294C  EF03  F014         	goto	l228
  2427  002950                     u5150:
  2428  002950                     
  2429                           ; BSR set to: 1
  2430                           ;main.c: 315:                 LATDbits.LD0 = 1;
  2431  002950  808C               	bsf	140,0,c	;volatile
  2432  002952                     
  2433                           ; BSR set to: 1
  2434                           ;main.c: 316:                 rb4mode=1;
  2435  002952  0E00               	movlw	0
  2436  002954  0100               	movlb	0	; () banked
  2437  002956  6FE5               	movwf	(_rb4mode+1)& (0+255),b
  2438  002958  0E01               	movlw	1
  2439  00295A  6FE4               	movwf	_rb4mode& (0+255),b
  2440                           
  2441                           ;main.c: 317:                 rb4_prev = PORTBbits.RB4;
  2442  00295C  B881               	btfsc	129,4,c	;volatile
  2443  00295E  EFB3  F014         	goto	u5161
  2444  002962  EFB8  F014         	goto	u5160
  2445  002966                     u5161:
  2446  002966  0101               	movlb	1	; () banked
  2447  002968  6BF1               	clrf	??_evaluate_packet& (0+255),b
  2448  00296A  2BF1               	incf	??_evaluate_packet& (0+255),f,b
  2449  00296C  EFBA  F014         	goto	u5168
  2450  002970                     u5160:
  2451  002970  0101               	movlb	1	; () banked
  2452  002972  6BF1               	clrf	??_evaluate_packet& (0+255),b
  2453  002974                     u5168:
  2454  002974  51F1               	movf	??_evaluate_packet& (0+255),w,b
  2455  002976  0100               	movlb	0	; () banked
  2456  002978  6FF4               	movwf	_rb4_prev& (0+255),b
  2457  00297A  6BF5               	clrf	(_rb4_prev+1)& (0+255),b
  2458                           
  2459                           ;main.c: 318:             }
  2460  00297C  EFE9  F014         	goto	l4370
  2461  002980                     l4368:
  2462                           
  2463                           ; BSR set to: 1
  2464  002980  51F7               	movf	evaluate_packet@command_type& (0+255),w,b
  2465  002982  6FF1               	movwf	??_evaluate_packet& (0+255),b
  2466  002984  6BF2               	clrf	(??_evaluate_packet+1)& (0+255),b
  2467                           
  2468                           ; Switch on 2 bytes has been partitioned into a top level switch of size 1, and 1 sub-sw
      +                          itches
  2469                           ; Switch size 1, requested type "simple"
  2470                           ; Number of cases is 1, Range of values is 0 to 0
  2471                           ; switch strategies available:
  2472                           ; Name         Instructions Cycles
  2473                           ; simple_byte            4     3 (average)
  2474                           ;	Chosen strategy is simple_byte
  2475  002986  51F2               	movf	(??_evaluate_packet+1)& (0+255),w,b
  2476  002988  0A00               	xorlw	0	; case 0
  2477  00298A  B4D8               	btfsc	status,2,c
  2478  00298C  EFCA  F014         	goto	l4758
  2479  002990  EFE9  F014         	goto	l4370
  2480  002994                     l4758:
  2481                           
  2482                           ; BSR set to: 1
  2483                           ; Switch size 1, requested type "simple"
  2484                           ; Number of cases is 7, Range of values is 0 to 6
  2485                           ; switch strategies available:
  2486                           ; Name         Instructions Cycles
  2487                           ; simple_byte           22    12 (average)
  2488                           ;	Chosen strategy is simple_byte
  2489  002994  51F1               	movf	??_evaluate_packet& (0+255),w,b
  2490  002996  0A00               	xorlw	0	; case 0
  2491  002998  B4D8               	btfsc	status,2,c
  2492  00299A  EF81  F013         	goto	l4296
  2493  00299E  0A01               	xorlw	1	; case 1
  2494  0029A0  B4D8               	btfsc	status,2,c
  2495  0029A2  EF9A  F013         	goto	l4302
  2496  0029A6  0A03               	xorlw	3	; case 2
  2497  0029A8  B4D8               	btfsc	status,2,c
  2498  0029AA  EF9F  F013         	goto	l4304
  2499  0029AE  0A01               	xorlw	1	; case 3
  2500  0029B0  B4D8               	btfsc	status,2,c
  2501  0029B2  EFAF  F013         	goto	l4306
  2502  0029B6  0A07               	xorlw	7	; case 4
  2503  0029B8  B4D8               	btfsc	status,2,c
  2504  0029BA  EFBF  F013         	goto	l4308
  2505  0029BE  0A01               	xorlw	1	; case 5
  2506  0029C0  B4D8               	btfsc	status,2,c
  2507  0029C2  EF05  F014         	goto	l4330
  2508  0029C6  0A03               	xorlw	3	; case 6
  2509  0029C8  B4D8               	btfsc	status,2,c
  2510  0029CA  EFE9  F014         	goto	l4370
  2511  0029CE  EFE9  F014         	goto	l4370
  2512  0029D2                     l4370:
  2513                           
  2514                           ;main.c: 328:     packet_is_proccessing = 0;
  2515  0029D2  0E00               	movlw	0
  2516  0029D4  0101               	movlb	1	; () banked
  2517  0029D6  6F8F               	movwf	(_packet_is_proccessing+1)& (0+255),b
  2518  0029D8  0E00               	movlw	0
  2519  0029DA  6F8E               	movwf	_packet_is_proccessing& (0+255),b
  2520  0029DC                     l217:
  2521                           
  2522                           ; BSR set to: 1
  2523  0029DC  0012               	return		;funcret
  2524  0029DE                     __end_of_evaluate_packet:
  2525                           	callstack 0
  2526                           
  2527 ;; *************** function _hex_string_to_int *****************
  2528 ;; Defined at:
  2529 ;;		line 216 in file "main.c"
  2530 ;; Parameters:    Size  Location     Type
  2531 ;;  packet          2    3[BANK1 ] PTR unsigned char 
  2532 ;;		 -> packet(128), 
  2533 ;;  size            2    5[BANK1 ] int 
  2534 ;; Auto vars:     Size  Location     Type
  2535 ;;  i               2   12[BANK1 ] int 
  2536 ;;  result          2   10[BANK1 ] int 
  2537 ;; Return value:  Size  Location     Type
  2538 ;;                  2    3[BANK1 ] int 
  2539 ;; Registers used:
  2540 ;;		wreg, fsr2l, fsr2h, status,2, status,0, cstack
  2541 ;; Tracked objects:
  2542 ;;		On entry : 0/0
  2543 ;;		On exit  : 0/0
  2544 ;;		Unchanged: 0/0
  2545 ;; Data sizes:     COMRAM   BANK0   BANK1   BANK2   BANK3   BANK4   BANK5   BANK6   BANK7   BANK8   BANK9  BANK10  BANK1
      +1  BANK12  BANK13  BANK14  BANK15
  2546 ;;      Params:         0       0       4       0       0       0       0       0       0       0       0       0       
      +0       0       0       0       0
  2547 ;;      Locals:         0       0       4       0       0       0       0       0       0       0       0       0       
      +0       0       0       0       0
  2548 ;;      Temps:          0       0       3       0       0       0       0       0       0       0       0       0       
      +0       0       0       0       0
  2549 ;;      Totals:         0       0      11       0       0       0       0       0       0       0       0       0       
      +0       0       0       0       0
  2550 ;;Total ram usage:       11 bytes
  2551 ;; Hardware stack levels used:    1
  2552 ;; Hardware stack levels required when called:   13
  2553 ;; This function calls:
  2554 ;;		_char_to_int
  2555 ;; This function is called by:
  2556 ;;		_evaluate_packet
  2557 ;; This function uses a non-reentrant model
  2558 ;;
  2559                           
  2560                           	psect	text5
  2561  00458A                     __ptext5:
  2562                           	callstack 0
  2563  00458A                     _hex_string_to_int:
  2564                           	callstack 16
  2565  00458A                     
  2566                           ;main.c: 217:     int result = 0;
  2567  00458A  0E00               	movlw	0
  2568  00458C  0101               	movlb	1	; () banked
  2569  00458E  6FEE               	movwf	(hex_string_to_int@result+1)& (0+255),b
  2570  004590  0E00               	movlw	0
  2571  004592  6FED               	movwf	hex_string_to_int@result& (0+255),b
  2572                           
  2573                           ;main.c: 218:     for(int i = 3; i < 3 + size; i++){
  2574  004594  0E00               	movlw	0
  2575  004596  6FF0               	movwf	(hex_string_to_int@i+1)& (0+255),b
  2576  004598  0E03               	movlw	3
  2577  00459A  6FEF               	movwf	hex_string_to_int@i& (0+255),b
  2578  00459C  EFFB  F022         	goto	l4166
  2579  0045A0                     l4158:
  2580                           
  2581                           ; BSR set to: 1
  2582                           ;main.c: 219:         result += char_to_int(packet[i]);
  2583  0045A0  51EF               	movf	hex_string_to_int@i& (0+255),w,b
  2584  0045A2  25E6               	addwf	hex_string_to_int@packet& (0+255),w,b
  2585  0045A4  6ED9               	movwf	fsr2l,c
  2586  0045A6  51F0               	movf	(hex_string_to_int@i+1)& (0+255),w,b
  2587  0045A8  21E7               	addwfc	(hex_string_to_int@packet+1)& (0+255),w,b
  2588  0045AA  6EDA               	movwf	fsr2h,c
  2589  0045AC  50DF               	movf	indf2,w,c
  2590  0045AE  EC15  F023         	call	_char_to_int
  2591  0045B2  0101               	movlb	1	; () banked
  2592  0045B4  51E3               	movf	?_char_to_int& (0+255),w,b
  2593  0045B6  27ED               	addwf	hex_string_to_int@result& (0+255),f,b
  2594  0045B8  51E4               	movf	(?_char_to_int+1)& (0+255),w,b
  2595  0045BA  23EE               	addwfc	(hex_string_to_int@result+1)& (0+255),f,b
  2596  0045BC                     
  2597                           ; BSR set to: 1
  2598                           ;main.c: 220:         if(i != 3 + size - 1){
  2599  0045BC  0E02               	movlw	2
  2600  0045BE  25E8               	addwf	hex_string_to_int@size& (0+255),w,b
  2601  0045C0  6FEA               	movwf	??_hex_string_to_int& (0+255),b
  2602  0045C2  0E00               	movlw	0
  2603  0045C4  21E9               	addwfc	(hex_string_to_int@size+1)& (0+255),w,b
  2604  0045C6  6FEB               	movwf	(??_hex_string_to_int+1)& (0+255),b
  2605  0045C8  51EF               	movf	hex_string_to_int@i& (0+255),w,b
  2606  0045CA  19EA               	xorwf	??_hex_string_to_int& (0+255),w,b
  2607  0045CC  E109               	bnz	u4800
  2608  0045CE  51F0               	movf	(hex_string_to_int@i+1)& (0+255),w,b
  2609  0045D0  19EB               	xorwf	(??_hex_string_to_int+1)& (0+255),w,b
  2610  0045D2  B4D8               	btfsc	status,2,c
  2611  0045D4  EFEE  F022         	goto	u4801
  2612  0045D8  EFF0  F022         	goto	u4800
  2613  0045DC                     u4801:
  2614  0045DC  EFF9  F022         	goto	l4164
  2615  0045E0                     u4800:
  2616  0045E0                     
  2617                           ; BSR set to: 1
  2618                           ;main.c: 221:             result *= 16;
  2619  0045E0  3BED               	swapf	hex_string_to_int@result& (0+255),f,b
  2620  0045E2  3BEE               	swapf	(hex_string_to_int@result+1)& (0+255),f,b
  2621  0045E4  0EF0               	movlw	240
  2622  0045E6  17EE               	andwf	(hex_string_to_int@result+1)& (0+255),f,b
  2623  0045E8  51ED               	movf	hex_string_to_int@result& (0+255),w,b
  2624  0045EA  0B0F               	andlw	15
  2625  0045EC  13EE               	iorwf	(hex_string_to_int@result+1)& (0+255),f,b
  2626  0045EE  0EF0               	movlw	240
  2627  0045F0  17ED               	andwf	hex_string_to_int@result& (0+255),f,b
  2628  0045F2                     l4164:
  2629                           
  2630                           ; BSR set to: 1
  2631                           ;main.c: 223:     }
  2632  0045F2  4BEF               	infsnz	hex_string_to_int@i& (0+255),f,b
  2633  0045F4  2BF0               	incf	(hex_string_to_int@i+1)& (0+255),f,b
  2634  0045F6                     l4166:
  2635                           
  2636                           ; BSR set to: 1
  2637  0045F6  0E03               	movlw	3
  2638  0045F8  25E8               	addwf	hex_string_to_int@size& (0+255),w,b
  2639  0045FA  6FEA               	movwf	??_hex_string_to_int& (0+255),b
  2640  0045FC  0E00               	movlw	0
  2641  0045FE  21E9               	addwfc	(hex_string_to_int@size+1)& (0+255),w,b
  2642  004600  6FEB               	movwf	(??_hex_string_to_int+1)& (0+255),b
  2643  004602  51EA               	movf	??_hex_string_to_int& (0+255),w,b
  2644  004604  5DEF               	subwf	hex_string_to_int@i& (0+255),w,b
  2645  004606  51F0               	movf	(hex_string_to_int@i+1)& (0+255),w,b
  2646  004608  0A80               	xorlw	128
  2647  00460A  6FEC               	movwf	(??_hex_string_to_int+2)& (0+255),b
  2648  00460C  51EB               	movf	(??_hex_string_to_int+1)& (0+255),w,b
  2649  00460E  0A80               	xorlw	128
  2650  004610  59EC               	subwfb	(??_hex_string_to_int+2)& (0+255),w,b
  2651  004612  A0D8               	btfss	status,0,c
  2652  004614  EF0E  F023         	goto	u4811
  2653  004618  EF10  F023         	goto	u4810
  2654  00461C                     u4811:
  2655  00461C  EFD0  F022         	goto	l4158
  2656  004620                     u4810:
  2657  004620                     
  2658                           ; BSR set to: 1
  2659                           ;main.c: 224:     return result;
  2660  004620  C1ED  F1E6         	movff	hex_string_to_int@result,?_hex_string_to_int
  2661  004624  C1EE  F1E7         	movff	hex_string_to_int@result+1,?_hex_string_to_int+1
  2662  004628                     
  2663                           ; BSR set to: 1
  2664  004628  0012               	return		;funcret
  2665  00462A                     __end_of_hex_string_to_int:
  2666                           	callstack 0
  2667                           
  2668 ;; *************** function _char_to_int *****************
  2669 ;; Defined at:
  2670 ;;		line 200 in file "main.c"
  2671 ;; Parameters:    Size  Location     Type
  2672 ;;  c               1    wreg     unsigned char 
  2673 ;; Auto vars:     Size  Location     Type
  2674 ;;  c               1    2[BANK1 ] unsigned char 
  2675 ;; Return value:  Size  Location     Type
  2676 ;;                  2    0[BANK1 ] int 
  2677 ;; Registers used:
  2678 ;;		wreg, status,2, status,0
  2679 ;; Tracked objects:
  2680 ;;		On entry : 0/0
  2681 ;;		On exit  : 0/0
  2682 ;;		Unchanged: 0/0
  2683 ;; Data sizes:     COMRAM   BANK0   BANK1   BANK2   BANK3   BANK4   BANK5   BANK6   BANK7   BANK8   BANK9  BANK10  BANK1
      +1  BANK12  BANK13  BANK14  BANK15
  2684 ;;      Params:         0       0       2       0       0       0       0       0       0       0       0       0       
      +0       0       0       0       0
  2685 ;;      Locals:         0       0       1       0       0       0       0       0       0       0       0       0       
      +0       0       0       0       0
  2686 ;;      Temps:          0       0       0       0       0       0       0       0       0       0       0       0       
      +0       0       0       0       0
  2687 ;;      Totals:         0       0       3       0       0       0       0       0       0       0       0       0       
      +0       0       0       0       0
  2688 ;;Total ram usage:        3 bytes
  2689 ;; Hardware stack levels used:    1
  2690 ;; Hardware stack levels required when called:   12
  2691 ;; This function calls:
  2692 ;;		Nothing
  2693 ;; This function is called by:
  2694 ;;		_hex_string_to_int
  2695 ;; This function uses a non-reentrant model
  2696 ;;
  2697                           
  2698                           	psect	text6
  2699  00462A                     __ptext6:
  2700                           	callstack 0
  2701  00462A                     _char_to_int:
  2702                           	callstack 16
  2703                           
  2704                           ; BSR set to: 1
  2705                           ;incstack = 0
  2706                           ;char_to_int@c stored from wreg
  2707  00462A  0101               	movlb	1	; () banked
  2708  00462C  6FE5               	movwf	char_to_int@c& (0+255),b
  2709  00462E                     
  2710                           ;main.c: 201:     if('0' <= c && c <= '9'){
  2711  00462E  0E2F               	movlw	47
  2712  004630  0101               	movlb	1	; () banked
  2713  004632  65E5               	cpfsgt	char_to_int@c& (0+255),b
  2714  004634  EF1E  F023         	goto	u4651
  2715  004638  EF20  F023         	goto	u4650
  2716  00463C                     u4651:
  2717  00463C  EF30  F023         	goto	l4056
  2718  004640                     u4650:
  2719  004640                     
  2720                           ; BSR set to: 1
  2721  004640  0E3A               	movlw	58
  2722  004642  61E5               	cpfslt	char_to_int@c& (0+255),b
  2723  004644  EF26  F023         	goto	u4661
  2724  004648  EF28  F023         	goto	u4660
  2725  00464C                     u4661:
  2726  00464C  EF30  F023         	goto	l4056
  2727  004650                     u4660:
  2728  004650                     
  2729                           ; BSR set to: 1
  2730                           ;main.c: 202:         return c - '0';
  2731  004650  0ED0               	movlw	208
  2732  004652  25E5               	addwf	char_to_int@c& (0+255),w,b
  2733  004654  6FE3               	movwf	?_char_to_int& (0+255),b
  2734  004656  6BE4               	clrf	(?_char_to_int+1)& (0+255),b
  2735  004658  0EFF               	movlw	255
  2736  00465A  23E4               	addwfc	(?_char_to_int+1)& (0+255),f,b
  2737  00465C  EF62  F023         	goto	l194
  2738  004660                     l4056:
  2739                           
  2740                           ; BSR set to: 1
  2741                           ;main.c: 204:     if('A' <= c && c <= 'F'){
  2742  004660  0E40               	movlw	64
  2743  004662  65E5               	cpfsgt	char_to_int@c& (0+255),b
  2744  004664  EF36  F023         	goto	u4671
  2745  004668  EF38  F023         	goto	u4670
  2746  00466C                     u4671:
  2747  00466C  EF48  F023         	goto	l4064
  2748  004670                     u4670:
  2749  004670                     
  2750                           ; BSR set to: 1
  2751  004670  0E47               	movlw	71
  2752  004672  61E5               	cpfslt	char_to_int@c& (0+255),b
  2753  004674  EF3E  F023         	goto	u4681
  2754  004678  EF40  F023         	goto	u4680
  2755  00467C                     u4681:
  2756  00467C  EF48  F023         	goto	l4064
  2757  004680                     u4680:
  2758  004680                     
  2759                           ; BSR set to: 1
  2760                           ;main.c: 205:         return c - 'A' + 10;
  2761  004680  0EC9               	movlw	201
  2762  004682  25E5               	addwf	char_to_int@c& (0+255),w,b
  2763  004684  6FE3               	movwf	?_char_to_int& (0+255),b
  2764  004686  6BE4               	clrf	(?_char_to_int+1)& (0+255),b
  2765  004688  0EFF               	movlw	255
  2766  00468A  23E4               	addwfc	(?_char_to_int+1)& (0+255),f,b
  2767  00468C  EF62  F023         	goto	l194
  2768  004690                     l4064:
  2769                           
  2770                           ; BSR set to: 1
  2771                           ;main.c: 207:     if('a' <= c && c <= 'f'){
  2772  004690  0E60               	movlw	96
  2773  004692  65E5               	cpfsgt	char_to_int@c& (0+255),b
  2774  004694  EF4E  F023         	goto	u4691
  2775  004698  EF50  F023         	goto	u4690
  2776  00469C                     u4691:
  2777  00469C  EF60  F023         	goto	l197
  2778  0046A0                     u4690:
  2779  0046A0                     
  2780                           ; BSR set to: 1
  2781  0046A0  0E67               	movlw	103
  2782  0046A2  61E5               	cpfslt	char_to_int@c& (0+255),b
  2783  0046A4  EF56  F023         	goto	u4701
  2784  0046A8  EF58  F023         	goto	u4700
  2785  0046AC                     u4701:
  2786  0046AC  EF60  F023         	goto	l197
  2787  0046B0                     u4700:
  2788  0046B0                     
  2789                           ; BSR set to: 1
  2790                           ;main.c: 208:         return c - 'a' + 10;
  2791  0046B0  0EA9               	movlw	169
  2792  0046B2  25E5               	addwf	char_to_int@c& (0+255),w,b
  2793  0046B4  6FE3               	movwf	?_char_to_int& (0+255),b
  2794  0046B6  6BE4               	clrf	(?_char_to_int+1)& (0+255),b
  2795  0046B8  0EFF               	movlw	255
  2796  0046BA  23E4               	addwfc	(?_char_to_int+1)& (0+255),f,b
  2797  0046BC  EF62  F023         	goto	l194
  2798  0046C0                     l197:
  2799                           
  2800                           ; BSR set to: 1
  2801                           ;main.c: 213:     return -1;
  2802  0046C0  69E3               	setf	?_char_to_int& (0+255),b
  2803  0046C2  69E4               	setf	(?_char_to_int+1)& (0+255),b
  2804  0046C4                     l194:
  2805                           
  2806                           ; BSR set to: 1
  2807  0046C4  0012               	return		;funcret
  2808  0046C6                     __end_of_char_to_int:
  2809                           	callstack 0
  2810                           
  2811 ;; *************** function _get_command_type *****************
  2812 ;; Defined at:
  2813 ;;		line 227 in file "main.c"
  2814 ;; Parameters:    Size  Location     Type
  2815 ;;  command         2    5[BANK1 ] PTR unsigned char 
  2816 ;;		 -> evaluate_packet@command(4), 
  2817 ;; Auto vars:     Size  Location     Type
  2818 ;;		None
  2819 ;; Return value:  Size  Location     Type
  2820 ;;                  1    wreg      enum E5061
  2821 ;; Registers used:
  2822 ;;		wreg, fsr2l, fsr2h, status,2, status,0, tblptrl, tblptrh, tblptru, cstack
  2823 ;; Tracked objects:
  2824 ;;		On entry : 0/0
  2825 ;;		On exit  : 0/0
  2826 ;;		Unchanged: 0/0
  2827 ;; Data sizes:     COMRAM   BANK0   BANK1   BANK2   BANK3   BANK4   BANK5   BANK6   BANK7   BANK8   BANK9  BANK10  BANK1
      +1  BANK12  BANK13  BANK14  BANK15
  2828 ;;      Params:         0       0       2       0       0       0       0       0       0       0       0       0       
      +0       0       0       0       0
  2829 ;;      Locals:         0       0       0       0       0       0       0       0       0       0       0       0       
      +0       0       0       0       0
  2830 ;;      Temps:          0       0       0       0       0       0       0       0       0       0       0       0       
      +0       0       0       0       0
  2831 ;;      Totals:         0       0       2       0       0       0       0       0       0       0       0       0       
      +0       0       0       0       0
  2832 ;;Total ram usage:        2 bytes
  2833 ;; Hardware stack levels used:    1
  2834 ;; Hardware stack levels required when called:   13
  2835 ;; This function calls:
  2836 ;;		_strcmp
  2837 ;; This function is called by:
  2838 ;;		_evaluate_packet
  2839 ;; This function uses a non-reentrant model
  2840 ;;
  2841                           
  2842                           	psect	text7
  2843  003CE2                     __ptext7:
  2844                           	callstack 0
  2845  003CE2                     _get_command_type:
  2846                           	callstack 16
  2847  003CE2                     
  2848                           ;main.c: 228:     if (strcmp(command, "GOO") == 0) return CMD_GOO;
  2849  003CE2  C1E8  F1E3         	movff	get_command_type@command,strcmp@l
  2850  003CE6  C1E9  F1E4         	movff	get_command_type@command+1,strcmp@l+1
  2851  003CEA  0E32               	movlw	low STR_1
  2852  003CEC  0101               	movlb	1	; () banked
  2853  003CEE  6FE5               	movwf	strcmp@r& (0+255),b
  2854  003CF0  0E10               	movlw	high STR_1
  2855  003CF2  6FE6               	movwf	(strcmp@r+1)& (0+255),b
  2856  003CF4  EC76  F024         	call	_strcmp	;wreg free
  2857  003CF8  0101               	movlb	1	; () banked
  2858  003CFA  51E3               	movf	?_strcmp& (0+255),w,b
  2859  003CFC  11E4               	iorwf	(?_strcmp+1)& (0+255),w,b
  2860  003CFE  A4D8               	btfss	status,2,c
  2861  003D00  EF84  F01E         	goto	u4821
  2862  003D04  EF86  F01E         	goto	u4820
  2863  003D08                     u4821:
  2864  003D08  EF89  F01E         	goto	l4174
  2865  003D0C                     u4820:
  2866  003D0C                     
  2867                           ; BSR set to: 1
  2868  003D0C  0E00               	movlw	0
  2869  003D0E  EFFD  F01E         	goto	l208
  2870  003D12                     l4174:
  2871                           
  2872                           ; BSR set to: 1
  2873                           ;main.c: 229:     if (strcmp(command, "END") == 0) return CMD_END;
  2874  003D12  C1E8  F1E3         	movff	get_command_type@command,strcmp@l
  2875  003D16  C1E9  F1E4         	movff	get_command_type@command+1,strcmp@l+1
  2876  003D1A  0E26               	movlw	low STR_2
  2877  003D1C  6FE5               	movwf	strcmp@r& (0+255),b
  2878  003D1E  0E10               	movlw	high STR_2
  2879  003D20  6FE6               	movwf	(strcmp@r+1)& (0+255),b
  2880  003D22  EC76  F024         	call	_strcmp	;wreg free
  2881  003D26  0101               	movlb	1	; () banked
  2882  003D28  51E3               	movf	?_strcmp& (0+255),w,b
  2883  003D2A  11E4               	iorwf	(?_strcmp+1)& (0+255),w,b
  2884  003D2C  A4D8               	btfss	status,2,c
  2885  003D2E  EF9B  F01E         	goto	u4831
  2886  003D32  EF9D  F01E         	goto	u4830
  2887  003D36                     u4831:
  2888  003D36  EFA0  F01E         	goto	l4180
  2889  003D3A                     u4830:
  2890  003D3A                     
  2891                           ; BSR set to: 1
  2892  003D3A  0E01               	movlw	1
  2893  003D3C  EFFD  F01E         	goto	l208
  2894  003D40                     l4180:
  2895                           
  2896                           ; BSR set to: 1
  2897                           ;main.c: 230:     if (strcmp(command, "SPD") == 0) return CMD_SPD;
  2898  003D40  C1E8  F1E3         	movff	get_command_type@command,strcmp@l
  2899  003D44  C1E9  F1E4         	movff	get_command_type@command+1,strcmp@l+1
  2900  003D48  0E2A               	movlw	low STR_3
  2901  003D4A  6FE5               	movwf	strcmp@r& (0+255),b
  2902  003D4C  0E10               	movlw	high STR_3
  2903  003D4E  6FE6               	movwf	(strcmp@r+1)& (0+255),b
  2904  003D50  EC76  F024         	call	_strcmp	;wreg free
  2905  003D54  0101               	movlb	1	; () banked
  2906  003D56  51E3               	movf	?_strcmp& (0+255),w,b
  2907  003D58  11E4               	iorwf	(?_strcmp+1)& (0+255),w,b
  2908  003D5A  A4D8               	btfss	status,2,c
  2909  003D5C  EFB2  F01E         	goto	u4841
  2910  003D60  EFB4  F01E         	goto	u4840
  2911  003D64                     u4841:
  2912  003D64  EFB7  F01E         	goto	l4186
  2913  003D68                     u4840:
  2914  003D68                     
  2915                           ; BSR set to: 1
  2916  003D68  0E02               	movlw	2
  2917  003D6A  EFFD  F01E         	goto	l208
  2918  003D6E                     l4186:
  2919                           
  2920                           ; BSR set to: 1
  2921                           ;main.c: 231:     if (strcmp(command, "ALT") == 0) return CMD_ALT;
  2922  003D6E  C1E8  F1E3         	movff	get_command_type@command,strcmp@l
  2923  003D72  C1E9  F1E4         	movff	get_command_type@command+1,strcmp@l+1
  2924  003D76  0E36               	movlw	low STR_4
  2925  003D78  6FE5               	movwf	strcmp@r& (0+255),b
  2926  003D7A  0E10               	movlw	high STR_4
  2927  003D7C  6FE6               	movwf	(strcmp@r+1)& (0+255),b
  2928  003D7E  EC76  F024         	call	_strcmp	;wreg free
  2929  003D82  0101               	movlb	1	; () banked
  2930  003D84  51E3               	movf	?_strcmp& (0+255),w,b
  2931  003D86  11E4               	iorwf	(?_strcmp+1)& (0+255),w,b
  2932  003D88  A4D8               	btfss	status,2,c
  2933  003D8A  EFC9  F01E         	goto	u4851
  2934  003D8E  EFCB  F01E         	goto	u4850
  2935  003D92                     u4851:
  2936  003D92  EFCE  F01E         	goto	l4192
  2937  003D96                     u4850:
  2938  003D96                     
  2939                           ; BSR set to: 1
  2940  003D96  0E03               	movlw	3
  2941  003D98  EFFD  F01E         	goto	l208
  2942  003D9C                     l4192:
  2943                           
  2944                           ; BSR set to: 1
  2945                           ;main.c: 232:     if (strcmp(command, "MAN") == 0) return CMD_MAN;
  2946  003D9C  C1E8  F1E3         	movff	get_command_type@command,strcmp@l
  2947  003DA0  C1E9  F1E4         	movff	get_command_type@command+1,strcmp@l+1
  2948  003DA4  0E2E               	movlw	low STR_5
  2949  003DA6  6FE5               	movwf	strcmp@r& (0+255),b
  2950  003DA8  0E10               	movlw	high STR_5
  2951  003DAA  6FE6               	movwf	(strcmp@r+1)& (0+255),b
  2952  003DAC  EC76  F024         	call	_strcmp	;wreg free
  2953  003DB0  0101               	movlb	1	; () banked
  2954  003DB2  51E3               	movf	?_strcmp& (0+255),w,b
  2955  003DB4  11E4               	iorwf	(?_strcmp+1)& (0+255),w,b
  2956  003DB6  A4D8               	btfss	status,2,c
  2957  003DB8  EFE0  F01E         	goto	u4861
  2958  003DBC  EFE2  F01E         	goto	u4860
  2959  003DC0                     u4861:
  2960  003DC0  EFE5  F01E         	goto	l4198
  2961  003DC4                     u4860:
  2962  003DC4                     
  2963                           ; BSR set to: 1
  2964  003DC4  0E04               	movlw	4
  2965  003DC6  EFFD  F01E         	goto	l208
  2966  003DCA                     l4198:
  2967                           
  2968                           ; BSR set to: 1
  2969                           ;main.c: 233:     if (strcmp(command, "LED") == 0) return CMD_LED;
  2970  003DCA  C1E8  F1E3         	movff	get_command_type@command,strcmp@l
  2971  003DCE  C1E9  F1E4         	movff	get_command_type@command+1,strcmp@l+1
  2972  003DD2  0E22               	movlw	low STR_6
  2973  003DD4  6FE5               	movwf	strcmp@r& (0+255),b
  2974  003DD6  0E10               	movlw	high STR_6
  2975  003DD8  6FE6               	movwf	(strcmp@r+1)& (0+255),b
  2976  003DDA  EC76  F024         	call	_strcmp	;wreg free
  2977  003DDE  0101               	movlb	1	; () banked
  2978  003DE0  51E3               	movf	?_strcmp& (0+255),w,b
  2979  003DE2  11E4               	iorwf	(?_strcmp+1)& (0+255),w,b
  2980  003DE4  A4D8               	btfss	status,2,c
  2981  003DE6  EFF7  F01E         	goto	u4871
  2982  003DEA  EFF9  F01E         	goto	u4870
  2983  003DEE                     u4871:
  2984  003DEE  EFFC  F01E         	goto	l4204
  2985  003DF2                     u4870:
  2986  003DF2                     
  2987                           ; BSR set to: 1
  2988  003DF2  0E05               	movlw	5
  2989  003DF4  EFFD  F01E         	goto	l208
  2990  003DF8                     l4204:
  2991                           
  2992                           ; BSR set to: 1
  2993                           ;main.c: 234:     return CMD_UNKNOWN;
  2994  003DF8  0E06               	movlw	6
  2995  003DFA                     l208:
  2996                           
  2997                           ; BSR set to: 1
  2998  003DFA  0012               	return		;funcret
  2999  003DFC                     __end_of_get_command_type:
  3000                           	callstack 0
  3001                           
  3002 ;; *************** function _strcmp *****************
  3003 ;; Defined at:
  3004 ;;		line 3 in file "/opt/microchip/xc8/v2.30/pic/sources/c99/common/strcmp.c"
  3005 ;; Parameters:    Size  Location     Type
  3006 ;;  l               2    0[BANK1 ] PTR const unsigned char 
  3007 ;;		 -> evaluate_packet@command(4), 
  3008 ;;  r               2    2[BANK1 ] PTR const unsigned char 
  3009 ;;		 -> STR_6(4), STR_5(4), STR_4(4), STR_3(4), 
  3010 ;;		 -> STR_2(4), STR_1(4), 
  3011 ;; Auto vars:     Size  Location     Type
  3012 ;;		None
  3013 ;; Return value:  Size  Location     Type
  3014 ;;                  2    0[BANK1 ] int 
  3015 ;; Registers used:
  3016 ;;		wreg, fsr2l, fsr2h, status,2, status,0, tblptrl, tblptrh, tblptru
  3017 ;; Tracked objects:
  3018 ;;		On entry : 0/0
  3019 ;;		On exit  : 0/0
  3020 ;;		Unchanged: 0/0
  3021 ;; Data sizes:     COMRAM   BANK0   BANK1   BANK2   BANK3   BANK4   BANK5   BANK6   BANK7   BANK8   BANK9  BANK10  BANK1
      +1  BANK12  BANK13  BANK14  BANK15
  3022 ;;      Params:         0       0       4       0       0       0       0       0       0       0       0       0       
      +0       0       0       0       0
  3023 ;;      Locals:         0       0       0       0       0       0       0       0       0       0       0       0       
      +0       0       0       0       0
  3024 ;;      Temps:          0       0       1       0       0       0       0       0       0       0       0       0       
      +0       0       0       0       0
  3025 ;;      Totals:         0       0       5       0       0       0       0       0       0       0       0       0       
      +0       0       0       0       0
  3026 ;;Total ram usage:        5 bytes
  3027 ;; Hardware stack levels used:    1
  3028 ;; Hardware stack levels required when called:   12
  3029 ;; This function calls:
  3030 ;;		Nothing
  3031 ;; This function is called by:
  3032 ;;		_get_command_type
  3033 ;; This function uses a non-reentrant model
  3034 ;;
  3035                           
  3036                           	psect	text8
  3037  0048EC                     __ptext8:
  3038                           	callstack 0
  3039  0048EC                     _strcmp:
  3040                           	callstack 16
  3041  0048EC  EF7C  F024         	goto	l4078
  3042  0048F0                     l4076:
  3043                           
  3044                           ; BSR set to: 1
  3045  0048F0  4BE3               	infsnz	strcmp@l& (0+255),f,b
  3046  0048F2  2BE4               	incf	(strcmp@l+1)& (0+255),f,b
  3047  0048F4  4BE5               	infsnz	strcmp@r& (0+255),f,b
  3048  0048F6  2BE6               	incf	(strcmp@r+1)& (0+255),f,b
  3049  0048F8                     l4078:
  3050  0048F8  C1E3  FFD9         	movff	strcmp@l,fsr2l
  3051  0048FC  C1E4  FFDA         	movff	strcmp@l+1,fsr2h
  3052  004900  50DF               	movf	indf2,w,c
  3053  004902  0101               	movlb	1	; () banked
  3054  004904  6FE7               	movwf	??_strcmp& (0+255),b
  3055  004906  C1E5  FFF6         	movff	strcmp@r,tblptrl
  3056  00490A  C1E6  FFF7         	movff	strcmp@r+1,tblptrh
  3057  00490E                     	if	0	;tblptru may be non-zero
  3058  00490E                     	endif
  3059  00490E                     	if	1	;Program memory is > 0xFFFF, there are 3 active tblptr bytes
  3060  00490E  0E00               	movlw	low (__mediumconst shr (0+16))
  3061  004910  6EF8               	movwf	tblptru,c
  3062  004912                     	endif
  3063  004912  0008               	tblrd		*
  3064  004914  50F5               	movf	tablat,w,c
  3065  004916  19E7               	xorwf	??_strcmp& (0+255),w,b
  3066  004918  A4D8               	btfss	status,2,c
  3067  00491A  EF91  F024         	goto	u4711
  3068  00491E  EF93  F024         	goto	u4710
  3069  004922                     u4711:
  3070  004922  EF9F  F024         	goto	l4082
  3071  004926                     u4710:
  3072  004926                     
  3073                           ; BSR set to: 1
  3074  004926  C1E3  FFD9         	movff	strcmp@l,fsr2l
  3075  00492A  C1E4  FFDA         	movff	strcmp@l+1,fsr2h
  3076  00492E  50DF               	movf	indf2,w,c
  3077  004930  A4D8               	btfss	status,2,c
  3078  004932  EF9D  F024         	goto	u4721
  3079  004936  EF9F  F024         	goto	u4720
  3080  00493A                     u4721:
  3081  00493A  EF78  F024         	goto	l4076
  3082  00493E                     u4720:
  3083  00493E                     l4082:
  3084                           
  3085                           ; BSR set to: 1
  3086  00493E  C1E3  FFD9         	movff	strcmp@l,fsr2l
  3087  004942  C1E4  FFDA         	movff	strcmp@l+1,fsr2h
  3088  004946  50DF               	movf	indf2,w,c
  3089  004948  6FE7               	movwf	??_strcmp& (0+255),b
  3090  00494A  C1E5  FFF6         	movff	strcmp@r,tblptrl
  3091  00494E  C1E6  FFF7         	movff	strcmp@r+1,tblptrh
  3092  004952                     	if	0	;tblptru may be non-zero
  3093  004952                     	endif
  3094  004952                     	if	1	;Program memory is > 0xFFFF, there are 3 active tblptr bytes
  3095  004952  0E00               	movlw	low (__mediumconst shr (0+16))
  3096  004954  6EF8               	movwf	tblptru,c
  3097  004956                     	endif
  3098  004956  0008               	tblrd		*
  3099  004958  50F5               	movf	tablat,w,c
  3100  00495A  5DE7               	subwf	??_strcmp& (0+255),w,b
  3101  00495C  6FE3               	movwf	?_strcmp& (0+255),b
  3102  00495E  6BE4               	clrf	(?_strcmp+1)& (0+255),b
  3103  004960  A0D8               	btfss	status,0,c
  3104  004962  07E4               	decf	(?_strcmp+1)& (0+255),f,b
  3105  004964                     
  3106                           ; BSR set to: 1
  3107  004964  0012               	return		;funcret
  3108  004966                     __end_of_strcmp:
  3109                           	callstack 0
  3110                           
  3111 ;; *************** function _create_packet *****************
  3112 ;; Defined at:
  3113 ;;		line 165 in file "main.c"
  3114 ;; Parameters:    Size  Location     Type
  3115 ;;		None
  3116 ;; Auto vars:     Size  Location     Type
  3117 ;;  c               1    6[BANK1 ] unsigned char 
  3118 ;;  c               1    5[BANK1 ] unsigned char 
  3119 ;; Return value:  Size  Location     Type
  3120 ;;                  1    wreg      void 
  3121 ;; Registers used:
  3122 ;;		wreg, fsr2l, fsr2h, status,2, status,0, cstack
  3123 ;; Tracked objects:
  3124 ;;		On entry : 0/0
  3125 ;;		On exit  : 0/0
  3126 ;;		Unchanged: 0/0
  3127 ;; Data sizes:     COMRAM   BANK0   BANK1   BANK2   BANK3   BANK4   BANK5   BANK6   BANK7   BANK8   BANK9  BANK10  BANK1
      +1  BANK12  BANK13  BANK14  BANK15
  3128 ;;      Params:         0       0       0       0       0       0       0       0       0       0       0       0       
      +0       0       0       0       0
  3129 ;;      Locals:         0       0       2       0       0       0       0       0       0       0       0       0       
      +0       0       0       0       0
  3130 ;;      Temps:          0       0       0       0       0       0       0       0       0       0       0       0       
      +0       0       0       0       0
  3131 ;;      Totals:         0       0       2       0       0       0       0       0       0       0       0       0       
      +0       0       0       0       0
  3132 ;;Total ram usage:        2 bytes
  3133 ;; Hardware stack levels used:    1
  3134 ;; Hardware stack levels required when called:   14
  3135 ;; This function calls:
  3136 ;;		_buffer_is_empty
  3137 ;;		_buffer_pop
  3138 ;;		_clear_packet
  3139 ;; This function is called by:
  3140 ;;		_main
  3141 ;; This function uses a non-reentrant model
  3142 ;;
  3143                           
  3144                           	psect	text9
  3145  003EF2                     __ptext9:
  3146                           	callstack 0
  3147  003EF2                     _create_packet:
  3148                           	callstack 16
  3149  003EF2                     
  3150                           ;main.c: 166:     if(!buffer_is_empty(INBUF)){
  3151  003EF2  0E01               	movlw	1
  3152  003EF4  EC19  F025         	call	_buffer_is_empty
  3153  003EF8  0101               	movlb	1	; () banked
  3154  003EFA  51E3               	movf	?_buffer_is_empty& (0+255),w,b
  3155  003EFC  11E4               	iorwf	(?_buffer_is_empty+1)& (0+255),w,b
  3156  003EFE  A4D8               	btfss	status,2,c
  3157  003F00  EF84  F01F         	goto	u4951
  3158  003F04  EF86  F01F         	goto	u4950
  3159  003F08                     u4951:
  3160  003F08  EFF2  F01F         	goto	l190
  3161  003F0C                     u4950:
  3162  003F0C                     
  3163                           ; BSR set to: 1
  3164                           ;main.c: 167:         if(pkt_state == PKT_WAIT_HDR){
  3165  003F0C  5192               	movf	_pkt_state& (0+255),w,b
  3166  003F0E  A4D8               	btfss	status,2,c
  3167  003F10  EF8C  F01F         	goto	u4961
  3168  003F14  EF8E  F01F         	goto	u4960
  3169  003F18                     u4961:
  3170  003F18  EFA7  F01F         	goto	l4252
  3171  003F1C                     u4960:
  3172  003F1C                     
  3173                           ; BSR set to: 1
  3174                           ;main.c: 168:             char c = buffer_pop(INBUF);
  3175  003F1C  0E01               	movlw	1
  3176  003F1E  EC63  F023         	call	_buffer_pop
  3177  003F22  0101               	movlb	1	; () banked
  3178  003F24  6FE8               	movwf	create_packet@c& (0+255),b
  3179  003F26                     
  3180                           ; BSR set to: 1
  3181                           ;main.c: 169:             if (c == '$'){
  3182  003F26  0E24               	movlw	36
  3183  003F28  19E8               	xorwf	create_packet@c& (0+255),w,b
  3184  003F2A  A4D8               	btfss	status,2,c
  3185  003F2C  EF9A  F01F         	goto	u4971
  3186  003F30  EF9C  F01F         	goto	u4970
  3187  003F34                     u4971:
  3188  003F34  EFF2  F01F         	goto	l177
  3189  003F38                     u4970:
  3190  003F38                     
  3191                           ; BSR set to: 1
  3192                           ;main.c: 170:                 pkt_body_size = 0;
  3193  003F38  0E00               	movlw	0
  3194  003F3A  6F91               	movwf	(_pkt_body_size+1)& (0+255),b
  3195  003F3C  0E00               	movlw	0
  3196  003F3E  6F90               	movwf	_pkt_body_size& (0+255),b
  3197  003F40                     
  3198                           ; BSR set to: 1
  3199                           ;main.c: 171:                 clear_packet();
  3200  003F40  EC5D  F026         	call	_clear_packet	;wreg free
  3201  003F44                     
  3202                           ;main.c: 172:                 pkt_state = PKT_GET_BODY;
  3203  003F44  0E01               	movlw	1
  3204  003F46  0101               	movlb	1	; () banked
  3205  003F48  6F92               	movwf	_pkt_state& (0+255),b
  3206                           
  3207                           ;main.c: 173:             }
  3208  003F4A  EFF2  F01F         	goto	l190
  3209  003F4E                     l4252:
  3210                           
  3211                           ; BSR set to: 1
  3212  003F4E  0592               	decf	_pkt_state& (0+255),w,b
  3213  003F50  A4D8               	btfss	status,2,c
  3214  003F52  EFAD  F01F         	goto	u4981
  3215  003F56  EFAF  F01F         	goto	u4980
  3216  003F5A                     u4981:
  3217  003F5A  EFDC  F01F         	goto	l4268
  3218  003F5E                     u4980:
  3219  003F5E                     
  3220                           ; BSR set to: 1
  3221                           ;main.c: 179:             char c = buffer_pop(INBUF);
  3222  003F5E  0E01               	movlw	1
  3223  003F60  EC63  F023         	call	_buffer_pop
  3224  003F64  0101               	movlb	1	; () banked
  3225  003F66  6FE9               	movwf	create_packet@c_965& (0+255),b
  3226  003F68                     
  3227                           ; BSR set to: 1
  3228                           ;main.c: 180:             if (c == '$'){
  3229  003F68  0E24               	movlw	36
  3230  003F6A  19E9               	xorwf	create_packet@c_965& (0+255),w,b
  3231  003F6C  A4D8               	btfss	status,2,c
  3232  003F6E  EFBB  F01F         	goto	u4991
  3233  003F72  EFBD  F01F         	goto	u4990
  3234  003F76                     u4991:
  3235  003F76  EFBF  F01F         	goto	l4260
  3236  003F7A                     u4990:
  3237  003F7A  EFF2  F01F         	goto	l190
  3238  003F7E                     l4260:
  3239                           
  3240                           ; BSR set to: 1
  3241  003F7E  0E23               	movlw	35
  3242  003F80  19E9               	xorwf	create_packet@c_965& (0+255),w,b
  3243  003F82  A4D8               	btfss	status,2,c
  3244  003F84  EFC6  F01F         	goto	u5001
  3245  003F88  EFC8  F01F         	goto	u5000
  3246  003F8C                     u5001:
  3247  003F8C  EFD0  F01F         	goto	l4264
  3248  003F90                     u5000:
  3249  003F90                     
  3250                           ; BSR set to: 1
  3251                           ;main.c: 184:                 packet_is_proccessing = 1;
  3252  003F90  0E00               	movlw	0
  3253  003F92  6F8F               	movwf	(_packet_is_proccessing+1)& (0+255),b
  3254  003F94  0E01               	movlw	1
  3255  003F96  6F8E               	movwf	_packet_is_proccessing& (0+255),b
  3256                           
  3257                           ;main.c: 185:                 pkt_state = PKT_WAIT_ACK;
  3258  003F98  0E02               	movlw	2
  3259  003F9A  6F92               	movwf	_pkt_state& (0+255),b
  3260                           
  3261                           ;main.c: 186:             }
  3262  003F9C  EFF2  F01F         	goto	l190
  3263  003FA0                     l4264:
  3264                           
  3265                           ; BSR set to: 1
  3266                           ;main.c: 188:                 packet[pkt_body_size++] = c;
  3267  003FA0  0E00               	movlw	low _packet
  3268  003FA2  2590               	addwf	_pkt_body_size& (0+255),w,b
  3269  003FA4  6ED9               	movwf	fsr2l,c
  3270  003FA6  0E03               	movlw	high _packet
  3271  003FA8  2191               	addwfc	(_pkt_body_size+1)& (0+255),w,b
  3272  003FAA  6EDA               	movwf	fsr2h,c
  3273  003FAC  C1E9  FFDF         	movff	create_packet@c_965,indf2
  3274  003FB0                     
  3275                           ; BSR set to: 1
  3276  003FB0  4B90               	infsnz	_pkt_body_size& (0+255),f,b
  3277  003FB2  2B91               	incf	(_pkt_body_size+1)& (0+255),f,b
  3278  003FB4  EFF2  F01F         	goto	l190
  3279  003FB8                     l4268:
  3280                           
  3281                           ; BSR set to: 1
  3282  003FB8  0E02               	movlw	2
  3283  003FBA  1992               	xorwf	_pkt_state& (0+255),w,b
  3284  003FBC  A4D8               	btfss	status,2,c
  3285  003FBE  EFE3  F01F         	goto	u5011
  3286  003FC2  EFE5  F01F         	goto	u5010
  3287  003FC6                     u5011:
  3288  003FC6  EFF2  F01F         	goto	l177
  3289  003FCA                     u5010:
  3290  003FCA                     
  3291                           ; BSR set to: 1
  3292                           ;main.c: 192:             if(packet_is_proccessing == 0){
  3293  003FCA  518E               	movf	_packet_is_proccessing& (0+255),w,b
  3294  003FCC  118F               	iorwf	(_packet_is_proccessing+1)& (0+255),w,b
  3295  003FCE  A4D8               	btfss	status,2,c
  3296  003FD0  EFEC  F01F         	goto	u5021
  3297  003FD4  EFEE  F01F         	goto	u5020
  3298  003FD8                     u5021:
  3299  003FD8  EFF2  F01F         	goto	l177
  3300  003FDC                     u5020:
  3301  003FDC                     
  3302                           ; BSR set to: 1
  3303                           ;main.c: 193:                 pkt_state = PKT_WAIT_HDR;
  3304  003FDC  0E00               	movlw	0
  3305  003FDE  6F92               	movwf	_pkt_state& (0+255),b
  3306  003FE0  EFF2  F01F         	goto	l190
  3307  003FE4                     l177:
  3308  003FE4                     l190:
  3309                           
  3310                           ; BSR set to: 1
  3311  003FE4  0012               	return		;funcret
  3312  003FE6                     __end_of_create_packet:
  3313                           	callstack 0
  3314                           
  3315 ;; *************** function _clear_packet *****************
  3316 ;; Defined at:
  3317 ;;		line 333 in file "main.c"
  3318 ;; Parameters:    Size  Location     Type
  3319 ;;		None
  3320 ;; Auto vars:     Size  Location     Type
  3321 ;;  i               2    0[BANK1 ] int 
  3322 ;; Return value:  Size  Location     Type
  3323 ;;                  1    wreg      void 
  3324 ;; Registers used:
  3325 ;;		wreg, fsr2l, fsr2h, status,2, status,0
  3326 ;; Tracked objects:
  3327 ;;		On entry : 0/0
  3328 ;;		On exit  : 0/0
  3329 ;;		Unchanged: 0/0
  3330 ;; Data sizes:     COMRAM   BANK0   BANK1   BANK2   BANK3   BANK4   BANK5   BANK6   BANK7   BANK8   BANK9  BANK10  BANK1
      +1  BANK12  BANK13  BANK14  BANK15
  3331 ;;      Params:         0       0       0       0       0       0       0       0       0       0       0       0       
      +0       0       0       0       0
  3332 ;;      Locals:         0       0       2       0       0       0       0       0       0       0       0       0       
      +0       0       0       0       0
  3333 ;;      Temps:          0       0       0       0       0       0       0       0       0       0       0       0       
      +0       0       0       0       0
  3334 ;;      Totals:         0       0       2       0       0       0       0       0       0       0       0       0       
      +0       0       0       0       0
  3335 ;;Total ram usage:        2 bytes
  3336 ;; Hardware stack levels used:    1
  3337 ;; Hardware stack levels required when called:   12
  3338 ;; This function calls:
  3339 ;;		Nothing
  3340 ;; This function is called by:
  3341 ;;		_create_packet
  3342 ;;		_initialize_variables
  3343 ;; This function uses a non-reentrant model
  3344 ;;
  3345                           
  3346                           	psect	text10
  3347  004CBA                     __ptext10:
  3348                           	callstack 0
  3349  004CBA                     _clear_packet:
  3350                           	callstack 17
  3351  004CBA                     
  3352                           ;main.c: 334:     for(int i = 0; i < 128; i++){
  3353  004CBA  0E00               	movlw	0
  3354  004CBC  0101               	movlb	1	; () banked
  3355  004CBE  6FE4               	movwf	(clear_packet@i+1)& (0+255),b
  3356  004CC0  0E00               	movlw	0
  3357  004CC2  6FE3               	movwf	clear_packet@i& (0+255),b
  3358  004CC4                     l4150:
  3359                           
  3360                           ; BSR set to: 1
  3361                           ;main.c: 335:         packet[i] = 0;
  3362  004CC4  0E00               	movlw	low _packet
  3363  004CC6  25E3               	addwf	clear_packet@i& (0+255),w,b
  3364  004CC8  6ED9               	movwf	fsr2l,c
  3365  004CCA  0E03               	movlw	high _packet
  3366  004CCC  21E4               	addwfc	(clear_packet@i+1)& (0+255),w,b
  3367  004CCE  6EDA               	movwf	fsr2h,c
  3368  004CD0  0E00               	movlw	0
  3369  004CD2  6EDF               	movwf	indf2,c
  3370  004CD4                     
  3371                           ; BSR set to: 1
  3372                           ;main.c: 336:     }
  3373  004CD4  4BE3               	infsnz	clear_packet@i& (0+255),f,b
  3374  004CD6  2BE4               	incf	(clear_packet@i+1)& (0+255),f,b
  3375  004CD8                     
  3376                           ; BSR set to: 1
  3377  004CD8  BFE4               	btfsc	(clear_packet@i+1)& (0+255),7,b
  3378  004CDA  EF78  F026         	goto	u4791
  3379  004CDE  51E4               	movf	(clear_packet@i+1)& (0+255),w,b
  3380  004CE0  E109               	bnz	u4790
  3381  004CE2  0E80               	movlw	128
  3382  004CE4  5DE3               	subwf	clear_packet@i& (0+255),w,b
  3383  004CE6  A0D8               	btfss	status,0,c
  3384  004CE8  EF78  F026         	goto	u4791
  3385  004CEC  EF7A  F026         	goto	u4790
  3386  004CF0                     u4791:
  3387  004CF0  EF62  F026         	goto	l4150
  3388  004CF4                     u4790:
  3389  004CF4                     
  3390                           ; BSR set to: 1
  3391  004CF4  0012               	return		;funcret
  3392  004CF6                     __end_of_clear_packet:
  3393                           	callstack 0
  3394                           
  3395 ;; *************** function _buffer_pop *****************
  3396 ;; Defined at:
  3397 ;;		line 139 in file "main.c"
  3398 ;; Parameters:    Size  Location     Type
  3399 ;;  buf_type        1    wreg     enum E5081
  3400 ;; Auto vars:     Size  Location     Type
  3401 ;;  buf_type        1    3[BANK1 ] enum E5081
  3402 ;;  result          1    4[BANK1 ] unsigned char 
  3403 ;; Return value:  Size  Location     Type
  3404 ;;                  1    wreg      unsigned char 
  3405 ;; Registers used:
  3406 ;;		wreg, fsr2l, fsr2h, status,2, status,0, cstack
  3407 ;; Tracked objects:
  3408 ;;		On entry : 0/0
  3409 ;;		On exit  : 0/0
  3410 ;;		Unchanged: 0/0
  3411 ;; Data sizes:     COMRAM   BANK0   BANK1   BANK2   BANK3   BANK4   BANK5   BANK6   BANK7   BANK8   BANK9  BANK10  BANK1
      +1  BANK12  BANK13  BANK14  BANK15
  3412 ;;      Params:         0       0       0       0       0       0       0       0       0       0       0       0       
      +0       0       0       0       0
  3413 ;;      Locals:         0       0       2       0       0       0       0       0       0       0       0       0       
      +0       0       0       0       0
  3414 ;;      Temps:          0       0       0       0       0       0       0       0       0       0       0       0       
      +0       0       0       0       0
  3415 ;;      Totals:         0       0       2       0       0       0       0       0       0       0       0       0       
      +0       0       0       0       0
  3416 ;;Total ram usage:        2 bytes
  3417 ;; Hardware stack levels used:    1
  3418 ;; Hardware stack levels required when called:   13
  3419 ;; This function calls:
  3420 ;;		_buffer_is_empty
  3421 ;; This function is called by:
  3422 ;;		_create_packet
  3423 ;; This function uses a non-reentrant model
  3424 ;;
  3425                           
  3426                           	psect	text11
  3427  0046C6                     __ptext11:
  3428                           	callstack 0
  3429  0046C6                     _buffer_pop:
  3430                           	callstack 16
  3431                           
  3432                           ; BSR set to: 1
  3433                           ;incstack = 0
  3434                           ;buffer_pop@buf_type stored from wreg
  3435  0046C6  0101               	movlb	1	; () banked
  3436  0046C8  6FE6               	movwf	buffer_pop@buf_type& (0+255),b
  3437  0046CA                     
  3438                           ;main.c: 143:     if(buf_type == INBUF){
  3439  0046CA  0101               	movlb	1	; () banked
  3440  0046CC  05E6               	decf	buffer_pop@buf_type& (0+255),w,b
  3441  0046CE  A4D8               	btfss	status,2,c
  3442  0046D0  EF6C  F023         	goto	u4761
  3443  0046D4  EF6E  F023         	goto	u4760
  3444  0046D8                     u4761:
  3445  0046D8  EF8C  F023         	goto	l4132
  3446  0046DC                     u4760:
  3447  0046DC                     
  3448                           ; BSR set to: 1
  3449                           ;main.c: 144:         if(buffer_is_empty(INBUF)){
  3450  0046DC  0E01               	movlw	1
  3451  0046DE  EC19  F025         	call	_buffer_is_empty
  3452  0046E2                     
  3453                           ;main.c: 147:         result = input.buffer[input.tail];
  3454  0046E2  0E00               	movlw	low _input
  3455  0046E4  0101               	movlb	1	; () banked
  3456  0046E6  2582               	addwf	(_input+130)& (0+255),w,b
  3457  0046E8  6ED9               	movwf	fsr2l,c
  3458  0046EA  0E01               	movlw	high _input
  3459  0046EC  2183               	addwfc	(_input+131)& (0+255),w,b
  3460  0046EE  6EDA               	movwf	fsr2h,c
  3461  0046F0  50DF               	movf	indf2,w,c
  3462  0046F2  6FE7               	movwf	buffer_pop@result& (0+255),b
  3463  0046F4                     
  3464                           ; BSR set to: 1
  3465                           ;main.c: 148:         input.tail++;
  3466  0046F4  4B82               	infsnz	(_input+130)& (0+255),f,b
  3467  0046F6  2B83               	incf	(_input+131)& (0+255),f,b
  3468  0046F8                     
  3469                           ; BSR set to: 1
  3470                           ;main.c: 149:         if(input.tail == 128) input.tail = 0;
  3471  0046F8  0E80               	movlw	128
  3472  0046FA  1982               	xorwf	(_input+130)& (0+255),w,b
  3473  0046FC  1183               	iorwf	(_input+131)& (0+255),w,b
  3474  0046FE  A4D8               	btfss	status,2,c
  3475  004700  EF84  F023         	goto	u4771
  3476  004704  EF86  F023         	goto	u4770
  3477  004708                     u4771:
  3478  004708  EFAA  F023         	goto	l171
  3479  00470C                     u4770:
  3480  00470C                     
  3481                           ; BSR set to: 1
  3482  00470C  0E00               	movlw	0
  3483  00470E  6F83               	movwf	(_input+131)& (0+255),b
  3484  004710  0E00               	movlw	0
  3485  004712  6F82               	movwf	(_input+130)& (0+255),b
  3486  004714  EFAA  F023         	goto	l171
  3487  004718                     l4132:
  3488                           
  3489                           ; BSR set to: 1
  3490                           ;main.c: 152:         if(buffer_is_empty(OUTBUF)){
  3491  004718  0E00               	movlw	0
  3492  00471A  EC19  F025         	call	_buffer_is_empty
  3493  00471E                     
  3494                           ;main.c: 155:         result = output.buffer[output.tail];
  3495  00471E  0E00               	movlw	low _output
  3496  004720  0102               	movlb	2	; () banked
  3497  004722  2582               	addwf	(_output+130)& (0+255),w,b
  3498  004724  6ED9               	movwf	fsr2l,c
  3499  004726  0E02               	movlw	high _output
  3500  004728  2183               	addwfc	(_output+131)& (0+255),w,b
  3501  00472A  6EDA               	movwf	fsr2h,c
  3502  00472C  50DF               	movf	indf2,w,c
  3503  00472E  0101               	movlb	1	; () banked
  3504  004730  6FE7               	movwf	buffer_pop@result& (0+255),b
  3505  004732                     
  3506                           ; BSR set to: 1
  3507                           ;main.c: 156:         output.tail++;
  3508  004732  0102               	movlb	2	; () banked
  3509  004734  4B82               	infsnz	(_output+130)& (0+255),f,b
  3510  004736  2B83               	incf	(_output+131)& (0+255),f,b
  3511  004738                     
  3512                           ; BSR set to: 2
  3513                           ;main.c: 157:         if(output.tail == 128) output.tail = 0;
  3514  004738  0E80               	movlw	128
  3515  00473A  1982               	xorwf	(_output+130)& (0+255),w,b
  3516  00473C  1183               	iorwf	(_output+131)& (0+255),w,b
  3517  00473E  A4D8               	btfss	status,2,c
  3518  004740  EFA4  F023         	goto	u4781
  3519  004744  EFA6  F023         	goto	u4780
  3520  004748                     u4781:
  3521  004748  EFAA  F023         	goto	l171
  3522  00474C                     u4780:
  3523  00474C                     
  3524                           ; BSR set to: 2
  3525  00474C  0E00               	movlw	0
  3526  00474E  6F83               	movwf	(_output+131)& (0+255),b
  3527  004750  0E00               	movlw	0
  3528  004752  6F82               	movwf	(_output+130)& (0+255),b
  3529  004754                     l171:
  3530                           
  3531                           ;main.c: 162:     return result;
  3532  004754  0101               	movlb	1	; () banked
  3533  004756  51E7               	movf	buffer_pop@result& (0+255),w,b
  3534  004758                     
  3535                           ; BSR set to: 1
  3536  004758  0012               	return		;funcret
  3537  00475A                     __end_of_buffer_pop:
  3538                           	callstack 0
  3539                           
  3540 ;; *************** function _buffer_is_empty *****************
  3541 ;; Defined at:
  3542 ;;		line 109 in file "main.c"
  3543 ;; Parameters:    Size  Location     Type
  3544 ;;  buf_type        1    wreg     enum E5081
  3545 ;; Auto vars:     Size  Location     Type
  3546 ;;  buf_type        1    2[BANK1 ] enum E5081
  3547 ;; Return value:  Size  Location     Type
  3548 ;;                  2    0[BANK1 ] int 
  3549 ;; Registers used:
  3550 ;;		wreg, status,2, status,0
  3551 ;; Tracked objects:
  3552 ;;		On entry : 0/0
  3553 ;;		On exit  : 0/0
  3554 ;;		Unchanged: 0/0
  3555 ;; Data sizes:     COMRAM   BANK0   BANK1   BANK2   BANK3   BANK4   BANK5   BANK6   BANK7   BANK8   BANK9  BANK10  BANK1
      +1  BANK12  BANK13  BANK14  BANK15
  3556 ;;      Params:         0       0       2       0       0       0       0       0       0       0       0       0       
      +0       0       0       0       0
  3557 ;;      Locals:         0       0       1       0       0       0       0       0       0       0       0       0       
      +0       0       0       0       0
  3558 ;;      Temps:          0       0       0       0       0       0       0       0       0       0       0       0       
      +0       0       0       0       0
  3559 ;;      Totals:         0       0       3       0       0       0       0       0       0       0       0       0       
      +0       0       0       0       0
  3560 ;;Total ram usage:        3 bytes
  3561 ;; Hardware stack levels used:    1
  3562 ;; Hardware stack levels required when called:   12
  3563 ;; This function calls:
  3564 ;;		Nothing
  3565 ;; This function is called by:
  3566 ;;		_buffer_pop
  3567 ;;		_create_packet
  3568 ;; This function uses a non-reentrant model
  3569 ;;
  3570                           
  3571                           	psect	text12
  3572  004A32                     __ptext12:
  3573                           	callstack 0
  3574  004A32                     _buffer_is_empty:
  3575                           	callstack 16
  3576                           
  3577                           ; BSR set to: 1
  3578                           ;incstack = 0
  3579                           ;buffer_is_empty@buf_type stored from wreg
  3580  004A32  0101               	movlb	1	; () banked
  3581  004A34  6FE5               	movwf	buffer_is_empty@buf_type& (0+255),b
  3582  004A36                     
  3583                           ;main.c: 110:     if(buf_type == INBUF){
  3584  004A36  0101               	movlb	1	; () banked
  3585  004A38  05E5               	decf	buffer_is_empty@buf_type& (0+255),w,b
  3586  004A3A  A4D8               	btfss	status,2,c
  3587  004A3C  EF22  F025         	goto	u4571
  3588  004A40  EF24  F025         	goto	u4570
  3589  004A44                     u4571:
  3590  004A44  EF36  F025         	goto	l4022
  3591  004A48                     u4570:
  3592  004A48                     
  3593                           ; BSR set to: 1
  3594                           ;main.c: 111:         return (input.head == input.tail) ? 1 : 0;
  3595  004A48  5182               	movf	(_input+130)& (0+255),w,b
  3596  004A4A  1980               	xorwf	(_input+128)& (0+255),w,b
  3597  004A4C  E10A               	bnz	u4580
  3598  004A4E  5183               	movf	(_input+131)& (0+255),w,b
  3599  004A50  1981               	xorwf	(_input+129)& (0+255),w,b
  3600  004A52  B4D8               	btfsc	status,2,c
  3601  004A54  EF2E  F025         	goto	u4581
  3602  004A58  EF31  F025         	goto	u4580
  3603  004A5C                     u4581:
  3604  004A5C  0E01               	movlw	1
  3605  004A5E  EF32  F025         	goto	u4590
  3606  004A62                     u4580:
  3607  004A62  0E00               	movlw	0
  3608  004A64                     u4590:
  3609  004A64  6FE3               	movwf	?_buffer_is_empty& (0+255),b
  3610  004A66  6BE4               	clrf	(?_buffer_is_empty+1)& (0+255),b
  3611  004A68  EF48  F025         	goto	l155
  3612  004A6C                     l4022:
  3613                           
  3614                           ; BSR set to: 1
  3615                           ;main.c: 114:         return (output.head == output.tail) ? 1 : 0;
  3616  004A6C  0102               	movlb	2	; () banked
  3617  004A6E  5182               	movf	(_output+130)& (0+255),w,b
  3618  004A70  1980               	xorwf	(_output+128)& (0+255),w,b
  3619  004A72  E10A               	bnz	u4600
  3620  004A74  5183               	movf	(_output+131)& (0+255),w,b
  3621  004A76  1981               	xorwf	(_output+129)& (0+255),w,b
  3622  004A78  B4D8               	btfsc	status,2,c
  3623  004A7A  EF41  F025         	goto	u4601
  3624  004A7E  EF44  F025         	goto	u4600
  3625  004A82                     u4601:
  3626  004A82  0E01               	movlw	1
  3627  004A84  EF45  F025         	goto	u4610
  3628  004A88                     u4600:
  3629  004A88  0E00               	movlw	0
  3630  004A8A                     u4610:
  3631  004A8A  0101               	movlb	1	; () banked
  3632  004A8C  6FE3               	movwf	?_buffer_is_empty& (0+255),b
  3633  004A8E  6BE4               	clrf	(?_buffer_is_empty+1)& (0+255),b
  3634  004A90                     l155:
  3635                           
  3636                           ; BSR set to: 1
  3637  004A90  0012               	return		;funcret
  3638  004A92                     __end_of_buffer_is_empty:
  3639                           	callstack 0
  3640                           
  3641 ;; *************** function _highPriorityISR *****************
  3642 ;; Defined at:
  3643 ;;		line 537 in file "main.c"
  3644 ;; Parameters:    Size  Location     Type
  3645 ;;		None
  3646 ;; Auto vars:     Size  Location     Type
  3647 ;;  c               1  121[BANK0 ] unsigned char 
  3648 ;;  result          2  122[BANK0 ] unsigned int 
  3649 ;; Return value:  Size  Location     Type
  3650 ;;                  1    wreg      void 
  3651 ;; Registers used:
  3652 ;;		wreg, fsr1l, fsr1h, fsr2l, fsr2h, status,2, status,0, tblptrl, tblptrh, tblptru, prodl, prodh, cstack
  3653 ;; Tracked objects:
  3654 ;;		On entry : 0/0
  3655 ;;		On exit  : 0/0
  3656 ;;		Unchanged: 0/0
  3657 ;; Data sizes:     COMRAM   BANK0   BANK1   BANK2   BANK3   BANK4   BANK5   BANK6   BANK7   BANK8   BANK9  BANK10  BANK1
      +1  BANK12  BANK13  BANK14  BANK15
  3658 ;;      Params:         0       0       0       0       0       0       0       0       0       0       0       0       
      +0       0       0       0       0
  3659 ;;      Locals:         0       3       0       0       0       0       0       0       0       0       0       0       
      +0       0       0       0       0
  3660 ;;      Temps:          0      12       0       0       0       0       0       0       0       0       0       0       
      +0       0       0       0       0
  3661 ;;      Totals:         0      15       0       0       0       0       0       0       0       0       0       0       
      +0       0       0       0       0
  3662 ;;Total ram usage:       15 bytes
  3663 ;; Hardware stack levels used:    1
  3664 ;; Hardware stack levels required when called:   11
  3665 ;; This function calls:
  3666 ;;		_buffer_push
  3667 ;;		_int_to_hex_and_push
  3668 ;;		_set_message
  3669 ;;		i2_buffer_is_empty
  3670 ;;		i2_buffer_pop
  3671 ;; This function is called by:
  3672 ;;		Interrupt level 2
  3673 ;; This function uses a non-reentrant model
  3674 ;;
  3675                           
  3676                           	psect	intcode
  3677  000008                     __pintcode:
  3678                           	callstack 0
  3679  000008                     _highPriorityISR:
  3680                           	callstack 16
  3681                           
  3682                           ; BSR set to: 1
  3683                           ;incstack = 0
  3684  000008  825E               	bsf	int$flags,1,c	;set compiler interrupt flag (level 2)
  3685  00000A  ED7B  F011         	call	int_func,f	;refresh shadow registers
  3686                           
  3687                           	psect	intcode_body
  3688  0022F6                     __pintcode_body:
  3689                           	callstack 16
  3690  0022F6                     int_func:
  3691                           	callstack 16
  3692  0022F6  0006               	pop		; remove dummy address from shadow register refresh
  3693  0022F8  CFE1 F0CF          	movff	fsr1l,??_highPriorityISR+2
  3694  0022FC  CFE2 F0D0          	movff	fsr1h,??_highPriorityISR+3
  3695  002300  CFD9 F0D1          	movff	fsr2l,??_highPriorityISR+4
  3696  002304  CFDA F0D2          	movff	fsr2h,??_highPriorityISR+5
  3697  002308  CFF3 F0D3          	movff	prodl,??_highPriorityISR+6
  3698  00230C  CFF4 F0D4          	movff	prodh,??_highPriorityISR+7
  3699  002310  CFF6 F0D5          	movff	tblptrl,??_highPriorityISR+8
  3700  002314  CFF7 F0D6          	movff	tblptrh,??_highPriorityISR+9
  3701  002318  CFF8 F0D7          	movff	tblptru,??_highPriorityISR+10
  3702  00231C  CFF5 F0D8          	movff	tablat,??_highPriorityISR+11
  3703  002320                     
  3704                           ;main.c: 538:     if (INTCONbits.TMR0IF == 1){
  3705  002320  A4F2               	btfss	242,2,c	;volatile
  3706  002322  EF95  F011         	goto	i2u536_41
  3707  002326  EF97  F011         	goto	i2u536_40
  3708  00232A                     i2u536_41:
  3709  00232A  EFA7  F011         	goto	i2l4574
  3710  00232E                     i2u536_40:
  3711  00232E                     
  3712                           ;main.c: 539:         INTCONbits.TMR0IF = 0;
  3713  00232E  94F2               	bcf	242,2,c	;volatile
  3714  002330                     
  3715                           ;main.c: 540:         TMR0L = 0xF7;
  3716  002330  0EF7               	movlw	247
  3717  002332  6ED6               	movwf	214,c	;volatile
  3718                           
  3719                           ;main.c: 541:         TMR0H = 0xC2;
  3720  002334  0EC2               	movlw	194
  3721  002336  6ED7               	movwf	215,c	;volatile
  3722  002338                     
  3723                           ;main.c: 542:         if(operation_mode == ACTIVE){
  3724  002338  0100               	movlb	0	; () banked
  3725  00233A  05FE               	decf	_operation_mode& (0+255),w,b
  3726  00233C  A4D8               	btfss	status,2,c
  3727  00233E  EFA3  F011         	goto	i2u537_41
  3728  002342  EFA5  F011         	goto	i2u537_40
  3729  002346                     i2u537_41:
  3730  002346  EFA7  F011         	goto	i2l4574
  3731  00234A                     i2u537_40:
  3732  00234A                     
  3733                           ; BSR set to: 0
  3734                           ;main.c: 543:             set_message();
  3735  00234A  ECCE  F017         	call	_set_message	;wreg free
  3736  00234E                     i2l4574:
  3737                           
  3738                           ;main.c: 546:     if (INTCONbits.RBIF == 1){
  3739  00234E  A0F2               	btfss	242,0,c	;volatile
  3740  002350  EFAC  F011         	goto	i2u538_41
  3741  002354  EFAE  F011         	goto	i2u538_40
  3742  002358                     i2u538_41:
  3743  002358  EFA4  F012         	goto	i2l4618
  3744  00235C                     i2u538_40:
  3745  00235C                     
  3746                           ;main.c: 547:         INTCONbits.RBIF = 0;
  3747  00235C  90F2               	bcf	242,0,c	;volatile
  3748  00235E                     
  3749                           ;main.c: 548:         if(rb4_prev != PORTBbits.RB4 && rb4mode){
  3750  00235E  B881               	btfsc	129,4,c	;volatile
  3751  002360  EFB4  F011         	goto	i2u539_41
  3752  002364  EFB7  F011         	goto	i2u539_40
  3753  002368                     i2u539_41:
  3754  002368  0E01               	movlw	1
  3755  00236A  EFB8  F011         	goto	i2u540_40
  3756  00236E                     i2u539_40:
  3757  00236E  0E00               	movlw	0
  3758  002370                     i2u540_40:
  3759  002370  0100               	movlb	0	; () banked
  3760  002372  6FCD               	movwf	??_highPriorityISR& (0+255),b
  3761  002374  6BCE               	clrf	(??_highPriorityISR+1)& (0+255),b
  3762  002376  51F4               	movf	_rb4_prev& (0+255),w,b
  3763  002378  19CD               	xorwf	??_highPriorityISR& (0+255),w,b
  3764  00237A  E109               	bnz	i2u541_40
  3765  00237C  51F5               	movf	(_rb4_prev+1)& (0+255),w,b
  3766  00237E  19CE               	xorwf	(??_highPriorityISR+1)& (0+255),w,b
  3767  002380  B4D8               	btfsc	status,2,c
  3768  002382  EFC5  F011         	goto	i2u541_41
  3769  002386  EFC7  F011         	goto	i2u541_40
  3770  00238A                     i2u541_41:
  3771  00238A  EFE9  F011         	goto	i2l4588
  3772  00238E                     i2u541_40:
  3773  00238E                     
  3774                           ; BSR set to: 0
  3775  00238E  51E4               	movf	_rb4mode& (0+255),w,b
  3776  002390  11E5               	iorwf	(_rb4mode+1)& (0+255),w,b
  3777  002392  B4D8               	btfsc	status,2,c
  3778  002394  EFCE  F011         	goto	i2u542_41
  3779  002398  EFD0  F011         	goto	i2u542_40
  3780  00239C                     i2u542_41:
  3781  00239C  EFE9  F011         	goto	i2l4588
  3782  0023A0                     i2u542_40:
  3783  0023A0                     
  3784                           ; BSR set to: 0
  3785                           ;main.c: 549:             rb4_prev = PORTBbits.RB4;
  3786  0023A0  B881               	btfsc	129,4,c	;volatile
  3787  0023A2  EFD5  F011         	goto	i2u543_41
  3788  0023A6  EFD9  F011         	goto	i2u543_40
  3789  0023AA                     i2u543_41:
  3790  0023AA  6BCD               	clrf	??_highPriorityISR& (0+255),b
  3791  0023AC  2BCD               	incf	??_highPriorityISR& (0+255),f,b
  3792  0023AE  EFDB  F011         	goto	i2u543_48
  3793  0023B2                     i2u543_40:
  3794  0023B2  0100               	movlb	0	; () banked
  3795  0023B4  6BCD               	clrf	??_highPriorityISR& (0+255),b
  3796  0023B6                     i2u543_48:
  3797  0023B6  51CD               	movf	??_highPriorityISR& (0+255),w,b
  3798  0023B8  6FF4               	movwf	_rb4_prev& (0+255),b
  3799  0023BA  6BF5               	clrf	(_rb4_prev+1)& (0+255),b
  3800  0023BC                     
  3801                           ; BSR set to: 0
  3802                           ;main.c: 550:             if(PORTBbits.RB4 == 1){
  3803  0023BC  A881               	btfss	129,4,c	;volatile
  3804  0023BE  EFE3  F011         	goto	i2u544_41
  3805  0023C2  EFE5  F011         	goto	i2u544_40
  3806  0023C6                     i2u544_41:
  3807  0023C6  EFE9  F011         	goto	i2l4588
  3808  0023CA                     i2u544_40:
  3809  0023CA                     
  3810                           ; BSR set to: 0
  3811                           ;main.c: 551:                 rb4_pressed_flag = 1;
  3812  0023CA  0E00               	movlw	0
  3813  0023CC  6FED               	movwf	(_rb4_pressed_flag+1)& (0+255),b
  3814  0023CE  0E01               	movlw	1
  3815  0023D0  6FEC               	movwf	_rb4_pressed_flag& (0+255),b
  3816  0023D2                     i2l4588:
  3817                           
  3818                           ; BSR set to: 0
  3819                           ;main.c: 554:         if(rb5_prev != PORTBbits.RB5 && rb5mode ){
  3820  0023D2  BA81               	btfsc	129,5,c	;volatile
  3821  0023D4  EFEE  F011         	goto	i2u545_41
  3822  0023D8  EFF1  F011         	goto	i2u545_40
  3823  0023DC                     i2u545_41:
  3824  0023DC  0E01               	movlw	1
  3825  0023DE  EFF2  F011         	goto	i2u546_40
  3826  0023E2                     i2u545_40:
  3827  0023E2  0E00               	movlw	0
  3828  0023E4                     i2u546_40:
  3829  0023E4  6FCD               	movwf	??_highPriorityISR& (0+255),b
  3830  0023E6  6BCE               	clrf	(??_highPriorityISR+1)& (0+255),b
  3831  0023E8  51F2               	movf	_rb5_prev& (0+255),w,b
  3832  0023EA  19CD               	xorwf	??_highPriorityISR& (0+255),w,b
  3833  0023EC  E109               	bnz	i2u547_40
  3834  0023EE  51F3               	movf	(_rb5_prev+1)& (0+255),w,b
  3835  0023F0  19CE               	xorwf	(??_highPriorityISR+1)& (0+255),w,b
  3836  0023F2  B4D8               	btfsc	status,2,c
  3837  0023F4  EFFE  F011         	goto	i2u547_41
  3838  0023F8  EF00  F012         	goto	i2u547_40
  3839  0023FC                     i2u547_41:
  3840  0023FC  EF24  F012         	goto	i2l4598
  3841  002400                     i2u547_40:
  3842  002400                     
  3843                           ; BSR set to: 0
  3844  002400  0101               	movlb	1	; () banked
  3845  002402  518C               	movf	_rb5mode& (0+255),w,b
  3846  002404  118D               	iorwf	(_rb5mode+1)& (0+255),w,b
  3847  002406  B4D8               	btfsc	status,2,c
  3848  002408  EF08  F012         	goto	i2u548_41
  3849  00240C  EF0A  F012         	goto	i2u548_40
  3850  002410                     i2u548_41:
  3851  002410  EF24  F012         	goto	i2l4598
  3852  002414                     i2u548_40:
  3853  002414                     
  3854                           ; BSR set to: 1
  3855                           ;main.c: 555:             rb5_prev = PORTBbits.RB5;
  3856  002414  BA81               	btfsc	129,5,c	;volatile
  3857  002416  EF0F  F012         	goto	i2u549_41
  3858  00241A  EF14  F012         	goto	i2u549_40
  3859  00241E                     i2u549_41:
  3860  00241E  0100               	movlb	0	; () banked
  3861  002420  6BCD               	clrf	??_highPriorityISR& (0+255),b
  3862  002422  2BCD               	incf	??_highPriorityISR& (0+255),f,b
  3863  002424  EF16  F012         	goto	i2u549_48
  3864  002428                     i2u549_40:
  3865  002428  0100               	movlb	0	; () banked
  3866  00242A  6BCD               	clrf	??_highPriorityISR& (0+255),b
  3867  00242C                     i2u549_48:
  3868  00242C  51CD               	movf	??_highPriorityISR& (0+255),w,b
  3869  00242E  6FF2               	movwf	_rb5_prev& (0+255),b
  3870  002430  6BF3               	clrf	(_rb5_prev+1)& (0+255),b
  3871  002432                     
  3872                           ; BSR set to: 0
  3873                           ;main.c: 556:             if(PORTBbits.RB5 == 1){
  3874  002432  AA81               	btfss	129,5,c	;volatile
  3875  002434  EF1E  F012         	goto	i2u550_41
  3876  002438  EF20  F012         	goto	i2u550_40
  3877  00243C                     i2u550_41:
  3878  00243C  EF24  F012         	goto	i2l4598
  3879  002440                     i2u550_40:
  3880  002440                     
  3881                           ; BSR set to: 0
  3882                           ;main.c: 557:                 rb5_pressed_flag = 1;
  3883  002440  0E00               	movlw	0
  3884  002442  6FEB               	movwf	(_rb5_pressed_flag+1)& (0+255),b
  3885  002444  0E01               	movlw	1
  3886  002446  6FEA               	movwf	_rb5_pressed_flag& (0+255),b
  3887  002448                     i2l4598:
  3888                           
  3889                           ;main.c: 560:         if(rb6_prev != PORTBbits.RB6 && rb6mode){
  3890  002448  BC81               	btfsc	129,6,c	;volatile
  3891  00244A  EF29  F012         	goto	i2u551_41
  3892  00244E  EF2C  F012         	goto	i2u551_40
  3893  002452                     i2u551_41:
  3894  002452  0E01               	movlw	1
  3895  002454  EF2D  F012         	goto	i2u552_40
  3896  002458                     i2u551_40:
  3897  002458  0E00               	movlw	0
  3898  00245A                     i2u552_40:
  3899  00245A  0100               	movlb	0	; () banked
  3900  00245C  6FCD               	movwf	??_highPriorityISR& (0+255),b
  3901  00245E  6BCE               	clrf	(??_highPriorityISR+1)& (0+255),b
  3902  002460  51F0               	movf	_rb6_prev& (0+255),w,b
  3903  002462  19CD               	xorwf	??_highPriorityISR& (0+255),w,b
  3904  002464  E109               	bnz	i2u553_40
  3905  002466  51F1               	movf	(_rb6_prev+1)& (0+255),w,b
  3906  002468  19CE               	xorwf	(??_highPriorityISR+1)& (0+255),w,b
  3907  00246A  B4D8               	btfsc	status,2,c
  3908  00246C  EF3A  F012         	goto	i2u553_41
  3909  002470  EF3C  F012         	goto	i2u553_40
  3910  002474                     i2u553_41:
  3911  002474  EF64  F012         	goto	i2l4608
  3912  002478                     i2u553_40:
  3913  002478                     
  3914                           ; BSR set to: 0
  3915  002478  0101               	movlb	1	; () banked
  3916  00247A  518A               	movf	_rb6mode& (0+255),w,b
  3917  00247C  118B               	iorwf	(_rb6mode+1)& (0+255),w,b
  3918  00247E  B4D8               	btfsc	status,2,c
  3919  002480  EF44  F012         	goto	i2u554_41
  3920  002484  EF46  F012         	goto	i2u554_40
  3921  002488                     i2u554_41:
  3922  002488  EF64  F012         	goto	i2l4608
  3923  00248C                     i2u554_40:
  3924  00248C                     
  3925                           ; BSR set to: 1
  3926                           ;main.c: 561:             rb6_prev = PORTBbits.RB6;
  3927  00248C  BC81               	btfsc	129,6,c	;volatile
  3928  00248E  EF4B  F012         	goto	i2u555_41
  3929  002492  EF50  F012         	goto	i2u555_40
  3930  002496                     i2u555_41:
  3931  002496  0100               	movlb	0	; () banked
  3932  002498  6BCD               	clrf	??_highPriorityISR& (0+255),b
  3933  00249A  2BCD               	incf	??_highPriorityISR& (0+255),f,b
  3934  00249C  EF52  F012         	goto	i2u555_48
  3935  0024A0                     i2u555_40:
  3936  0024A0  0100               	movlb	0	; () banked
  3937  0024A2  6BCD               	clrf	??_highPriorityISR& (0+255),b
  3938  0024A4                     i2u555_48:
  3939  0024A4  51CD               	movf	??_highPriorityISR& (0+255),w,b
  3940  0024A6  6FF0               	movwf	_rb6_prev& (0+255),b
  3941  0024A8  6BF1               	clrf	(_rb6_prev+1)& (0+255),b
  3942                           
  3943                           ;main.c: 562:             rb6_pressed_flag = 1;
  3944  0024AA  0E00               	movlw	0
  3945  0024AC  6FE9               	movwf	(_rb6_pressed_flag+1)& (0+255),b
  3946  0024AE  0E01               	movlw	1
  3947  0024B0  6FE8               	movwf	_rb6_pressed_flag& (0+255),b
  3948  0024B2                     
  3949                           ; BSR set to: 0
  3950                           ;main.c: 563:             if(PORTBbits.RB6 == 1){
  3951  0024B2  AC81               	btfss	129,6,c	;volatile
  3952  0024B4  EF5E  F012         	goto	i2u556_41
  3953  0024B8  EF60  F012         	goto	i2u556_40
  3954  0024BC                     i2u556_41:
  3955  0024BC  EF64  F012         	goto	i2l4608
  3956  0024C0                     i2u556_40:
  3957  0024C0                     
  3958                           ; BSR set to: 0
  3959                           ;main.c: 564:                 rb6_pressed_flag = 1;
  3960  0024C0  0E00               	movlw	0
  3961  0024C2  6FE9               	movwf	(_rb6_pressed_flag+1)& (0+255),b
  3962  0024C4  0E01               	movlw	1
  3963  0024C6  6FE8               	movwf	_rb6_pressed_flag& (0+255),b
  3964  0024C8                     i2l4608:
  3965                           
  3966                           ;main.c: 567:         if(rb7_prev != PORTBbits.RB7 && rb7mode){
  3967  0024C8  BE81               	btfsc	129,7,c	;volatile
  3968  0024CA  EF69  F012         	goto	i2u557_41
  3969  0024CE  EF6C  F012         	goto	i2u557_40
  3970  0024D2                     i2u557_41:
  3971  0024D2  0E01               	movlw	1
  3972  0024D4  EF6D  F012         	goto	i2u558_40
  3973  0024D8                     i2u557_40:
  3974  0024D8  0E00               	movlw	0
  3975  0024DA                     i2u558_40:
  3976  0024DA  0100               	movlb	0	; () banked
  3977  0024DC  6FCD               	movwf	??_highPriorityISR& (0+255),b
  3978  0024DE  6BCE               	clrf	(??_highPriorityISR+1)& (0+255),b
  3979  0024E0  51EE               	movf	_rb7_prev& (0+255),w,b
  3980  0024E2  19CD               	xorwf	??_highPriorityISR& (0+255),w,b
  3981  0024E4  E109               	bnz	i2u559_40
  3982  0024E6  51EF               	movf	(_rb7_prev+1)& (0+255),w,b
  3983  0024E8  19CE               	xorwf	(??_highPriorityISR+1)& (0+255),w,b
  3984  0024EA  B4D8               	btfsc	status,2,c
  3985  0024EC  EF7A  F012         	goto	i2u559_41
  3986  0024F0  EF7C  F012         	goto	i2u559_40
  3987  0024F4                     i2u559_41:
  3988  0024F4  EFA4  F012         	goto	i2l4618
  3989  0024F8                     i2u559_40:
  3990  0024F8                     
  3991                           ; BSR set to: 0
  3992  0024F8  0101               	movlb	1	; () banked
  3993  0024FA  5188               	movf	_rb7mode& (0+255),w,b
  3994  0024FC  1189               	iorwf	(_rb7mode+1)& (0+255),w,b
  3995  0024FE  B4D8               	btfsc	status,2,c
  3996  002500  EF84  F012         	goto	i2u560_41
  3997  002504  EF86  F012         	goto	i2u560_40
  3998  002508                     i2u560_41:
  3999  002508  EFA4  F012         	goto	i2l4618
  4000  00250C                     i2u560_40:
  4001  00250C                     
  4002                           ; BSR set to: 1
  4003                           ;main.c: 568:             rb7_prev = PORTBbits.RB7;
  4004  00250C  BE81               	btfsc	129,7,c	;volatile
  4005  00250E  EF8B  F012         	goto	i2u561_41
  4006  002512  EF90  F012         	goto	i2u561_40
  4007  002516                     i2u561_41:
  4008  002516  0100               	movlb	0	; () banked
  4009  002518  6BCD               	clrf	??_highPriorityISR& (0+255),b
  4010  00251A  2BCD               	incf	??_highPriorityISR& (0+255),f,b
  4011  00251C  EF92  F012         	goto	i2u561_48
  4012  002520                     i2u561_40:
  4013  002520  0100               	movlb	0	; () banked
  4014  002522  6BCD               	clrf	??_highPriorityISR& (0+255),b
  4015  002524                     i2u561_48:
  4016  002524  51CD               	movf	??_highPriorityISR& (0+255),w,b
  4017  002526  6FEE               	movwf	_rb7_prev& (0+255),b
  4018  002528  6BEF               	clrf	(_rb7_prev+1)& (0+255),b
  4019                           
  4020                           ;main.c: 569:             rb7_pressed_flag = 1;
  4021  00252A  0E00               	movlw	0
  4022  00252C  6FE7               	movwf	(_rb7_pressed_flag+1)& (0+255),b
  4023  00252E  0E01               	movlw	1
  4024  002530  6FE6               	movwf	_rb7_pressed_flag& (0+255),b
  4025  002532                     
  4026                           ; BSR set to: 0
  4027                           ;main.c: 570:             if(PORTBbits.RB7 == 1){
  4028  002532  AE81               	btfss	129,7,c	;volatile
  4029  002534  EF9E  F012         	goto	i2u562_41
  4030  002538  EFA0  F012         	goto	i2u562_40
  4031  00253C                     i2u562_41:
  4032  00253C  EFA4  F012         	goto	i2l4618
  4033  002540                     i2u562_40:
  4034  002540                     
  4035                           ; BSR set to: 0
  4036                           ;main.c: 571:                 rb7_pressed_flag = 1;
  4037  002540  0E00               	movlw	0
  4038  002542  6FE7               	movwf	(_rb7_pressed_flag+1)& (0+255),b
  4039  002544  0E01               	movlw	1
  4040  002546  6FE6               	movwf	_rb7_pressed_flag& (0+255),b
  4041  002548                     i2l4618:
  4042                           
  4043                           ;main.c: 575:     if (PIR1bits.ADIF == 1){
  4044  002548  AC9E               	btfss	158,6,c	;volatile
  4045  00254A  EFA9  F012         	goto	i2u563_41
  4046  00254E  EFAB  F012         	goto	i2u563_40
  4047  002552                     i2u563_41:
  4048  002552  EFF4  F012         	goto	i2l4640
  4049  002556                     i2u563_40:
  4050  002556                     
  4051                           ;main.c: 576:         PIR1bits.ADIF = 0;
  4052  002556  9C9E               	bcf	158,6,c	;volatile
  4053  002558                     
  4054                           ;main.c: 577:         unsigned int result = (ADRESH << 8) + ADRESL;
  4055  002558  50C4               	movf	196,w,c	;volatile
  4056  00255A  0100               	movlb	0	; () banked
  4057  00255C  6FCE               	movwf	(??_highPriorityISR+1)& (0+255),b
  4058  00255E  6BCD               	clrf	??_highPriorityISR& (0+255),b
  4059  002560  50C3               	movf	195,w,c	;volatile
  4060  002562  25CD               	addwf	??_highPriorityISR& (0+255),w,b
  4061  002564  6FDA               	movwf	highPriorityISR@result& (0+255),b
  4062  002566  0E00               	movlw	0
  4063  002568  21CE               	addwfc	(??_highPriorityISR+1)& (0+255),w,b
  4064  00256A  6FDB               	movwf	(highPriorityISR@result+1)& (0+255),b
  4065                           
  4066                           ;main.c: 578:         if(result < 256) int_to_hex_and_push(9000);
  4067  00256C  05DB               	decf	(highPriorityISR@result+1)& (0+255),w,b
  4068  00256E  B0D8               	btfsc	status,0,c
  4069  002570  EFBC  F012         	goto	i2u564_41
  4070  002574  EFBE  F012         	goto	i2u564_40
  4071  002578                     i2u564_41:
  4072  002578  EFC6  F012         	goto	i2l4626
  4073  00257C                     i2u564_40:
  4074  00257C                     
  4075                           ; BSR set to: 0
  4076  00257C  0E23               	movlw	35
  4077  00257E  6F96               	movwf	(int_to_hex_and_push@num+1)& (0+255),b
  4078  002580  0E28               	movlw	40
  4079  002582  6F95               	movwf	int_to_hex_and_push@num& (0+255),b
  4080  002584  ECB3  F024         	call	_int_to_hex_and_push	;wreg free
  4081  002588  EFEE  F012         	goto	i2l4636
  4082  00258C                     i2l4626:
  4083                           
  4084                           ; BSR set to: 0
  4085  00258C  0E02               	movlw	2
  4086  00258E  5DDB               	subwf	(highPriorityISR@result+1)& (0+255),w,b
  4087  002590  B0D8               	btfsc	status,0,c
  4088  002592  EFCD  F012         	goto	i2u565_41
  4089  002596  EFCF  F012         	goto	i2u565_40
  4090  00259A                     i2u565_41:
  4091  00259A  EFD7  F012         	goto	i2l4630
  4092  00259E                     i2u565_40:
  4093  00259E                     
  4094                           ; BSR set to: 0
  4095  00259E  0E27               	movlw	39
  4096  0025A0  6F96               	movwf	(int_to_hex_and_push@num+1)& (0+255),b
  4097  0025A2  0E10               	movlw	16
  4098  0025A4  6F95               	movwf	int_to_hex_and_push@num& (0+255),b
  4099  0025A6  ECB3  F024         	call	_int_to_hex_and_push	;wreg free
  4100  0025AA  EFEE  F012         	goto	i2l4636
  4101  0025AE                     i2l4630:
  4102                           
  4103                           ; BSR set to: 0
  4104  0025AE  0E03               	movlw	3
  4105  0025B0  5DDB               	subwf	(highPriorityISR@result+1)& (0+255),w,b
  4106  0025B2  B0D8               	btfsc	status,0,c
  4107  0025B4  EFDE  F012         	goto	i2u566_41
  4108  0025B8  EFE0  F012         	goto	i2u566_40
  4109  0025BC                     i2u566_41:
  4110  0025BC  EFE8  F012         	goto	i2l4634
  4111  0025C0                     i2u566_40:
  4112  0025C0                     
  4113                           ; BSR set to: 0
  4114  0025C0  0E2A               	movlw	42
  4115  0025C2  6F96               	movwf	(int_to_hex_and_push@num+1)& (0+255),b
  4116  0025C4  0EF8               	movlw	248
  4117  0025C6  6F95               	movwf	int_to_hex_and_push@num& (0+255),b
  4118  0025C8  ECB3  F024         	call	_int_to_hex_and_push	;wreg free
  4119  0025CC  EFEE  F012         	goto	i2l4636
  4120  0025D0                     i2l4634:
  4121                           
  4122                           ; BSR set to: 0
  4123  0025D0  0E2E               	movlw	46
  4124  0025D2  6F96               	movwf	(int_to_hex_and_push@num+1)& (0+255),b
  4125  0025D4  0EE0               	movlw	224
  4126  0025D6  6F95               	movwf	int_to_hex_and_push@num& (0+255),b
  4127  0025D8  ECB3  F024         	call	_int_to_hex_and_push	;wreg free
  4128  0025DC                     i2l4636:
  4129                           
  4130                           ;main.c: 582:         buffer_push('#', OUTBUF);
  4131  0025DC  0E00               	movlw	0
  4132  0025DE  6E01               	movwf	buffer_push@buf_type^0,c
  4133  0025E0  0E23               	movlw	35
  4134  0025E2  EC36  F024         	call	_buffer_push
  4135  0025E6                     
  4136                           ;main.c: 583:         TXSTA1bits.TXEN = 1;
  4137  0025E6  8AAC               	bsf	172,5,c	;volatile
  4138  0025E8                     i2l4640:
  4139                           
  4140                           ;main.c: 585:     if (PIR1bits.TX1IF == 1){
  4141  0025E8  A89E               	btfss	158,4,c	;volatile
  4142  0025EA  EFF9  F012         	goto	i2u567_41
  4143  0025EE  EFFB  F012         	goto	i2u567_40
  4144  0025F2                     i2u567_41:
  4145  0025F2  EF16  F013         	goto	i2l4650
  4146  0025F6                     i2u567_40:
  4147  0025F6                     
  4148                           ;main.c: 586:         PIR1bits.TX1IF = 0;
  4149  0025F6  989E               	bcf	158,4,c	;volatile
  4150  0025F8                     
  4151                           ;main.c: 588:         if (buffer_is_empty(OUTBUF)){
  4152  0025F8  0E00               	movlw	0
  4153  0025FA  EC78  F025         	call	i2_buffer_is_empty
  4154  0025FE  5001               	movf	?i2_buffer_is_empty^0,w,c
  4155  002600  1002               	iorwf	(?i2_buffer_is_empty+1)^0,w,c
  4156  002602  B4D8               	btfsc	status,2,c
  4157  002604  EF06  F013         	goto	i2u568_41
  4158  002608  EF08  F013         	goto	i2u568_40
  4159  00260C                     i2u568_41:
  4160  00260C  EF12  F013         	goto	i2l4648
  4161  002610                     i2u568_40:
  4162  002610                     i2l313:
  4163                           
  4164                           ;main.c: 589:             while(!TXSTA1bits.TRMT){
  4165  002610  A2AC               	btfss	172,1,c	;volatile
  4166  002612  EF0D  F013         	goto	i2u569_41
  4167  002616  EF0F  F013         	goto	i2u569_40
  4168  00261A                     i2u569_41:
  4169  00261A  EF08  F013         	goto	i2l313
  4170  00261E                     i2u569_40:
  4171  00261E                     
  4172                           ;main.c: 592:             TXSTA1bits.TXEN = 0;
  4173  00261E  9AAC               	bcf	172,5,c	;volatile
  4174                           
  4175                           ;main.c: 593:         }
  4176  002620  EF16  F013         	goto	i2l4650
  4177  002624                     i2l4648:
  4178  002624  0E00               	movlw	0
  4179  002626  ECAD  F023         	call	i2_buffer_pop
  4180  00262A  6EAD               	movwf	173,c	;volatile
  4181  00262C                     i2l4650:
  4182                           
  4183                           ;main.c: 597:     if (PIR1bits.RC1IF == 1){
  4184  00262C  AA9E               	btfss	158,5,c	;volatile
  4185  00262E  EF1B  F013         	goto	i2u570_41
  4186  002632  EF1D  F013         	goto	i2u570_40
  4187  002636                     i2u570_41:
  4188  002636  EF31  F013         	goto	i2l320
  4189  00263A                     i2u570_40:
  4190  00263A                     
  4191                           ;main.c: 598:         if(RCSTA1bits.OERR == 1){
  4192  00263A  A2AB               	btfss	171,1,c	;volatile
  4193  00263C  EF22  F013         	goto	i2u571_41
  4194  002640  EF24  F013         	goto	i2u571_40
  4195  002644                     i2u571_41:
  4196  002644  EF28  F013         	goto	i2l318
  4197  002648                     i2u571_40:
  4198  002648                     
  4199                           ;main.c: 599:             RCSTA1bits.CREN = 0;
  4200  002648  98AB               	bcf	171,4,c	;volatile
  4201                           
  4202                           ;main.c: 600:             RCSTA1bits.CREN = 1;
  4203  00264A  88AB               	bsf	171,4,c	;volatile
  4204                           
  4205                           ;main.c: 601:         }
  4206  00264C  EF30  F013         	goto	i2l4658
  4207  002650                     i2l318:
  4208                           
  4209                           ;main.c: 603:             char c = (char)RCREG1;
  4210  002650  CFAE F0D9          	movff	4014,highPriorityISR@c	;volatile
  4211  002654                     
  4212                           ;main.c: 604:             buffer_push(c, INBUF);
  4213  002654  0E01               	movlw	1
  4214  002656  6E01               	movwf	buffer_push@buf_type^0,c
  4215  002658  0100               	movlb	0	; () banked
  4216  00265A  51D9               	movf	highPriorityISR@c& (0+255),w,b
  4217  00265C  EC36  F024         	call	_buffer_push
  4218  002660                     i2l4658:
  4219                           
  4220                           ;main.c: 606:         PIR1bits.RC1IF = 0;
  4221  002660  9A9E               	bcf	158,5,c	;volatile
  4222  002662                     i2l320:
  4223  002662  C0D8  FFF5         	movff	??_highPriorityISR+11,tablat
  4224  002666  C0D7  FFF8         	movff	??_highPriorityISR+10,tblptru
  4225  00266A  C0D6  FFF7         	movff	??_highPriorityISR+9,tblptrh
  4226  00266E  C0D5  FFF6         	movff	??_highPriorityISR+8,tblptrl
  4227  002672  C0D4  FFF4         	movff	??_highPriorityISR+7,prodh
  4228  002676  C0D3  FFF3         	movff	??_highPriorityISR+6,prodl
  4229  00267A  C0D2  FFDA         	movff	??_highPriorityISR+5,fsr2h
  4230  00267E  C0D1  FFD9         	movff	??_highPriorityISR+4,fsr2l
  4231  002682  C0D0  FFE2         	movff	??_highPriorityISR+3,fsr1h
  4232  002686  C0CF  FFE1         	movff	??_highPriorityISR+2,fsr1l
  4233  00268A  925E               	bcf	int$flags,1,c	;clear compiler interrupt flag (level 2)
  4234  00268C  0011               	retfie		f
  4235  00268E                     __end_of_highPriorityISR:
  4236                           	callstack 0
  4237                           
  4238 ;; *************** function i2_buffer_pop *****************
  4239 ;; Defined at:
  4240 ;;		line 139 in file "main.c"
  4241 ;; Parameters:    Size  Location     Type
  4242 ;;  buf_type        1    wreg     enum E5081
  4243 ;; Auto vars:     Size  Location     Type
  4244 ;;  buf_type        1    3[COMRAM] enum E5081
  4245 ;;  result          1    4[COMRAM] unsigned char 
  4246 ;; Return value:  Size  Location     Type
  4247 ;;                  1    wreg      unsigned char 
  4248 ;; Registers used:
  4249 ;;		wreg, fsr2l, fsr2h, status,2, status,0, cstack
  4250 ;; Tracked objects:
  4251 ;;		On entry : 0/0
  4252 ;;		On exit  : 0/0
  4253 ;;		Unchanged: 0/0
  4254 ;; Data sizes:     COMRAM   BANK0   BANK1   BANK2   BANK3   BANK4   BANK5   BANK6   BANK7   BANK8   BANK9  BANK10  BANK1
      +1  BANK12  BANK13  BANK14  BANK15
  4255 ;;      Params:         0       0       0       0       0       0       0       0       0       0       0       0       
      +0       0       0       0       0
  4256 ;;      Locals:         2       0       0       0       0       0       0       0       0       0       0       0       
      +0       0       0       0       0
  4257 ;;      Temps:          0       0       0       0       0       0       0       0       0       0       0       0       
      +0       0       0       0       0
  4258 ;;      Totals:         2       0       0       0       0       0       0       0       0       0       0       0       
      +0       0       0       0       0
  4259 ;;Total ram usage:        2 bytes
  4260 ;; Hardware stack levels used:    1
  4261 ;; Hardware stack levels required when called:    1
  4262 ;; This function calls:
  4263 ;;		i2_buffer_is_empty
  4264 ;; This function is called by:
  4265 ;;		_highPriorityISR
  4266 ;; This function uses a non-reentrant model
  4267 ;;
  4268                           
  4269                           	psect	text14
  4270  00475A                     __ptext14:
  4271                           	callstack 0
  4272  00475A                     i2_buffer_pop:
  4273                           	callstack 25
  4274                           
  4275                           ;incstack = 0
  4276                           ;i2buffer_pop@buf_type stored from wreg
  4277  00475A  6E04               	movwf	i2buffer_pop@buf_type^0,c
  4278  00475C                     
  4279                           ;main.c: 143:     if(buf_type == INBUF){
  4280  00475C  0404               	decf	i2buffer_pop@buf_type^0,w,c
  4281  00475E  A4D8               	btfss	status,2,c
  4282  004760  EFB4  F023         	goto	i2u533_41
  4283  004764  EFB6  F023         	goto	i2u533_40
  4284  004768                     i2u533_41:
  4285  004768  EFD4  F023         	goto	i2l4552
  4286  00476C                     i2u533_40:
  4287  00476C                     
  4288                           ;main.c: 144:         if(buffer_is_empty(INBUF)){
  4289  00476C  0E01               	movlw	1
  4290  00476E  EC78  F025         	call	i2_buffer_is_empty
  4291  004772                     
  4292                           ;main.c: 147:         result = input.buffer[input.tail];
  4293  004772  0E00               	movlw	low _input
  4294  004774  0101               	movlb	1	; () banked
  4295  004776  2582               	addwf	(_input+130)& (0+255),w,b
  4296  004778  6ED9               	movwf	fsr2l,c
  4297  00477A  0E01               	movlw	high _input
  4298  00477C  2183               	addwfc	(_input+131)& (0+255),w,b
  4299  00477E  6EDA               	movwf	fsr2h,c
  4300  004780  50DF               	movf	indf2,w,c
  4301  004782  6E05               	movwf	i2buffer_pop@result^0,c
  4302  004784                     
  4303                           ; BSR set to: 1
  4304                           ;main.c: 148:         input.tail++;
  4305  004784  4B82               	infsnz	(_input+130)& (0+255),f,b
  4306  004786  2B83               	incf	(_input+131)& (0+255),f,b
  4307  004788                     
  4308                           ; BSR set to: 1
  4309                           ;main.c: 149:         if(input.tail == 128) input.tail = 0;
  4310  004788  0E80               	movlw	128
  4311  00478A  1982               	xorwf	(_input+130)& (0+255),w,b
  4312  00478C  1183               	iorwf	(_input+131)& (0+255),w,b
  4313  00478E  A4D8               	btfss	status,2,c
  4314  004790  EFCC  F023         	goto	i2u534_41
  4315  004794  EFCE  F023         	goto	i2u534_40
  4316  004798                     i2u534_41:
  4317  004798  EFF0  F023         	goto	i2l171
  4318  00479C                     i2u534_40:
  4319  00479C                     
  4320                           ; BSR set to: 1
  4321  00479C  0E00               	movlw	0
  4322  00479E  6F83               	movwf	(_input+131)& (0+255),b
  4323  0047A0  0E00               	movlw	0
  4324  0047A2  6F82               	movwf	(_input+130)& (0+255),b
  4325  0047A4  EFF0  F023         	goto	i2l171
  4326  0047A8                     i2l4552:
  4327                           
  4328                           ;main.c: 152:         if(buffer_is_empty(OUTBUF)){
  4329  0047A8  0E00               	movlw	0
  4330  0047AA  EC78  F025         	call	i2_buffer_is_empty
  4331  0047AE                     
  4332                           ;main.c: 155:         result = output.buffer[output.tail];
  4333  0047AE  0E00               	movlw	low _output
  4334  0047B0  0102               	movlb	2	; () banked
  4335  0047B2  2582               	addwf	(_output+130)& (0+255),w,b
  4336  0047B4  6ED9               	movwf	fsr2l,c
  4337  0047B6  0E02               	movlw	high _output
  4338  0047B8  2183               	addwfc	(_output+131)& (0+255),w,b
  4339  0047BA  6EDA               	movwf	fsr2h,c
  4340  0047BC  50DF               	movf	indf2,w,c
  4341  0047BE  6E05               	movwf	i2buffer_pop@result^0,c
  4342  0047C0                     
  4343                           ; BSR set to: 2
  4344                           ;main.c: 156:         output.tail++;
  4345  0047C0  4B82               	infsnz	(_output+130)& (0+255),f,b
  4346  0047C2  2B83               	incf	(_output+131)& (0+255),f,b
  4347  0047C4                     
  4348                           ; BSR set to: 2
  4349                           ;main.c: 157:         if(output.tail == 128) output.tail = 0;
  4350  0047C4  0E80               	movlw	128
  4351  0047C6  1982               	xorwf	(_output+130)& (0+255),w,b
  4352  0047C8  1183               	iorwf	(_output+131)& (0+255),w,b
  4353  0047CA  A4D8               	btfss	status,2,c
  4354  0047CC  EFEA  F023         	goto	i2u535_41
  4355  0047D0  EFEC  F023         	goto	i2u535_40
  4356  0047D4                     i2u535_41:
  4357  0047D4  EFF0  F023         	goto	i2l171
  4358  0047D8                     i2u535_40:
  4359  0047D8                     
  4360                           ; BSR set to: 2
  4361  0047D8  0E00               	movlw	0
  4362  0047DA  6F83               	movwf	(_output+131)& (0+255),b
  4363  0047DC  0E00               	movlw	0
  4364  0047DE  6F82               	movwf	(_output+130)& (0+255),b
  4365  0047E0                     i2l171:
  4366                           
  4367                           ;main.c: 162:     return result;
  4368  0047E0  5005               	movf	i2buffer_pop@result^0,w,c
  4369  0047E2  0012               	return		;funcret
  4370  0047E4                     __end_ofi2_buffer_pop:
  4371                           	callstack 0
  4372                           
  4373 ;; *************** function i2_buffer_is_empty *****************
  4374 ;; Defined at:
  4375 ;;		line 109 in file "main.c"
  4376 ;; Parameters:    Size  Location     Type
  4377 ;;  buf_type        1    wreg     enum E5081
  4378 ;; Auto vars:     Size  Location     Type
  4379 ;;  buf_type        1    2[COMRAM] enum E5081
  4380 ;; Return value:  Size  Location     Type
  4381 ;;                  2    0[COMRAM] int 
  4382 ;; Registers used:
  4383 ;;		wreg, status,2, status,0
  4384 ;; Tracked objects:
  4385 ;;		On entry : 0/0
  4386 ;;		On exit  : 0/0
  4387 ;;		Unchanged: 0/0
  4388 ;; Data sizes:     COMRAM   BANK0   BANK1   BANK2   BANK3   BANK4   BANK5   BANK6   BANK7   BANK8   BANK9  BANK10  BANK1
      +1  BANK12  BANK13  BANK14  BANK15
  4389 ;;      Params:         2       0       0       0       0       0       0       0       0       0       0       0       
      +0       0       0       0       0
  4390 ;;      Locals:         1       0       0       0       0       0       0       0       0       0       0       0       
      +0       0       0       0       0
  4391 ;;      Temps:          0       0       0       0       0       0       0       0       0       0       0       0       
      +0       0       0       0       0
  4392 ;;      Totals:         3       0       0       0       0       0       0       0       0       0       0       0       
      +0       0       0       0       0
  4393 ;;Total ram usage:        3 bytes
  4394 ;; Hardware stack levels used:    1
  4395 ;; This function calls:
  4396 ;;		Nothing
  4397 ;; This function is called by:
  4398 ;;		_highPriorityISR
  4399 ;;		i2_buffer_pop
  4400 ;; This function uses a non-reentrant model
  4401 ;;
  4402                           
  4403                           	psect	text15
  4404  004AF0                     __ptext15:
  4405                           	callstack 0
  4406  004AF0                     i2_buffer_is_empty:
  4407                           	callstack 25
  4408                           
  4409                           ;incstack = 0
  4410                           ;i2buffer_is_empty@buf_type stored from wreg
  4411  004AF0  6E03               	movwf	i2buffer_is_empty@buf_type^0,c
  4412  004AF2                     
  4413                           ;main.c: 110:     if(buf_type == INBUF){
  4414  004AF2  0403               	decf	i2buffer_is_empty@buf_type^0,w,c
  4415  004AF4  A4D8               	btfss	status,2,c
  4416  004AF6  EF7F  F025         	goto	i2u490_41
  4417  004AFA  EF81  F025         	goto	i2u490_40
  4418  004AFE                     i2u490_41:
  4419  004AFE  EF94  F025         	goto	i2l4234
  4420  004B02                     i2u490_40:
  4421  004B02                     
  4422                           ;main.c: 111:         return (input.head == input.tail) ? 1 : 0;
  4423  004B02  0101               	movlb	1	; () banked
  4424  004B04  5182               	movf	(_input+130)& (0+255),w,b
  4425  004B06  1980               	xorwf	(_input+128)& (0+255),w,b
  4426  004B08  E10A               	bnz	i2u491_40
  4427  004B0A  5183               	movf	(_input+131)& (0+255),w,b
  4428  004B0C  1981               	xorwf	(_input+129)& (0+255),w,b
  4429  004B0E  B4D8               	btfsc	status,2,c
  4430  004B10  EF8C  F025         	goto	i2u491_41
  4431  004B14  EF8F  F025         	goto	i2u491_40
  4432  004B18                     i2u491_41:
  4433  004B18  0E01               	movlw	1
  4434  004B1A  EF90  F025         	goto	i2u492_40
  4435  004B1E                     i2u491_40:
  4436  004B1E  0E00               	movlw	0
  4437  004B20                     i2u492_40:
  4438  004B20  6E01               	movwf	?i2_buffer_is_empty^0,c
  4439  004B22  6A02               	clrf	(?i2_buffer_is_empty+1)^0,c
  4440  004B24  EFA5  F025         	goto	i2l155
  4441  004B28                     i2l4234:
  4442                           
  4443                           ;main.c: 114:         return (output.head == output.tail) ? 1 : 0;
  4444  004B28  0102               	movlb	2	; () banked
  4445  004B2A  5182               	movf	(_output+130)& (0+255),w,b
  4446  004B2C  1980               	xorwf	(_output+128)& (0+255),w,b
  4447  004B2E  E10A               	bnz	i2u493_40
  4448  004B30  5183               	movf	(_output+131)& (0+255),w,b
  4449  004B32  1981               	xorwf	(_output+129)& (0+255),w,b
  4450  004B34  B4D8               	btfsc	status,2,c
  4451  004B36  EF9F  F025         	goto	i2u493_41
  4452  004B3A  EFA2  F025         	goto	i2u493_40
  4453  004B3E                     i2u493_41:
  4454  004B3E  0E01               	movlw	1
  4455  004B40  EFA3  F025         	goto	i2u494_40
  4456  004B44                     i2u493_40:
  4457  004B44  0E00               	movlw	0
  4458  004B46                     i2u494_40:
  4459  004B46  6E01               	movwf	?i2_buffer_is_empty^0,c
  4460  004B48  6A02               	clrf	(?i2_buffer_is_empty+1)^0,c
  4461  004B4A                     i2l155:
  4462  004B4A  0012               	return		;funcret
  4463  004B4C                     __end_ofi2_buffer_is_empty:
  4464                           	callstack 0
  4465                           
  4466 ;; *************** function _set_message *****************
  4467 ;; Defined at:
  4468 ;;		line 483 in file "main.c"
  4469 ;; Parameters:    Size  Location     Type
  4470 ;;		None
  4471 ;; Auto vars:     Size  Location     Type
  4472 ;;  start_string    4  103[BANK0 ] unsigned char [4]
  4473 ;;  string          5   98[BANK0 ] unsigned char [5]
  4474 ;;  string          8   90[BANK0 ] unsigned char [8]
  4475 ;;  string          8   82[BANK0 ] unsigned char [8]
  4476 ;;  string          8   74[BANK0 ] unsigned char [8]
  4477 ;;  string          8   66[BANK0 ] unsigned char [8]
  4478 ;;  message_sent    2  107[BANK0 ] int 
  4479 ;; Return value:  Size  Location     Type
  4480 ;;                  1    wreg      void 
  4481 ;; Registers used:
  4482 ;;		wreg, fsr1l, fsr1h, fsr2l, fsr2h, status,2, status,0, tblptrl, tblptrh, tblptru, prodl, prodh, cstack
  4483 ;; Tracked objects:
  4484 ;;		On entry : 0/0
  4485 ;;		On exit  : 0/0
  4486 ;;		Unchanged: 0/0
  4487 ;; Data sizes:     COMRAM   BANK0   BANK1   BANK2   BANK3   BANK4   BANK5   BANK6   BANK7   BANK8   BANK9  BANK10  BANK1
      +1  BANK12  BANK13  BANK14  BANK15
  4488 ;;      Params:         0       0       0       0       0       0       0       0       0       0       0       0       
      +0       0       0       0       0
  4489 ;;      Locals:         0      43       0       0       0       0       0       0       0       0       0       0       
      +0       0       0       0       0
  4490 ;;      Temps:          0       0       0       0       0       0       0       0       0       0       0       0       
      +0       0       0       0       0
  4491 ;;      Totals:         0      43       0       0       0       0       0       0       0       0       0       0       
      +0       0       0       0       0
  4492 ;;Total ram usage:       43 bytes
  4493 ;; Hardware stack levels used:    1
  4494 ;; Hardware stack levels required when called:   10
  4495 ;; This function calls:
  4496 ;;		_buffer_push
  4497 ;;		_int_to_hex_and_push
  4498 ;;		_write_string_to_output_buffer
  4499 ;; This function is called by:
  4500 ;;		_highPriorityISR
  4501 ;; This function uses a non-reentrant model
  4502 ;;
  4503                           
  4504                           	psect	text16
  4505  002F9C                     __ptext16:
  4506                           	callstack 0
  4507  002F9C                     _set_message:
  4508                           	callstack 16
  4509  002F9C                     
  4510                           ;main.c: 484:     distance -= speed;
  4511  002F9C  0100               	movlb	0	; () banked
  4512  002F9E  51FA               	movf	_speed& (0+255),w,b
  4513  002FA0  5FFC               	subwf	_distance& (0+255),f,b
  4514  002FA2  51FB               	movf	(_speed+1)& (0+255),w,b
  4515  002FA4  5BFD               	subwfb	(_distance+1)& (0+255),f,b
  4516  002FA6                     
  4517                           ; BSR set to: 0
  4518                           ;main.c: 485:     int message_sent = 0;
  4519  002FA6  0E00               	movlw	0
  4520  002FA8  6FCC               	movwf	(set_message@message_sent+1)& (0+255),b
  4521  002FAA  0E00               	movlw	0
  4522  002FAC  6FCB               	movwf	set_message@message_sent& (0+255),b
  4523  002FAE                     
  4524                           ; BSR set to: 0
  4525                           ;main.c: 486:     if(alt_period != 0){
  4526  002FAE  51F8               	movf	_alt_period& (0+255),w,b
  4527  002FB0  11F9               	iorwf	(_alt_period+1)& (0+255),w,b
  4528  002FB2  B4D8               	btfsc	status,2,c
  4529  002FB4  EFDE  F017         	goto	i2u517_41
  4530  002FB8  EFE0  F017         	goto	i2u517_40
  4531  002FBC                     i2u517_41:
  4532  002FBC  EF09  F018         	goto	i2l4462
  4533  002FC0                     i2u517_40:
  4534  002FC0                     
  4535                           ; BSR set to: 0
  4536                           ;main.c: 487:         alt_counter += 100;
  4537  002FC0  0E64               	movlw	100
  4538  002FC2  27F6               	addwf	_alt_counter& (0+255),f,b
  4539  002FC4  0E00               	movlw	0
  4540  002FC6  23F7               	addwfc	(_alt_counter+1)& (0+255),f,b
  4541                           
  4542                           ;main.c: 488:         if(alt_counter == alt_period){
  4543  002FC8  51F8               	movf	_alt_period& (0+255),w,b
  4544  002FCA  19F6               	xorwf	_alt_counter& (0+255),w,b
  4545  002FCC  E107               	bnz	i2u518_41
  4546  002FCE  51F9               	movf	(_alt_period+1)& (0+255),w,b
  4547  002FD0  19F7               	xorwf	(_alt_counter+1)& (0+255),w,b
  4548  002FD2  A4D8               	btfss	status,2,c
  4549  002FD4  EFEE  F017         	goto	i2u518_41
  4550  002FD8  EFF0  F017         	goto	i2u518_40
  4551  002FDC                     i2u518_41:
  4552  002FDC  EF0D  F018         	goto	i2l4466
  4553  002FE0                     i2u518_40:
  4554  002FE0                     
  4555                           ; BSR set to: 0
  4556                           ;main.c: 489:             buffer_push('$', OUTBUF);
  4557  002FE0  0E00               	movlw	0
  4558  002FE2  6E01               	movwf	buffer_push@buf_type^0,c
  4559  002FE4  0E24               	movlw	36
  4560  002FE6  EC36  F024         	call	_buffer_push
  4561  002FEA                     
  4562                           ;main.c: 490:             char start_string[4] = "ALT";
  4563  002FEA  C1DF  F0C7         	movff	set_message@F5184,set_message@start_string
  4564  002FEE  C1E0  F0C8         	movff	set_message@F5184+1,set_message@start_string+1
  4565  002FF2  C1E1  F0C9         	movff	set_message@F5184+2,set_message@start_string+2
  4566  002FF6  C1E2  F0CA         	movff	set_message@F5184+3,set_message@start_string+3
  4567                           
  4568                           ;main.c: 491:             write_string_to_output_buffer(start_string);
  4569  002FFA  0EC7               	movlw	low set_message@start_string
  4570  002FFC  6E03               	movwf	write_string_to_output_buffer@str^0,c
  4571  002FFE  0E00               	movlw	high set_message@start_string
  4572  003000  6E04               	movwf	(write_string_to_output_buffer@str+1)^0,c
  4573  003002  EC08  F027         	call	_write_string_to_output_buffer	;wreg free
  4574  003006                     
  4575                           ;main.c: 492:             GODONE = 1;
  4576  003006  82C2               	bsf	4034,1,c	;volatile
  4577  003008                     
  4578                           ;main.c: 493:             message_sent = 1;
  4579  003008  0E00               	movlw	0
  4580  00300A  0100               	movlb	0	; () banked
  4581  00300C  6FCC               	movwf	(set_message@message_sent+1)& (0+255),b
  4582  00300E  0E01               	movlw	1
  4583  003010  6FCB               	movwf	set_message@message_sent& (0+255),b
  4584  003012                     i2l4462:
  4585                           
  4586                           ; BSR set to: 0
  4587                           ;main.c: 494:             alt_counter = 0;
  4588  003012  0E00               	movlw	0
  4589  003014  6FF7               	movwf	(_alt_counter+1)& (0+255),b
  4590  003016  0E00               	movlw	0
  4591  003018  6FF6               	movwf	_alt_counter& (0+255),b
  4592  00301A                     i2l4466:
  4593                           
  4594                           ; BSR set to: 0
  4595                           ;main.c: 498:     if(!message_sent && rb4_pressed_flag){
  4596  00301A  51CB               	movf	set_message@message_sent& (0+255),w,b
  4597  00301C  11CC               	iorwf	(set_message@message_sent+1)& (0+255),w,b
  4598  00301E  A4D8               	btfss	status,2,c
  4599  003020  EF14  F018         	goto	i2u519_41
  4600  003024  EF16  F018         	goto	i2u519_40
  4601  003028                     i2u519_41:
  4602  003028  EF38  F018         	goto	i2l4480
  4603  00302C                     i2u519_40:
  4604  00302C                     
  4605                           ; BSR set to: 0
  4606  00302C  51EC               	movf	_rb4_pressed_flag& (0+255),w,b
  4607  00302E  11ED               	iorwf	(_rb4_pressed_flag+1)& (0+255),w,b
  4608  003030  B4D8               	btfsc	status,2,c
  4609  003032  EF1D  F018         	goto	i2u520_41
  4610  003036  EF1F  F018         	goto	i2u520_40
  4611  00303A                     i2u520_41:
  4612  00303A  EF38  F018         	goto	i2l4480
  4613  00303E                     i2u520_40:
  4614  00303E                     
  4615                           ; BSR set to: 0
  4616                           ;main.c: 499:         char string[8] = "$PRS04#";
  4617  00303E  EE21  F0CB         	lfsr	2,set_message@F5186
  4618  003042  EE10  F0A2         	lfsr	1,set_message@string
  4619  003046  0E07               	movlw	7
  4620  003048                     i2u521_41:
  4621  003048  CFDB FFE3          	movff	plusw2,plusw1
  4622  00304C  06E8               	decf	wreg,f,c
  4623  00304E  E2FC               	bc	i2u521_41
  4624  003050                     
  4625                           ; BSR set to: 0
  4626                           ;main.c: 500:         write_string_to_output_buffer(string);
  4627  003050  0EA2               	movlw	low set_message@string
  4628  003052  6E03               	movwf	write_string_to_output_buffer@str^0,c
  4629  003054  0E00               	movlw	high set_message@string
  4630  003056  6E04               	movwf	(write_string_to_output_buffer@str+1)^0,c
  4631  003058  EC08  F027         	call	_write_string_to_output_buffer	;wreg free
  4632  00305C                     
  4633                           ;main.c: 501:         message_sent = 1;
  4634  00305C  0E00               	movlw	0
  4635  00305E  0100               	movlb	0	; () banked
  4636  003060  6FCC               	movwf	(set_message@message_sent+1)& (0+255),b
  4637  003062  0E01               	movlw	1
  4638  003064  6FCB               	movwf	set_message@message_sent& (0+255),b
  4639  003066                     
  4640                           ; BSR set to: 0
  4641                           ;main.c: 502:         TXSTA1bits.TXEN = 1;
  4642  003066  8AAC               	bsf	172,5,c	;volatile
  4643  003068                     
  4644                           ; BSR set to: 0
  4645                           ;main.c: 503:         rb4_pressed_flag = 0;
  4646  003068  0E00               	movlw	0
  4647  00306A  6FED               	movwf	(_rb4_pressed_flag+1)& (0+255),b
  4648  00306C  0E00               	movlw	0
  4649  00306E  6FEC               	movwf	_rb4_pressed_flag& (0+255),b
  4650  003070                     i2l4480:
  4651                           
  4652                           ; BSR set to: 0
  4653                           ;main.c: 505:     if(!message_sent && rb5_pressed_flag){
  4654  003070  51CB               	movf	set_message@message_sent& (0+255),w,b
  4655  003072  11CC               	iorwf	(set_message@message_sent+1)& (0+255),w,b
  4656  003074  A4D8               	btfss	status,2,c
  4657  003076  EF3F  F018         	goto	i2u522_41
  4658  00307A  EF41  F018         	goto	i2u522_40
  4659  00307E                     i2u522_41:
  4660  00307E  EF63  F018         	goto	i2l4494
  4661  003082                     i2u522_40:
  4662  003082                     
  4663                           ; BSR set to: 0
  4664  003082  51EA               	movf	_rb5_pressed_flag& (0+255),w,b
  4665  003084  11EB               	iorwf	(_rb5_pressed_flag+1)& (0+255),w,b
  4666  003086  B4D8               	btfsc	status,2,c
  4667  003088  EF48  F018         	goto	i2u523_41
  4668  00308C  EF4A  F018         	goto	i2u523_40
  4669  003090                     i2u523_41:
  4670  003090  EF63  F018         	goto	i2l4494
  4671  003094                     i2u523_40:
  4672  003094                     
  4673                           ; BSR set to: 0
  4674                           ;main.c: 506:         char string[8] = "$PRS05#";
  4675  003094  EE21  F0C3         	lfsr	2,set_message@F5188
  4676  003098  EE10  F0AA         	lfsr	1,set_message@string_1139
  4677  00309C  0E07               	movlw	7
  4678  00309E                     i2u524_41:
  4679  00309E  CFDB FFE3          	movff	plusw2,plusw1
  4680  0030A2  06E8               	decf	wreg,f,c
  4681  0030A4  E2FC               	bc	i2u524_41
  4682  0030A6                     
  4683                           ; BSR set to: 0
  4684                           ;main.c: 507:         write_string_to_output_buffer(string);
  4685  0030A6  0EAA               	movlw	low set_message@string_1139
  4686  0030A8  6E03               	movwf	write_string_to_output_buffer@str^0,c
  4687  0030AA  0E00               	movlw	high set_message@string_1139
  4688  0030AC  6E04               	movwf	(write_string_to_output_buffer@str+1)^0,c
  4689  0030AE  EC08  F027         	call	_write_string_to_output_buffer	;wreg free
  4690  0030B2                     
  4691                           ;main.c: 508:         message_sent = 1;
  4692  0030B2  0E00               	movlw	0
  4693  0030B4  0100               	movlb	0	; () banked
  4694  0030B6  6FCC               	movwf	(set_message@message_sent+1)& (0+255),b
  4695  0030B8  0E01               	movlw	1
  4696  0030BA  6FCB               	movwf	set_message@message_sent& (0+255),b
  4697  0030BC                     
  4698                           ; BSR set to: 0
  4699                           ;main.c: 509:         TXSTA1bits.TXEN = 1;
  4700  0030BC  8AAC               	bsf	172,5,c	;volatile
  4701  0030BE                     
  4702                           ; BSR set to: 0
  4703                           ;main.c: 510:         rb5_pressed_flag = 0;
  4704  0030BE  0E00               	movlw	0
  4705  0030C0  6FEB               	movwf	(_rb5_pressed_flag+1)& (0+255),b
  4706  0030C2  0E00               	movlw	0
  4707  0030C4  6FEA               	movwf	_rb5_pressed_flag& (0+255),b
  4708  0030C6                     i2l4494:
  4709                           
  4710                           ; BSR set to: 0
  4711                           ;main.c: 512:     if(!message_sent && rb6_pressed_flag){
  4712  0030C6  51CB               	movf	set_message@message_sent& (0+255),w,b
  4713  0030C8  11CC               	iorwf	(set_message@message_sent+1)& (0+255),w,b
  4714  0030CA  A4D8               	btfss	status,2,c
  4715  0030CC  EF6A  F018         	goto	i2u525_41
  4716  0030D0  EF6C  F018         	goto	i2u525_40
  4717  0030D4                     i2u525_41:
  4718  0030D4  EF8E  F018         	goto	i2l4508
  4719  0030D8                     i2u525_40:
  4720  0030D8                     
  4721                           ; BSR set to: 0
  4722  0030D8  51E8               	movf	_rb6_pressed_flag& (0+255),w,b
  4723  0030DA  11E9               	iorwf	(_rb6_pressed_flag+1)& (0+255),w,b
  4724  0030DC  B4D8               	btfsc	status,2,c
  4725  0030DE  EF73  F018         	goto	i2u526_41
  4726  0030E2  EF75  F018         	goto	i2u526_40
  4727  0030E6                     i2u526_41:
  4728  0030E6  EF8E  F018         	goto	i2l4508
  4729  0030EA                     i2u526_40:
  4730  0030EA                     
  4731                           ; BSR set to: 0
  4732                           ;main.c: 513:         char string[8] = "$PRS06#";
  4733  0030EA  EE21  F0BB         	lfsr	2,set_message@F5190
  4734  0030EE  EE10  F0B2         	lfsr	1,set_message@string_1141
  4735  0030F2  0E07               	movlw	7
  4736  0030F4                     i2u527_41:
  4737  0030F4  CFDB FFE3          	movff	plusw2,plusw1
  4738  0030F8  06E8               	decf	wreg,f,c
  4739  0030FA  E2FC               	bc	i2u527_41
  4740  0030FC                     
  4741                           ; BSR set to: 0
  4742                           ;main.c: 514:         write_string_to_output_buffer(string);
  4743  0030FC  0EB2               	movlw	low set_message@string_1141
  4744  0030FE  6E03               	movwf	write_string_to_output_buffer@str^0,c
  4745  003100  0E00               	movlw	high set_message@string_1141
  4746  003102  6E04               	movwf	(write_string_to_output_buffer@str+1)^0,c
  4747  003104  EC08  F027         	call	_write_string_to_output_buffer	;wreg free
  4748  003108                     
  4749                           ;main.c: 515:         message_sent = 1;
  4750  003108  0E00               	movlw	0
  4751  00310A  0100               	movlb	0	; () banked
  4752  00310C  6FCC               	movwf	(set_message@message_sent+1)& (0+255),b
  4753  00310E  0E01               	movlw	1
  4754  003110  6FCB               	movwf	set_message@message_sent& (0+255),b
  4755  003112                     
  4756                           ; BSR set to: 0
  4757                           ;main.c: 516:         TXSTA1bits.TXEN = 1;
  4758  003112  8AAC               	bsf	172,5,c	;volatile
  4759  003114                     
  4760                           ; BSR set to: 0
  4761                           ;main.c: 517:         rb6_pressed_flag = 0;
  4762  003114  0E00               	movlw	0
  4763  003116  6FE9               	movwf	(_rb6_pressed_flag+1)& (0+255),b
  4764  003118  0E00               	movlw	0
  4765  00311A  6FE8               	movwf	_rb6_pressed_flag& (0+255),b
  4766  00311C                     i2l4508:
  4767                           
  4768                           ; BSR set to: 0
  4769                           ;main.c: 519:     if(!message_sent && rb7_pressed_flag){
  4770  00311C  51CB               	movf	set_message@message_sent& (0+255),w,b
  4771  00311E  11CC               	iorwf	(set_message@message_sent+1)& (0+255),w,b
  4772  003120  A4D8               	btfss	status,2,c
  4773  003122  EF95  F018         	goto	i2u528_41
  4774  003126  EF97  F018         	goto	i2u528_40
  4775  00312A                     i2u528_41:
  4776  00312A  EFB9  F018         	goto	i2l4522
  4777  00312E                     i2u528_40:
  4778  00312E                     
  4779                           ; BSR set to: 0
  4780  00312E  51E6               	movf	_rb7_pressed_flag& (0+255),w,b
  4781  003130  11E7               	iorwf	(_rb7_pressed_flag+1)& (0+255),w,b
  4782  003132  B4D8               	btfsc	status,2,c
  4783  003134  EF9E  F018         	goto	i2u529_41
  4784  003138  EFA0  F018         	goto	i2u529_40
  4785  00313C                     i2u529_41:
  4786  00313C  EFB9  F018         	goto	i2l4522
  4787  003140                     i2u529_40:
  4788  003140                     
  4789                           ; BSR set to: 0
  4790                           ;main.c: 520:         char string[8] = "$PRS07#";
  4791  003140  EE21  F0B3         	lfsr	2,set_message@F5192
  4792  003144  EE10  F0BA         	lfsr	1,set_message@string_1143
  4793  003148  0E07               	movlw	7
  4794  00314A                     i2u530_41:
  4795  00314A  CFDB FFE3          	movff	plusw2,plusw1
  4796  00314E  06E8               	decf	wreg,f,c
  4797  003150  E2FC               	bc	i2u530_41
  4798  003152                     
  4799                           ; BSR set to: 0
  4800                           ;main.c: 521:         write_string_to_output_buffer(string);
  4801  003152  0EBA               	movlw	low set_message@string_1143
  4802  003154  6E03               	movwf	write_string_to_output_buffer@str^0,c
  4803  003156  0E00               	movlw	high set_message@string_1143
  4804  003158  6E04               	movwf	(write_string_to_output_buffer@str+1)^0,c
  4805  00315A  EC08  F027         	call	_write_string_to_output_buffer	;wreg free
  4806  00315E                     
  4807                           ;main.c: 522:         message_sent = 1;
  4808  00315E  0E00               	movlw	0
  4809  003160  0100               	movlb	0	; () banked
  4810  003162  6FCC               	movwf	(set_message@message_sent+1)& (0+255),b
  4811  003164  0E01               	movlw	1
  4812  003166  6FCB               	movwf	set_message@message_sent& (0+255),b
  4813  003168                     
  4814                           ; BSR set to: 0
  4815                           ;main.c: 523:         TXSTA1bits.TXEN = 1;
  4816  003168  8AAC               	bsf	172,5,c	;volatile
  4817  00316A                     
  4818                           ; BSR set to: 0
  4819                           ;main.c: 524:         rb7_pressed_flag = 0;
  4820  00316A  0E00               	movlw	0
  4821  00316C  6FE7               	movwf	(_rb7_pressed_flag+1)& (0+255),b
  4822  00316E  0E00               	movlw	0
  4823  003170  6FE6               	movwf	_rb7_pressed_flag& (0+255),b
  4824  003172                     i2l4522:
  4825                           
  4826                           ; BSR set to: 0
  4827                           ;main.c: 526:     if(!message_sent){
  4828  003172  51CB               	movf	set_message@message_sent& (0+255),w,b
  4829  003174  11CC               	iorwf	(set_message@message_sent+1)& (0+255),w,b
  4830  003176  A4D8               	btfss	status,2,c
  4831  003178  EFC0  F018         	goto	i2u531_41
  4832  00317C  EFC2  F018         	goto	i2u531_40
  4833  003180                     i2u531_41:
  4834  003180  EFDD  F018         	goto	i2l288
  4835  003184                     i2u531_40:
  4836  003184                     
  4837                           ; BSR set to: 0
  4838                           ;main.c: 527:         char string[5] = "$DST";
  4839  003184  EE21  F0DA         	lfsr	2,set_message@F5194
  4840  003188  EE10  F0C2         	lfsr	1,set_message@string_1145
  4841  00318C  0E04               	movlw	4
  4842  00318E                     i2u532_41:
  4843  00318E  CFDB FFE3          	movff	plusw2,plusw1
  4844  003192  06E8               	decf	wreg,f,c
  4845  003194  E2FC               	bc	i2u532_41
  4846  003196                     
  4847                           ; BSR set to: 0
  4848                           ;main.c: 528:         write_string_to_output_buffer(string);
  4849  003196  0EC2               	movlw	low set_message@string_1145
  4850  003198  6E03               	movwf	write_string_to_output_buffer@str^0,c
  4851  00319A  0E00               	movlw	high set_message@string_1145
  4852  00319C  6E04               	movwf	(write_string_to_output_buffer@str+1)^0,c
  4853  00319E  EC08  F027         	call	_write_string_to_output_buffer	;wreg free
  4854  0031A2                     
  4855                           ;main.c: 529:         int_to_hex_and_push(distance);
  4856  0031A2  C0FC  F095         	movff	_distance,int_to_hex_and_push@num
  4857  0031A6  C0FD  F096         	movff	_distance+1,int_to_hex_and_push@num+1
  4858  0031AA  ECB3  F024         	call	_int_to_hex_and_push	;wreg free
  4859  0031AE                     
  4860                           ;main.c: 530:         buffer_push('#', OUTBUF);
  4861  0031AE  0E00               	movlw	0
  4862  0031B0  6E01               	movwf	buffer_push@buf_type^0,c
  4863  0031B2  0E23               	movlw	35
  4864  0031B4  EC36  F024         	call	_buffer_push
  4865  0031B8                     
  4866                           ;main.c: 532:         TXSTA1bits.TXEN = 1;
  4867  0031B8  8AAC               	bsf	172,5,c	;volatile
  4868  0031BA                     i2l288:
  4869  0031BA  0012               	return		;funcret
  4870  0031BC                     __end_of_set_message:
  4871                           	callstack 0
  4872                           
  4873 ;; *************** function _write_string_to_output_buffer *****************
  4874 ;; Defined at:
  4875 ;;		line 475 in file "main.c"
  4876 ;; Parameters:    Size  Location     Type
  4877 ;;  str             2    2[COMRAM] PTR unsigned char 
  4878 ;;		 -> set_message@string_1145(5), set_message@string_1143(8), set_message@string_1141(8), set_message@string_1139(8), 
  4879 ;;		 -> set_message@string(8), set_message@start_string(4), 
  4880 ;; Auto vars:     Size  Location     Type
  4881 ;;		None
  4882 ;; Return value:  Size  Location     Type
  4883 ;;                  1    wreg      void 
  4884 ;; Registers used:
  4885 ;;		wreg, fsr2l, fsr2h, status,2, status,0, cstack
  4886 ;; Tracked objects:
  4887 ;;		On entry : 0/0
  4888 ;;		On exit  : 0/0
  4889 ;;		Unchanged: 0/0
  4890 ;; Data sizes:     COMRAM   BANK0   BANK1   BANK2   BANK3   BANK4   BANK5   BANK6   BANK7   BANK8   BANK9  BANK10  BANK1
      +1  BANK12  BANK13  BANK14  BANK15
  4891 ;;      Params:         2       0       0       0       0       0       0       0       0       0       0       0       
      +0       0       0       0       0
  4892 ;;      Locals:         0       0       0       0       0       0       0       0       0       0       0       0       
      +0       0       0       0       0
  4893 ;;      Temps:          0       0       0       0       0       0       0       0       0       0       0       0       
      +0       0       0       0       0
  4894 ;;      Totals:         2       0       0       0       0       0       0       0       0       0       0       0       
      +0       0       0       0       0
  4895 ;;Total ram usage:        2 bytes
  4896 ;; Hardware stack levels used:    1
  4897 ;; Hardware stack levels required when called:    1
  4898 ;; This function calls:
  4899 ;;		_buffer_push
  4900 ;; This function is called by:
  4901 ;;		_set_message
  4902 ;; This function uses a non-reentrant model
  4903 ;;
  4904                           
  4905                           	psect	text17
  4906  004E10                     __ptext17:
  4907                           	callstack 0
  4908  004E10                     _write_string_to_output_buffer:
  4909                           	callstack 24
  4910  004E10                     
  4911                           ;main.c: 476:     while (*str) {
  4912  004E10  EF15  F027         	goto	i2l4224
  4913  004E14                     i2l4220:
  4914                           
  4915                           ;main.c: 477:         buffer_push(*str, OUTBUF);
  4916  004E14  0E00               	movlw	0
  4917  004E16  6E01               	movwf	buffer_push@buf_type^0,c
  4918  004E18  C003  FFD9         	movff	write_string_to_output_buffer@str,fsr2l
  4919  004E1C  C004  FFDA         	movff	write_string_to_output_buffer@str+1,fsr2h
  4920  004E20  50DF               	movf	indf2,w,c
  4921  004E22  EC36  F024         	call	_buffer_push
  4922  004E26                     
  4923                           ;main.c: 478:         str++;
  4924  004E26  4A03               	infsnz	write_string_to_output_buffer@str^0,f,c
  4925  004E28  2A04               	incf	(write_string_to_output_buffer@str+1)^0,f,c
  4926  004E2A                     i2l4224:
  4927                           
  4928                           ;main.c: 476:     while (*str) {
  4929  004E2A  C003  FFD9         	movff	write_string_to_output_buffer@str,fsr2l
  4930  004E2E  C004  FFDA         	movff	write_string_to_output_buffer@str+1,fsr2h
  4931  004E32  50DF               	movf	indf2,w,c
  4932  004E34  A4D8               	btfss	status,2,c
  4933  004E36  EF1F  F027         	goto	i2u489_41
  4934  004E3A  EF21  F027         	goto	i2u489_40
  4935  004E3E                     i2u489_41:
  4936  004E3E  EF0A  F027         	goto	i2l4220
  4937  004E42                     i2u489_40:
  4938  004E42  0012               	return		;funcret
  4939  004E44                     __end_of_write_string_to_output_buffer:
  4940                           	callstack 0
  4941                           
  4942 ;; *************** function _int_to_hex_and_push *****************
  4943 ;; Defined at:
  4944 ;;		line 466 in file "main.c"
  4945 ;; Parameters:    Size  Location     Type
  4946 ;;  num             2   53[BANK0 ] int 
  4947 ;; Auto vars:     Size  Location     Type
  4948 ;;  hexStr          9   55[BANK0 ] unsigned char [9]
  4949 ;;  ptr             2   64[BANK0 ] PTR unsigned char 
  4950 ;;		 -> int_to_hex_and_push@hexStr(9), 
  4951 ;; Return value:  Size  Location     Type
  4952 ;;                  1    wreg      void 
  4953 ;; Registers used:
  4954 ;;		wreg, fsr1l, fsr1h, fsr2l, fsr2h, status,2, status,0, tblptrl, tblptrh, tblptru, prodl, prodh, cstack
  4955 ;; Tracked objects:
  4956 ;;		On entry : 0/0
  4957 ;;		On exit  : 0/0
  4958 ;;		Unchanged: 0/0
  4959 ;; Data sizes:     COMRAM   BANK0   BANK1   BANK2   BANK3   BANK4   BANK5   BANK6   BANK7   BANK8   BANK9  BANK10  BANK1
      +1  BANK12  BANK13  BANK14  BANK15
  4960 ;;      Params:         0       2       0       0       0       0       0       0       0       0       0       0       
      +0       0       0       0       0
  4961 ;;      Locals:         0      11       0       0       0       0       0       0       0       0       0       0       
      +0       0       0       0       0
  4962 ;;      Temps:          0       0       0       0       0       0       0       0       0       0       0       0       
      +0       0       0       0       0
  4963 ;;      Totals:         0      13       0       0       0       0       0       0       0       0       0       0       
      +0       0       0       0       0
  4964 ;;Total ram usage:       13 bytes
  4965 ;; Hardware stack levels used:    1
  4966 ;; Hardware stack levels required when called:    9
  4967 ;; This function calls:
  4968 ;;		_buffer_push
  4969 ;;		_snprintf
  4970 ;; This function is called by:
  4971 ;;		_set_message
  4972 ;;		_highPriorityISR
  4973 ;; This function uses a non-reentrant model
  4974 ;;
  4975                           
  4976                           	psect	text18
  4977  004966                     __ptext18:
  4978                           	callstack 0
  4979  004966                     _int_to_hex_and_push:
  4980                           	callstack 16
  4981  004966                     
  4982                           ;main.c: 467:     char hexStr[9];;main.c: 468:     snprintf(hexStr, sizeof(hexStr), "%04
      +                          X", num);
  4983  004966  0E97               	movlw	low int_to_hex_and_push@hexStr
  4984  004968  0100               	movlb	0	; () banked
  4985  00496A  6F8D               	movwf	snprintf@s& (0+255),b
  4986  00496C  0E00               	movlw	high int_to_hex_and_push@hexStr
  4987  00496E  6F8E               	movwf	(snprintf@s+1)& (0+255),b
  4988  004970  0E00               	movlw	0
  4989  004972  6F90               	movwf	(snprintf@n+1)& (0+255),b
  4990  004974  0E09               	movlw	9
  4991  004976  6F8F               	movwf	snprintf@n& (0+255),b
  4992  004978  0E01               	movlw	low STR_7
  4993  00497A  6F91               	movwf	snprintf@fmt& (0+255),b
  4994  00497C  0E10               	movlw	high STR_7
  4995  00497E  6F92               	movwf	(snprintf@fmt+1)& (0+255),b
  4996  004980  C095  F093         	movff	int_to_hex_and_push@num,?_snprintf+6
  4997  004984  C096  F094         	movff	int_to_hex_and_push@num+1,?_snprintf+7
  4998  004988  EC3A  F027         	call	_snprintf	;wreg free
  4999  00498C                     
  5000                           ;main.c: 469:     char *ptr = hexStr;
  5001  00498C  0E97               	movlw	low int_to_hex_and_push@hexStr
  5002  00498E  0100               	movlb	0	; () banked
  5003  004990  6FA0               	movwf	int_to_hex_and_push@ptr& (0+255),b
  5004  004992  0E00               	movlw	high int_to_hex_and_push@hexStr
  5005  004994  6FA1               	movwf	(int_to_hex_and_push@ptr+1)& (0+255),b
  5006                           
  5007                           ;main.c: 470:     while (*ptr) {
  5008  004996  EFD9  F024         	goto	i2l4216
  5009  00499A                     i2l4212:
  5010                           
  5011                           ; BSR set to: 0
  5012                           ;main.c: 471:         buffer_push(*ptr++, OUTBUF);
  5013  00499A  0E00               	movlw	0
  5014  00499C  6E01               	movwf	buffer_push@buf_type^0,c
  5015  00499E  C0A0  FFD9         	movff	int_to_hex_and_push@ptr,fsr2l
  5016  0049A2  C0A1  FFDA         	movff	int_to_hex_and_push@ptr+1,fsr2h
  5017  0049A6  50DF               	movf	indf2,w,c
  5018  0049A8  EC36  F024         	call	_buffer_push
  5019  0049AC  0100               	movlb	0	; () banked
  5020  0049AE  4BA0               	infsnz	int_to_hex_and_push@ptr& (0+255),f,b
  5021  0049B0  2BA1               	incf	(int_to_hex_and_push@ptr+1)& (0+255),f,b
  5022  0049B2                     i2l4216:
  5023                           
  5024                           ; BSR set to: 0
  5025                           ;main.c: 470:     while (*ptr) {
  5026  0049B2  C0A0  FFD9         	movff	int_to_hex_and_push@ptr,fsr2l
  5027  0049B6  C0A1  FFDA         	movff	int_to_hex_and_push@ptr+1,fsr2h
  5028  0049BA  50DF               	movf	indf2,w,c
  5029  0049BC  A4D8               	btfss	status,2,c
  5030  0049BE  EFE3  F024         	goto	i2u488_41
  5031  0049C2  EFE5  F024         	goto	i2u488_40
  5032  0049C6                     i2u488_41:
  5033  0049C6  EFCD  F024         	goto	i2l4212
  5034  0049CA                     i2u488_40:
  5035  0049CA                     
  5036                           ; BSR set to: 0
  5037  0049CA  0012               	return		;funcret
  5038  0049CC                     __end_of_int_to_hex_and_push:
  5039                           	callstack 0
  5040                           
  5041 ;; *************** function _snprintf *****************
  5042 ;; Defined at:
  5043 ;;		line 4 in file "/opt/microchip/xc8/v2.30/pic/sources/c99/common/snprintf.c"
  5044 ;; Parameters:    Size  Location     Type
  5045 ;;  s               2   45[BANK0 ] PTR unsigned char 
  5046 ;;		 -> int_to_hex_and_push@hexStr(9), 
  5047 ;;  n               2   47[BANK0 ] unsigned int 
  5048 ;;  fmt             2   49[BANK0 ] PTR const unsigned char 
  5049 ;;		 -> STR_7(5), 
  5050 ;; Auto vars:     Size  Location     Type
  5051 ;;  ap              2   91[COMRAM] PTR void [1]
  5052 ;;		 -> ?_snprintf(2), 
  5053 ;;  ret             2    0        int 
  5054 ;; Return value:  Size  Location     Type
  5055 ;;                  2   45[BANK0 ] int 
  5056 ;; Registers used:
  5057 ;;		wreg, fsr1l, fsr1h, fsr2l, fsr2h, status,2, status,0, tblptrl, tblptrh, tblptru, prodl, prodh, cstack
  5058 ;; Tracked objects:
  5059 ;;		On entry : 0/0
  5060 ;;		On exit  : 0/0
  5061 ;;		Unchanged: 0/0
  5062 ;; Data sizes:     COMRAM   BANK0   BANK1   BANK2   BANK3   BANK4   BANK5   BANK6   BANK7   BANK8   BANK9  BANK10  BANK1
      +1  BANK12  BANK13  BANK14  BANK15
  5063 ;;      Params:         0       8       0       0       0       0       0       0       0       0       0       0       
      +0       0       0       0       0
  5064 ;;      Locals:         4       0       0       0       0       0       0       0       0       0       0       0       
      +0       0       0       0       0
  5065 ;;      Temps:          0       0       0       0       0       0       0       0       0       0       0       0       
      +0       0       0       0       0
  5066 ;;      Totals:         4       8       0       0       0       0       0       0       0       0       0       0       
      +0       0       0       0       0
  5067 ;;Total ram usage:       12 bytes
  5068 ;; Hardware stack levels used:    1
  5069 ;; Hardware stack levels required when called:    8
  5070 ;; This function calls:
  5071 ;;		_vsnprintf
  5072 ;; This function is called by:
  5073 ;;		_int_to_hex_and_push
  5074 ;; This function uses a non-reentrant model
  5075 ;;
  5076                           
  5077                           	psect	text19
  5078  004E74                     __ptext19:
  5079                           	callstack 0
  5080  004E74                     _snprintf:
  5081                           	callstack 16
  5082  004E74  0E93               	movlw	low (?_snprintf+6)
  5083  004E76  6E5C               	movwf	snprintf@ap^0,c
  5084  004E78  0E00               	movlw	high (?_snprintf+6)
  5085  004E7A  6E5D               	movwf	(snprintf@ap+1)^0,c
  5086  004E7C  C08D  F07B         	movff	snprintf@s,vsnprintf@s
  5087  004E80  C08E  F07C         	movff	snprintf@s+1,vsnprintf@s+1
  5088  004E84  C08F  F07D         	movff	snprintf@n,vsnprintf@n
  5089  004E88  C090  F07E         	movff	snprintf@n+1,vsnprintf@n+1
  5090  004E8C  C091  F07F         	movff	snprintf@fmt,vsnprintf@fmt
  5091  004E90  C092  F080         	movff	snprintf@fmt+1,vsnprintf@fmt+1
  5092  004E94  0E5C               	movlw	low snprintf@ap
  5093  004E96  0100               	movlb	0	; () banked
  5094  004E98  6F81               	movwf	vsnprintf@ap& (0+255),b
  5095  004E9A  0E00               	movlw	high snprintf@ap
  5096  004E9C  6F82               	movwf	(vsnprintf@ap+1)& (0+255),b
  5097  004E9E  ECE3  F01D         	call	_vsnprintf	;wreg free
  5098  004EA2  0012               	return		;funcret
  5099  004EA4                     __end_of_snprintf:
  5100                           	callstack 0
  5101                           
  5102 ;; *************** function _vsnprintf *****************
  5103 ;; Defined at:
  5104 ;;		line 11 in file "/opt/microchip/xc8/v2.30/pic/sources/c99/common/nf_vsnprintf.c"
  5105 ;; Parameters:    Size  Location     Type
  5106 ;;  s               2   27[BANK0 ] PTR unsigned char 
  5107 ;;		 -> int_to_hex_and_push@hexStr(9), 
  5108 ;;  n               2   29[BANK0 ] unsigned int 
  5109 ;;  fmt             2   31[BANK0 ] PTR const unsigned char 
  5110 ;;		 -> STR_7(5), 
  5111 ;;  ap              2   33[BANK0 ] PTR PTR void 
  5112 ;;		 -> snprintf@ap(2), 
  5113 ;; Auto vars:     Size  Location     Type
  5114 ;;  f               6   39[BANK0 ] struct _IO_FILE
  5115 ;;  cnt             2   37[BANK0 ] int 
  5116 ;; Return value:  Size  Location     Type
  5117 ;;                  2   27[BANK0 ] int 
  5118 ;; Registers used:
  5119 ;;		wreg, fsr1l, fsr1h, fsr2l, fsr2h, status,2, status,0, tblptrl, tblptrh, tblptru, prodl, prodh, cstack
  5120 ;; Tracked objects:
  5121 ;;		On entry : 0/0
  5122 ;;		On exit  : 0/0
  5123 ;;		Unchanged: 0/0
  5124 ;; Data sizes:     COMRAM   BANK0   BANK1   BANK2   BANK3   BANK4   BANK5   BANK6   BANK7   BANK8   BANK9  BANK10  BANK1
      +1  BANK12  BANK13  BANK14  BANK15
  5125 ;;      Params:         0       8       0       0       0       0       0       0       0       0       0       0       
      +0       0       0       0       0
  5126 ;;      Locals:         0      10       0       0       0       0       0       0       0       0       0       0       
      +0       0       0       0       0
  5127 ;;      Temps:          5       0       0       0       0       0       0       0       0       0       0       0       
      +0       0       0       0       0
  5128 ;;      Totals:         5      18       0       0       0       0       0       0       0       0       0       0       
      +0       0       0       0       0
  5129 ;;Total ram usage:       23 bytes
  5130 ;; Hardware stack levels used:    1
  5131 ;; Hardware stack levels required when called:    7
  5132 ;; This function calls:
  5133 ;;		_vfprintf
  5134 ;; This function is called by:
  5135 ;;		_snprintf
  5136 ;; This function uses a non-reentrant model
  5137 ;;
  5138                           
  5139                           	psect	text20
  5140  003BC6                     __ptext20:
  5141                           	callstack 0
  5142  003BC6                     _vsnprintf:
  5143                           	callstack 16
  5144  003BC6  0E80               	movlw	128
  5145  003BC8  0100               	movlb	0	; () banked
  5146  003BCA  5D7E               	subwf	(vsnprintf@n+1)& (0+255),w,b
  5147  003BCC  A0D8               	btfss	status,0,c
  5148  003BCE  EFEB  F01D         	goto	i2u452_41
  5149  003BD2  EFED  F01D         	goto	i2u452_40
  5150  003BD6                     i2u452_41:
  5151  003BD6  EFF7  F01D         	goto	i2l3990
  5152  003BDA                     i2u452_40:
  5153  003BDA                     
  5154                           ; BSR set to: 0
  5155  003BDA  0E00               	movlw	0
  5156  003BDC  0101               	movlb	1	; () banked
  5157  003BDE  6F85               	movwf	(_errno+1)& (0+255),b
  5158  003BE0  0E4B               	movlw	75
  5159  003BE2  6F84               	movwf	_errno& (0+255),b
  5160  003BE4                     
  5161                           ; BSR set to: 1
  5162  003BE4  0100               	movlb	0	; () banked
  5163  003BE6  697B               	setf	?_vsnprintf& (0+255),b
  5164  003BE8  697C               	setf	(?_vsnprintf+1)& (0+255),b
  5165  003BEA  EF70  F01E         	goto	i2l1018
  5166  003BEE                     i2l3990:
  5167                           
  5168                           ; BSR set to: 0
  5169  003BEE  C07B  F087         	movff	vsnprintf@s,vsnprintf@f
  5170  003BF2  C07C  F088         	movff	vsnprintf@s+1,vsnprintf@f+1
  5171  003BF6  517E               	movf	(vsnprintf@n+1)& (0+255),w,b
  5172  003BF8  E109               	bnz	i2u453_40
  5173  003BFA  0E02               	movlw	2
  5174  003BFC  5D7D               	subwf	vsnprintf@n& (0+255),w,b
  5175  003BFE  A0D8               	btfss	status,0,c
  5176  003C00  EF04  F01E         	goto	i2u453_41
  5177  003C04  EF06  F01E         	goto	i2u453_40
  5178  003C08                     i2u453_41:
  5179  003C08  EF12  F01E         	goto	i2l3996
  5180  003C0C                     i2u453_40:
  5181  003C0C                     
  5182                           ; BSR set to: 0
  5183  003C0C  0EFF               	movlw	255
  5184  003C0E  257D               	addwf	vsnprintf@n& (0+255),w,b
  5185  003C10  6F8B               	movwf	(vsnprintf@f+4)& (0+255),b
  5186  003C12  0EFF               	movlw	255
  5187  003C14  217E               	addwfc	(vsnprintf@n+1)& (0+255),w,b
  5188  003C16  6F8C               	movwf	(vsnprintf@f+5)& (0+255),b
  5189  003C18                     
  5190                           ; BSR set to: 0
  5191  003C18  0E00               	movlw	0
  5192  003C1A  6F8A               	movwf	(vsnprintf@f+3)& (0+255),b
  5193  003C1C  0E00               	movlw	0
  5194  003C1E  6F89               	movwf	(vsnprintf@f+2)& (0+255),b
  5195  003C20  EF1A  F01E         	goto	i2l3998
  5196  003C24                     i2l3996:
  5197                           
  5198                           ; BSR set to: 0
  5199  003C24  0E00               	movlw	0
  5200  003C26  6F8C               	movwf	(vsnprintf@f+5)& (0+255),b
  5201  003C28  0E01               	movlw	1
  5202  003C2A  6F8B               	movwf	(vsnprintf@f+4)& (0+255),b
  5203  003C2C  0E00               	movlw	0
  5204  003C2E  6F8A               	movwf	(vsnprintf@f+3)& (0+255),b
  5205  003C30  0E01               	movlw	1
  5206  003C32  6F89               	movwf	(vsnprintf@f+2)& (0+255),b
  5207  003C34                     i2l3998:
  5208                           
  5209                           ; BSR set to: 0
  5210  003C34  0E87               	movlw	low vsnprintf@f
  5211  003C36  6E4D               	movwf	vfprintf@fp^0,c
  5212  003C38  0E00               	movlw	high vsnprintf@f
  5213  003C3A  6E4E               	movwf	(vfprintf@fp+1)^0,c
  5214  003C3C  C07F  F04F         	movff	vsnprintf@fmt,vfprintf@fmt
  5215  003C40  C080  F050         	movff	vsnprintf@fmt+1,vfprintf@fmt+1
  5216  003C44  C081  F051         	movff	vsnprintf@ap,vfprintf@ap
  5217  003C48  C082  F052         	movff	vsnprintf@ap+1,vfprintf@ap+1
  5218  003C4C  ECE6  F024         	call	_vfprintf	;wreg free
  5219  003C50  C04D  F085         	movff	?_vfprintf,vsnprintf@cnt
  5220  003C54  C04E  F086         	movff	?_vfprintf+1,vsnprintf@cnt+1
  5221  003C58  0100               	movlb	0	; () banked
  5222  003C5A  517D               	movf	vsnprintf@n& (0+255),w,b
  5223  003C5C  117E               	iorwf	(vsnprintf@n+1)& (0+255),w,b
  5224  003C5E  B4D8               	btfsc	status,2,c
  5225  003C60  EF34  F01E         	goto	i2u454_41
  5226  003C64  EF36  F01E         	goto	i2u454_40
  5227  003C68                     i2u454_41:
  5228  003C68  EF6C  F01E         	goto	i2l4010
  5229  003C6C                     i2u454_40:
  5230  003C6C                     
  5231                           ; BSR set to: 0
  5232  003C6C  BF86               	btfsc	(vsnprintf@cnt+1)& (0+255),7,b
  5233  003C6E  EF3B  F01E         	goto	i2u455_41
  5234  003C72  EF3D  F01E         	goto	i2u455_40
  5235  003C76                     i2u455_41:
  5236  003C76  EF6C  F01E         	goto	i2l4010
  5237  003C7A                     i2u455_40:
  5238  003C7A                     
  5239                           ; BSR set to: 0
  5240  003C7A  0EFF               	movlw	255
  5241  003C7C  6E55               	movwf	??_vsnprintf^0,c
  5242  003C7E  0EFF               	movlw	255
  5243  003C80  6E56               	movwf	(??_vsnprintf+1)^0,c
  5244  003C82  C07D  F057         	movff	vsnprintf@n,??_vsnprintf+2
  5245  003C86  C07E  F058         	movff	vsnprintf@n+1,??_vsnprintf+3
  5246  003C8A  5055               	movf	??_vsnprintf^0,w,c
  5247  003C8C  2657               	addwf	(??_vsnprintf+2)^0,f,c
  5248  003C8E  5056               	movf	(??_vsnprintf+1)^0,w,c
  5249  003C90  2258               	addwfc	(??_vsnprintf+3)^0,f,c
  5250  003C92  5057               	movf	(??_vsnprintf+2)^0,w,c
  5251  003C94  5D85               	subwf	vsnprintf@cnt& (0+255),w,b
  5252  003C96  5186               	movf	(vsnprintf@cnt+1)& (0+255),w,b
  5253  003C98  0A80               	xorlw	128
  5254  003C9A  6E59               	movwf	(??_vsnprintf+4)^0,c
  5255  003C9C  5058               	movf	(??_vsnprintf+3)^0,w,c
  5256  003C9E  0A80               	xorlw	128
  5257  003CA0  5859               	subwfb	(??_vsnprintf+4)^0,w,c
  5258  003CA2  A0D8               	btfss	status,0,c
  5259  003CA4  EF56  F01E         	goto	i2u456_41
  5260  003CA8  EF58  F01E         	goto	i2u456_40
  5261  003CAC                     i2u456_41:
  5262  003CAC  EF60  F01E         	goto	i2l1023
  5263  003CB0                     i2u456_40:
  5264  003CB0                     
  5265                           ; BSR set to: 0
  5266  003CB0  0EFF               	movlw	255
  5267  003CB2  257D               	addwf	vsnprintf@n& (0+255),w,b
  5268  003CB4  6F83               	movwf	_vsnprintf$1653& (0+255),b
  5269  003CB6  0EFF               	movlw	255
  5270  003CB8  217E               	addwfc	(vsnprintf@n+1)& (0+255),w,b
  5271  003CBA  6F84               	movwf	(_vsnprintf$1653+1)& (0+255),b
  5272  003CBC  EF64  F01E         	goto	i2l4008
  5273  003CC0                     i2l1023:
  5274                           
  5275                           ; BSR set to: 0
  5276  003CC0  C085  F083         	movff	vsnprintf@cnt,_vsnprintf$1653
  5277  003CC4  C086  F084         	movff	vsnprintf@cnt+1,_vsnprintf$1653+1
  5278  003CC8                     i2l4008:
  5279                           
  5280                           ; BSR set to: 0
  5281  003CC8  5183               	movf	_vsnprintf$1653& (0+255),w,b
  5282  003CCA  257B               	addwf	vsnprintf@s& (0+255),w,b
  5283  003CCC  6ED9               	movwf	fsr2l,c
  5284  003CCE  5184               	movf	(_vsnprintf$1653+1)& (0+255),w,b
  5285  003CD0  217C               	addwfc	(vsnprintf@s+1)& (0+255),w,b
  5286  003CD2  6EDA               	movwf	fsr2h,c
  5287  003CD4  0E00               	movlw	0
  5288  003CD6  6EDF               	movwf	indf2,c
  5289  003CD8                     i2l4010:
  5290                           
  5291                           ; BSR set to: 0
  5292  003CD8  C085  F07B         	movff	vsnprintf@cnt,?_vsnprintf
  5293  003CDC  C086  F07C         	movff	vsnprintf@cnt+1,?_vsnprintf+1
  5294  003CE0                     i2l1018:
  5295                           
  5296                           ; BSR set to: 0
  5297  003CE0  0012               	return		;funcret
  5298  003CE2                     __end_of_vsnprintf:
  5299                           	callstack 0
  5300                           
  5301 ;; *************** function _vfprintf *****************
  5302 ;; Defined at:
  5303 ;;		line 1390 in file "/opt/microchip/xc8/v2.30/pic/sources/c99/common/doprnt.c"
  5304 ;; Parameters:    Size  Location     Type
  5305 ;;  fp              2   76[COMRAM] PTR struct _IO_FILE
  5306 ;;		 -> vsnprintf@f(6), 
  5307 ;;  fmt             2   78[COMRAM] PTR const unsigned char 
  5308 ;;		 -> STR_7(5), 
  5309 ;;  ap              2   80[COMRAM] PTR PTR void 
  5310 ;;		 -> snprintf@ap(2), 
  5311 ;; Auto vars:     Size  Location     Type
  5312 ;;  cfmt            2   82[COMRAM] PTR unsigned char 
  5313 ;;		 -> STR_7(5), 
  5314 ;; Return value:  Size  Location     Type
  5315 ;;                  2   76[COMRAM] int 
  5316 ;; Registers used:
  5317 ;;		wreg, fsr1l, fsr1h, fsr2l, fsr2h, status,2, status,0, tblptrl, tblptrh, tblptru, prodl, prodh, cstack
  5318 ;; Tracked objects:
  5319 ;;		On entry : 0/0
  5320 ;;		On exit  : 0/0
  5321 ;;		Unchanged: 0/0
  5322 ;; Data sizes:     COMRAM   BANK0   BANK1   BANK2   BANK3   BANK4   BANK5   BANK6   BANK7   BANK8   BANK9  BANK10  BANK1
      +1  BANK12  BANK13  BANK14  BANK15
  5323 ;;      Params:         6       0       0       0       0       0       0       0       0       0       0       0       
      +0       0       0       0       0
  5324 ;;      Locals:         2       0       0       0       0       0       0       0       0       0       0       0       
      +0       0       0       0       0
  5325 ;;      Temps:          0       0       0       0       0       0       0       0       0       0       0       0       
      +0       0       0       0       0
  5326 ;;      Totals:         8       0       0       0       0       0       0       0       0       0       0       0       
      +0       0       0       0       0
  5327 ;;Total ram usage:        8 bytes
  5328 ;; Hardware stack levels used:    1
  5329 ;; Hardware stack levels required when called:    6
  5330 ;; This function calls:
  5331 ;;		_vfpfcnvrt
  5332 ;; This function is called by:
  5333 ;;		_vsnprintf
  5334 ;; This function uses a non-reentrant model
  5335 ;;
  5336                           
  5337                           	psect	text21
  5338  0049CC                     __ptext21:
  5339                           	callstack 0
  5340  0049CC                     _vfprintf:
  5341                           	callstack 16
  5342  0049CC                     
  5343                           ;/opt/microchip/xc8/v2.30/pic/sources/c99/common/doprnt.c: 1390: int vfprintf(FILE *fp, 
      +                          const char *fmt, va_list ap);/opt/microchip/xc8/v2.30/pic/sources/c99/common/doprnt.c: 1
      +                          391: {;/opt/microchip/xc8/v2.30/pic/sources/c99/common/doprnt.c: 1393:     char *cfmt;;/
      +                          opt/microchip/xc8/v2.30/pic/sources/c99/common/doprnt.c: 1395:     cfmt = (char *)fmt;
  5344  0049CC  C04F  F053         	movff	vfprintf@fmt,vfprintf@cfmt
  5345  0049D0  C050  F054         	movff	vfprintf@fmt+1,vfprintf@cfmt+1
  5346  0049D4                     
  5347                           ;/opt/microchip/xc8/v2.30/pic/sources/c99/common/doprnt.c: 1396:     nout = 0;
  5348  0049D4  0E00               	movlw	0
  5349  0049D6  0100               	movlb	0	; () banked
  5350  0049D8  6FDD               	movwf	(_nout+1)& (0+255),b
  5351  0049DA  0E00               	movlw	0
  5352  0049DC  6FDC               	movwf	_nout& (0+255),b
  5353                           
  5354                           ;/opt/microchip/xc8/v2.30/pic/sources/c99/common/doprnt.c: 1397:     while (*cfmt) {
  5355  0049DE  EF04  F025         	goto	i2l3980
  5356  0049E2                     i2l3978:
  5357                           
  5358                           ; BSR set to: 0
  5359                           ;/opt/microchip/xc8/v2.30/pic/sources/c99/common/doprnt.c: 1398:         nout += vfpfcnv
      +                          rt(fp, &cfmt, ap);
  5360  0049E2  C04D  F043         	movff	vfprintf@fp,vfpfcnvrt@fp
  5361  0049E6  C04E  F044         	movff	vfprintf@fp+1,vfpfcnvrt@fp+1
  5362  0049EA  0E53               	movlw	low vfprintf@cfmt
  5363  0049EC  6E45               	movwf	vfpfcnvrt@fmt^0,c
  5364  0049EE  0E00               	movlw	high vfprintf@cfmt
  5365  0049F0  6E46               	movwf	(vfpfcnvrt@fmt+1)^0,c
  5366  0049F2  C051  F047         	movff	vfprintf@ap,vfpfcnvrt@ap
  5367  0049F6  C052  F048         	movff	vfprintf@ap+1,vfpfcnvrt@ap+1
  5368  0049FA  EC28  F008         	call	_vfpfcnvrt	;wreg free
  5369  0049FE  5043               	movf	?_vfpfcnvrt^0,w,c
  5370  004A00  0100               	movlb	0	; () banked
  5371  004A02  27DC               	addwf	_nout& (0+255),f,b
  5372  004A04  5044               	movf	(?_vfpfcnvrt+1)^0,w,c
  5373  004A06  23DD               	addwfc	(_nout+1)& (0+255),f,b
  5374  004A08                     i2l3980:
  5375                           
  5376                           ; BSR set to: 0
  5377                           ;/opt/microchip/xc8/v2.30/pic/sources/c99/common/doprnt.c: 1397:     while (*cfmt) {
  5378  004A08  C053  FFF6         	movff	vfprintf@cfmt,tblptrl
  5379  004A0C  C054  FFF7         	movff	vfprintf@cfmt+1,tblptrh
  5380  004A10                     	if	0	;tblptru may be non-zero
  5381  004A10                     	endif
  5382  004A10                     	if	1	;Program memory is > 0xFFFF, there are 3 active tblptr bytes
  5383  004A10  0E00               	movlw	low (__mediumconst shr (0+16))
  5384  004A12  6EF8               	movwf	tblptru,c
  5385  004A14                     	endif
  5386  004A14  0008               	tblrd		*
  5387  004A16  50F5               	movf	tablat,w,c
  5388  004A18  0900               	iorlw	0
  5389  004A1A  A4D8               	btfss	status,2,c
  5390  004A1C  EF12  F025         	goto	i2u451_41
  5391  004A20  EF14  F025         	goto	i2u451_40
  5392  004A24                     i2u451_41:
  5393  004A24  EFF1  F024         	goto	i2l3978
  5394  004A28                     i2u451_40:
  5395  004A28                     
  5396                           ; BSR set to: 0
  5397                           ;/opt/microchip/xc8/v2.30/pic/sources/c99/common/doprnt.c: 1400:     return nout;
  5398  004A28  C0DC  F04D         	movff	_nout,?_vfprintf
  5399  004A2C  C0DD  F04E         	movff	_nout+1,?_vfprintf+1
  5400  004A30                     
  5401                           ; BSR set to: 0
  5402  004A30  0012               	return		;funcret
  5403  004A32                     __end_of_vfprintf:
  5404                           	callstack 0
  5405                           
  5406 ;; *************** function _vfpfcnvrt *****************
  5407 ;; Defined at:
  5408 ;;		line 692 in file "/opt/microchip/xc8/v2.30/pic/sources/c99/common/doprnt.c"
  5409 ;; Parameters:    Size  Location     Type
  5410 ;;  fp              2   66[COMRAM] PTR struct _IO_FILE
  5411 ;;		 -> vsnprintf@f(6), 
  5412 ;;  fmt             2   68[COMRAM] PTR PTR unsigned char 
  5413 ;;		 -> vfprintf@cfmt(2), 
  5414 ;;  ap              2   70[COMRAM] PTR PTR void 
  5415 ;;		 -> snprintf@ap(2), 
  5416 ;; Auto vars:     Size  Location     Type
  5417 ;;  llu             8   19[BANK0 ] unsigned long long 
  5418 ;;  ll              8    8[BANK0 ] long long 
  5419 ;;  f               4    0        long long 
  5420 ;;  ct              3    0        unsigned char [3]
  5421 ;;  vp              2   16[BANK0 ] PTR void 
  5422 ;;		 -> ?_snprintf(2), 
  5423 ;;  done            2    2[BANK0 ] int 
  5424 ;;  cp              2    0[BANK0 ] PTR unsigned char 
  5425 ;;		 -> ?_snprintf(2), 
  5426 ;;  i               2    0        int 
  5427 ;;  c               1   18[BANK0 ] unsigned char 
  5428 ;; Return value:  Size  Location     Type
  5429 ;;                  2   66[COMRAM] int 
  5430 ;; Registers used:
  5431 ;;		wreg, fsr1l, fsr1h, fsr2l, fsr2h, status,2, status,0, tblptrl, tblptrh, tblptru, prodl, prodh, cstack
  5432 ;; Tracked objects:
  5433 ;;		On entry : 0/0
  5434 ;;		On exit  : 0/0
  5435 ;;		Unchanged: 0/0
  5436 ;; Data sizes:     COMRAM   BANK0   BANK1   BANK2   BANK3   BANK4   BANK5   BANK6   BANK7   BANK8   BANK9  BANK10  BANK1
      +1  BANK12  BANK13  BANK14  BANK15
  5437 ;;      Params:         6       0       0       0       0       0       0       0       0       0       0       0       
      +0       0       0       0       0
  5438 ;;      Locals:         0      27       0       0       0       0       0       0       0       0       0       0       
      +0       0       0       0       0
  5439 ;;      Temps:          4       0       0       0       0       0       0       0       0       0       0       0       
      +0       0       0       0       0
  5440 ;;      Totals:        10      27       0       0       0       0       0       0       0       0       0       0       
      +0       0       0       0       0
  5441 ;;Total ram usage:       37 bytes
  5442 ;; Hardware stack levels used:    1
  5443 ;; Hardware stack levels required when called:    5
  5444 ;; This function calls:
  5445 ;;		_atoi
  5446 ;;		_ctoa
  5447 ;;		_dtoa
  5448 ;;		_fputc
  5449 ;;		_isdigit
  5450 ;;		_otoa
  5451 ;;		_stoa
  5452 ;;		_strncmp
  5453 ;;		_utoa
  5454 ;;		_xtoa
  5455 ;; This function is called by:
  5456 ;;		_vfprintf
  5457 ;; This function uses a non-reentrant model
  5458 ;;
  5459                           
  5460                           	psect	text22
  5461  001050                     __ptext22:
  5462                           	callstack 0
  5463  001050                     _vfpfcnvrt:
  5464                           	callstack 16
  5465  001050                     
  5466                           ;/opt/microchip/xc8/v2.30/pic/sources/c99/common/doprnt.c: 692: static int vfpfcnvrt(FIL
      +                          E *fp, char *fmt[], va_list ap);/opt/microchip/xc8/v2.30/pic/sources/c99/common/doprnt.c
      +                          : 693: {;/opt/microchip/xc8/v2.30/pic/sources/c99/common/doprnt.c: 694:     char c, *cp,
      +                           ct[3];;/opt/microchip/xc8/v2.30/pic/sources/c99/common/doprnt.c: 695:     int done, i;;
      +                          /opt/microchip/xc8/v2.30/pic/sources/c99/common/doprnt.c: 696:     long long ll;;/opt/mi
      +                          crochip/xc8/v2.30/pic/sources/c99/common/doprnt.c: 697:     unsigned long long llu;
  5467  001050  C045  FFD9         	movff	vfpfcnvrt@fmt,fsr2l
  5468  001054  C046  FFDA         	movff	vfpfcnvrt@fmt+1,fsr2h
  5469  001058  CFDE FFF6          	movff	postinc2,tblptrl
  5470  00105C  CFDD FFF7          	movff	postdec2,tblptrh
  5471  001060                     	if	0	;tblptru may be non-zero
  5472  001060                     	endif
  5473  001060                     	if	1	;Program memory is > 0xFFFF, there are 3 active tblptr bytes
  5474  001060  0E00               	movlw	low (__mediumconst shr (0+16))
  5475  001062  6EF8               	movwf	tblptru,c
  5476  001064                     	endif
  5477  001064  0008               	tblrd		*
  5478  001066  50F5               	movf	tablat,w,c
  5479  001068  0A25               	xorlw	37
  5480  00106A  A4D8               	btfss	status,2,c
  5481  00106C  EF3A  F008         	goto	i2u406_41
  5482  001070  EF3C  F008         	goto	i2u406_40
  5483  001074                     i2u406_41:
  5484  001074  EF5D  F011         	goto	i2l3960
  5485  001078                     i2u406_40:
  5486  001078                     
  5487                           ;/opt/microchip/xc8/v2.30/pic/sources/c99/common/doprnt.c: 703:         ++*fmt;
  5488  001078  C045  FFD9         	movff	vfpfcnvrt@fmt,fsr2l
  5489  00107C  C046  FFDA         	movff	vfpfcnvrt@fmt+1,fsr2h
  5490  001080  2ADE               	incf	postinc2,f,c
  5491  001082  0E00               	movlw	0
  5492  001084  22DD               	addwfc	postdec2,f,c
  5493  001086                     
  5494                           ;/opt/microchip/xc8/v2.30/pic/sources/c99/common/doprnt.c: 705:         flags = width = 
      +                          0;
  5495  001086  0E00               	movlw	0
  5496  001088  0100               	movlb	0	; () banked
  5497  00108A  6FDF               	movwf	(_width+1)& (0+255),b
  5498  00108C  0E00               	movlw	0
  5499  00108E  6FDE               	movwf	_width& (0+255),b
  5500  001090  C0DE  F0E2         	movff	_width,_flags
  5501  001094  C0DF  F0E3         	movff	_width+1,_flags+1
  5502  001098                     
  5503                           ; BSR set to: 0
  5504                           ;/opt/microchip/xc8/v2.30/pic/sources/c99/common/doprnt.c: 706:         prec = -1;
  5505  001098  69E0               	setf	_prec& (0+255),b
  5506  00109A  69E1               	setf	(_prec+1)& (0+255),b
  5507  00109C                     
  5508                           ; BSR set to: 0
  5509                           ;/opt/microchip/xc8/v2.30/pic/sources/c99/common/doprnt.c: 710:         done = 0;
  5510  00109C  0E00               	movlw	0
  5511  00109E  6F63               	movwf	(vfpfcnvrt@done+1)& (0+255),b
  5512  0010A0  0E00               	movlw	0
  5513  0010A2  6F62               	movwf	vfpfcnvrt@done& (0+255),b
  5514                           
  5515                           ;/opt/microchip/xc8/v2.30/pic/sources/c99/common/doprnt.c: 711:         while (!done) {
  5516  0010A4  EF9C  F008         	goto	i2l3678
  5517  0010A8                     i2l3652:
  5518                           
  5519                           ; BSR set to: 0
  5520                           ;/opt/microchip/xc8/v2.30/pic/sources/c99/common/doprnt.c: 714:                     flag
      +                          s |= (1 << 0);
  5521  0010A8  81E2               	bsf	_flags& (0+255),0,b
  5522  0010AA                     i2l3654:
  5523                           
  5524                           ; BSR set to: 0
  5525                           ;/opt/microchip/xc8/v2.30/pic/sources/c99/common/doprnt.c: 715:                     ++*f
      +                          mt;
  5526  0010AA  C045  FFD9         	movff	vfpfcnvrt@fmt,fsr2l
  5527  0010AE  C046  FFDA         	movff	vfpfcnvrt@fmt+1,fsr2h
  5528  0010B2  2ADE               	incf	postinc2,f,c
  5529  0010B4  0E00               	movlw	0
  5530  0010B6  22DD               	addwfc	postdec2,f,c
  5531                           
  5532                           ;/opt/microchip/xc8/v2.30/pic/sources/c99/common/doprnt.c: 716:                     brea
      +                          k;
  5533  0010B8  EF9C  F008         	goto	i2l3678
  5534  0010BC                     i2l3656:
  5535                           
  5536                           ; BSR set to: 0
  5537                           ;/opt/microchip/xc8/v2.30/pic/sources/c99/common/doprnt.c: 718:                     flag
      +                          s |= (1 << 1);
  5538  0010BC  83E2               	bsf	_flags& (0+255),1,b
  5539  0010BE  EF55  F008         	goto	i2l3654
  5540  0010C2                     i2l3660:
  5541                           
  5542                           ; BSR set to: 0
  5543                           ;/opt/microchip/xc8/v2.30/pic/sources/c99/common/doprnt.c: 722:                     flag
      +                          s |= (1 << 2);
  5544  0010C2  85E2               	bsf	_flags& (0+255),2,b
  5545  0010C4  EF55  F008         	goto	i2l3654
  5546  0010C8                     i2l3664:
  5547                           
  5548                           ; BSR set to: 0
  5549                           ;/opt/microchip/xc8/v2.30/pic/sources/c99/common/doprnt.c: 726:                     flag
      +                          s |= (1 << 3);
  5550  0010C8  87E2               	bsf	_flags& (0+255),3,b
  5551  0010CA  EF55  F008         	goto	i2l3654
  5552  0010CE                     i2l3668:
  5553                           
  5554                           ; BSR set to: 0
  5555                           ;/opt/microchip/xc8/v2.30/pic/sources/c99/common/doprnt.c: 730:                     flag
      +                          s |= (1 << 4);
  5556  0010CE  89E2               	bsf	_flags& (0+255),4,b
  5557  0010D0  EF55  F008         	goto	i2l3654
  5558  0010D4                     i2l3672:
  5559                           
  5560                           ; BSR set to: 0
  5561                           ;/opt/microchip/xc8/v2.30/pic/sources/c99/common/doprnt.c: 734:                     done
      +                           = 1;
  5562  0010D4  0E00               	movlw	0
  5563  0010D6  6F63               	movwf	(vfpfcnvrt@done+1)& (0+255),b
  5564  0010D8  0E01               	movlw	1
  5565  0010DA  6F62               	movwf	vfpfcnvrt@done& (0+255),b
  5566                           
  5567                           ;/opt/microchip/xc8/v2.30/pic/sources/c99/common/doprnt.c: 735:                     brea
      +                          k;
  5568  0010DC  EF9C  F008         	goto	i2l3678
  5569  0010E0                     i2l3676:
  5570                           
  5571                           ; BSR set to: 0
  5572  0010E0  C045  FFD9         	movff	vfpfcnvrt@fmt,fsr2l
  5573  0010E4  C046  FFDA         	movff	vfpfcnvrt@fmt+1,fsr2h
  5574  0010E8  CFDE FFF6          	movff	postinc2,tblptrl
  5575  0010EC  CFDD FFF7          	movff	postdec2,tblptrh
  5576  0010F0                     	if	0	;tblptru may be non-zero
  5577  0010F0                     	endif
  5578  0010F0                     	if	1	;Program memory is > 0xFFFF, there are 3 active tblptr bytes
  5579  0010F0  0E00               	movlw	low (__mediumconst shr (0+16))
  5580  0010F2  6EF8               	movwf	tblptru,c
  5581  0010F4                     	endif
  5582  0010F4  0008               	tblrd		*
  5583  0010F6  50F5               	movf	tablat,w,c
  5584  0010F8  6E49               	movwf	??_vfpfcnvrt^0,c
  5585  0010FA  6A4A               	clrf	(??_vfpfcnvrt+1)^0,c
  5586                           
  5587                           ; Switch on 2 bytes has been partitioned into a top level switch of size 1, and 1 sub-sw
      +                          itches
  5588                           ; Switch size 1, requested type "simple"
  5589                           ; Number of cases is 1, Range of values is 0 to 0
  5590                           ; switch strategies available:
  5591                           ; Name         Instructions Cycles
  5592                           ; simple_byte            4     3 (average)
  5593                           ;	Chosen strategy is simple_byte
  5594  0010FC  504A               	movf	(??_vfpfcnvrt+1)^0,w,c
  5595  0010FE  0A00               	xorlw	0	; case 0
  5596  001100  B4D8               	btfsc	status,2,c
  5597  001102  EF85  F008         	goto	i2l4760
  5598  001106  EF6A  F008         	goto	i2l3672
  5599  00110A                     i2l4760:
  5600                           
  5601                           ; BSR set to: 0
  5602                           ; Switch size 1, requested type "simple"
  5603                           ; Number of cases is 5, Range of values is 32 to 48
  5604                           ; switch strategies available:
  5605                           ; Name         Instructions Cycles
  5606                           ; simple_byte           16     9 (average)
  5607                           ;	Chosen strategy is simple_byte
  5608  00110A  5049               	movf	??_vfpfcnvrt^0,w,c
  5609  00110C  0A20               	xorlw	32	; case 32
  5610  00110E  B4D8               	btfsc	status,2,c
  5611  001110  EF64  F008         	goto	i2l3664
  5612  001114  0A03               	xorlw	3	; case 35
  5613  001116  B4D8               	btfsc	status,2,c
  5614  001118  EF67  F008         	goto	i2l3668
  5615  00111C  0A08               	xorlw	8	; case 43
  5616  00111E  B4D8               	btfsc	status,2,c
  5617  001120  EF61  F008         	goto	i2l3660
  5618  001124  0A06               	xorlw	6	; case 45
  5619  001126  B4D8               	btfsc	status,2,c
  5620  001128  EF54  F008         	goto	i2l3652
  5621  00112C  0A1D               	xorlw	29	; case 48
  5622  00112E  B4D8               	btfsc	status,2,c
  5623  001130  EF5E  F008         	goto	i2l3656
  5624  001134  EF6A  F008         	goto	i2l3672
  5625  001138                     i2l3678:
  5626                           
  5627                           ; BSR set to: 0
  5628                           ;/opt/microchip/xc8/v2.30/pic/sources/c99/common/doprnt.c: 711:         while (!done) {
  5629  001138  5162               	movf	vfpfcnvrt@done& (0+255),w,b
  5630  00113A  1163               	iorwf	(vfpfcnvrt@done+1)& (0+255),w,b
  5631  00113C  B4D8               	btfsc	status,2,c
  5632  00113E  EFA3  F008         	goto	i2u407_41
  5633  001142  EFA5  F008         	goto	i2u407_40
  5634  001146                     i2u407_41:
  5635  001146  EF70  F008         	goto	i2l3676
  5636  00114A                     i2u407_40:
  5637  00114A                     
  5638                           ; BSR set to: 0
  5639                           ;/opt/microchip/xc8/v2.30/pic/sources/c99/common/doprnt.c: 738:         if (flags & (1 <
      +                          < 0)) {
  5640  00114A  A1E2               	btfss	_flags& (0+255),0,b
  5641  00114C  EFAA  F008         	goto	i2u408_41
  5642  001150  EFAC  F008         	goto	i2u408_40
  5643  001154                     i2u408_41:
  5644  001154  EFAD  F008         	goto	i2l3682
  5645  001158                     i2u408_40:
  5646  001158                     
  5647                           ; BSR set to: 0
  5648                           ;/opt/microchip/xc8/v2.30/pic/sources/c99/common/doprnt.c: 739:             flags &= ~(1
      +                           << 1);
  5649  001158  93E2               	bcf	_flags& (0+255),1,b
  5650  00115A                     i2l3682:
  5651                           
  5652                           ; BSR set to: 0
  5653                           ;/opt/microchip/xc8/v2.30/pic/sources/c99/common/doprnt.c: 745:         if ((*fmt)[0] ==
      +                           '*') {
  5654  00115A  C045  FFD9         	movff	vfpfcnvrt@fmt,fsr2l
  5655  00115E  C046  FFDA         	movff	vfpfcnvrt@fmt+1,fsr2h
  5656  001162  CFDE FFF6          	movff	postinc2,tblptrl
  5657  001166  CFDD FFF7          	movff	postdec2,tblptrh
  5658  00116A                     	if	0	;tblptru may be non-zero
  5659  00116A                     	endif
  5660  00116A                     	if	1	;Program memory is > 0xFFFF, there are 3 active tblptr bytes
  5661  00116A  0E00               	movlw	low (__mediumconst shr (0+16))
  5662  00116C  6EF8               	movwf	tblptru,c
  5663  00116E                     	endif
  5664  00116E  0008               	tblrd		*
  5665  001170  50F5               	movf	tablat,w,c
  5666  001172  0A2A               	xorlw	42
  5667  001174  A4D8               	btfss	status,2,c
  5668  001176  EFBF  F008         	goto	i2u409_41
  5669  00117A  EFC1  F008         	goto	i2u409_40
  5670  00117E                     i2u409_41:
  5671  00117E  EFEA  F008         	goto	i2l3690
  5672  001182                     i2u409_40:
  5673  001182                     
  5674                           ; BSR set to: 0
  5675                           ;/opt/microchip/xc8/v2.30/pic/sources/c99/common/doprnt.c: 746:             ++*fmt;
  5676  001182  C045  FFD9         	movff	vfpfcnvrt@fmt,fsr2l
  5677  001186  C046  FFDA         	movff	vfpfcnvrt@fmt+1,fsr2h
  5678  00118A  2ADE               	incf	postinc2,f,c
  5679  00118C  0E00               	movlw	0
  5680  00118E  22DD               	addwfc	postdec2,f,c
  5681                           
  5682                           ;/opt/microchip/xc8/v2.30/pic/sources/c99/common/doprnt.c: 747:             width = (*(i
      +                          nt *)__va_arg(*(int **)ap, (int)0));
  5683  001190  C047  FFD9         	movff	vfpfcnvrt@ap,fsr2l
  5684  001194  C048  FFDA         	movff	vfpfcnvrt@ap+1,fsr2h
  5685  001198  CFDF F049          	movff	indf2,??_vfpfcnvrt
  5686  00119C  0E02               	movlw	2
  5687  00119E  26DE               	addwf	postinc2,f,c
  5688  0011A0  CFDF F04A          	movff	indf2,??_vfpfcnvrt+1
  5689  0011A4  0E00               	movlw	0
  5690  0011A6  22DD               	addwfc	postdec2,f,c
  5691  0011A8  C049  FFD9         	movff	??_vfpfcnvrt,fsr2l
  5692  0011AC  C04A  FFDA         	movff	??_vfpfcnvrt+1,fsr2h
  5693  0011B0  CFDE F0DE          	movff	postinc2,_width
  5694  0011B4  CFDD F0DF          	movff	postdec2,_width+1
  5695  0011B8                     
  5696                           ; BSR set to: 0
  5697                           ;/opt/microchip/xc8/v2.30/pic/sources/c99/common/doprnt.c: 748:             if (width < 
      +                          0) {
  5698  0011B8  BFDF               	btfsc	(_width+1)& (0+255),7,b
  5699  0011BA  EFE3  F008         	goto	i2u410_40
  5700  0011BE  EFE1  F008         	goto	i2u410_41
  5701  0011C2                     i2u410_41:
  5702  0011C2  EF30  F009         	goto	i2l3700
  5703  0011C6                     i2u410_40:
  5704  0011C6                     
  5705                           ; BSR set to: 0
  5706                           ;/opt/microchip/xc8/v2.30/pic/sources/c99/common/doprnt.c: 749:                 flags |=
      +                           (1 << 0);
  5707  0011C6  81E2               	bsf	_flags& (0+255),0,b
  5708                           
  5709                           ;/opt/microchip/xc8/v2.30/pic/sources/c99/common/doprnt.c: 750:                 width = 
      +                          -width;
  5710  0011C8  6DDE               	negf	_width& (0+255),b
  5711  0011CA  1FDF               	comf	(_width+1)& (0+255),f,b
  5712  0011CC  B0D8               	btfsc	status,0,c
  5713  0011CE  2BDF               	incf	(_width+1)& (0+255),f,b
  5714  0011D0  EF30  F009         	goto	i2l3700
  5715  0011D4                     i2l3690:
  5716                           
  5717                           ; BSR set to: 0
  5718                           ;/opt/microchip/xc8/v2.30/pic/sources/c99/common/doprnt.c: 753:             width = atoi
      +                          (*fmt);
  5719  0011D4  C045  FFD9         	movff	vfpfcnvrt@fmt,fsr2l
  5720  0011D8  C046  FFDA         	movff	vfpfcnvrt@fmt+1,fsr2h
  5721  0011DC  CFDE F008          	movff	postinc2,atoi@s
  5722  0011E0  CFDD F009          	movff	postdec2,atoi@s+1
  5723  0011E4  ECD8  F01A         	call	_atoi	;wreg free
  5724  0011E8  C008  F0DE         	movff	?_atoi,_width
  5725  0011EC  C009  F0DF         	movff	?_atoi+1,_width+1
  5726                           
  5727                           ;/opt/microchip/xc8/v2.30/pic/sources/c99/common/doprnt.c: 754:             while ((0 ? 
      +                          isdigit((*fmt)[0]) : ((unsigned)((*fmt)[0])-'0') < 10)) {
  5728  0011F0  EF01  F009         	goto	i2l3694
  5729  0011F4                     i2l3692:
  5730                           
  5731                           ; BSR set to: 0
  5732                           ;/opt/microchip/xc8/v2.30/pic/sources/c99/common/doprnt.c: 755:                 ++*fmt;
  5733  0011F4  C045  FFD9         	movff	vfpfcnvrt@fmt,fsr2l
  5734  0011F8  C046  FFDA         	movff	vfpfcnvrt@fmt+1,fsr2h
  5735  0011FC  2ADE               	incf	postinc2,f,c
  5736  0011FE  0E00               	movlw	0
  5737  001200  22DD               	addwfc	postdec2,f,c
  5738  001202                     i2l3694:
  5739  001202  0ED0               	movlw	208
  5740  001204  6E49               	movwf	??_vfpfcnvrt^0,c
  5741  001206  0EFF               	movlw	255
  5742  001208  6E4A               	movwf	(??_vfpfcnvrt+1)^0,c
  5743  00120A  C045  FFD9         	movff	vfpfcnvrt@fmt,fsr2l
  5744  00120E  C046  FFDA         	movff	vfpfcnvrt@fmt+1,fsr2h
  5745  001212  CFDE FFF6          	movff	postinc2,tblptrl
  5746  001216  CFDD FFF7          	movff	postdec2,tblptrh
  5747  00121A                     	if	0	;tblptru may be non-zero
  5748  00121A                     	endif
  5749  00121A                     	if	1	;Program memory is > 0xFFFF, there are 3 active tblptr bytes
  5750  00121A  0E00               	movlw	low (__mediumconst shr (0+16))
  5751  00121C  6EF8               	movwf	tblptru,c
  5752  00121E                     	endif
  5753  00121E  0008               	tblrd		*
  5754  001220  50F5               	movf	tablat,w,c
  5755  001222  6E4B               	movwf	(??_vfpfcnvrt+2)^0,c
  5756  001224  6A4C               	clrf	(??_vfpfcnvrt+3)^0,c
  5757  001226  5049               	movf	??_vfpfcnvrt^0,w,c
  5758  001228  264B               	addwf	(??_vfpfcnvrt+2)^0,f,c
  5759  00122A  504A               	movf	(??_vfpfcnvrt+1)^0,w,c
  5760  00122C  224C               	addwfc	(??_vfpfcnvrt+3)^0,f,c
  5761  00122E  504C               	movf	(??_vfpfcnvrt+3)^0,w,c
  5762  001230  E10A               	bnz	i2u411_40
  5763  001232  0E0A               	movlw	10
  5764  001234  5C4B               	subwf	(??_vfpfcnvrt+2)^0,w,c
  5765  001236  A0D8               	btfss	status,0,c
  5766  001238  EF20  F009         	goto	i2u411_41
  5767  00123C  EF23  F009         	goto	i2u411_40
  5768  001240                     i2u411_41:
  5769  001240  0E01               	movlw	1
  5770  001242  EF24  F009         	goto	i2u412_40
  5771  001246                     i2u411_40:
  5772  001246  0E00               	movlw	0
  5773  001248                     i2u412_40:
  5774  001248  0100               	movlb	0	; () banked
  5775  00124A  6F64               	movwf	_vfpfcnvrt$1790& (0+255),b
  5776  00124C  6B65               	clrf	(_vfpfcnvrt$1790+1)& (0+255),b
  5777  00124E                     
  5778                           ; BSR set to: 0
  5779  00124E  5164               	movf	_vfpfcnvrt$1790& (0+255),w,b
  5780  001250  1165               	iorwf	(_vfpfcnvrt$1790+1)& (0+255),w,b
  5781  001252  A4D8               	btfss	status,2,c
  5782  001254  EF2E  F009         	goto	i2u413_41
  5783  001258  EF30  F009         	goto	i2u413_40
  5784  00125C                     i2u413_41:
  5785  00125C  EFFA  F008         	goto	i2l3692
  5786  001260                     i2u413_40:
  5787  001260                     i2l3700:
  5788                           
  5789                           ; BSR set to: 0
  5790                           ;/opt/microchip/xc8/v2.30/pic/sources/c99/common/doprnt.c: 762:         if ((*fmt)[0] ==
      +                           '.') {
  5791  001260  C045  FFD9         	movff	vfpfcnvrt@fmt,fsr2l
  5792  001264  C046  FFDA         	movff	vfpfcnvrt@fmt+1,fsr2h
  5793  001268  CFDE FFF6          	movff	postinc2,tblptrl
  5794  00126C  CFDD FFF7          	movff	postdec2,tblptrh
  5795  001270                     	if	0	;tblptru may be non-zero
  5796  001270                     	endif
  5797  001270                     	if	1	;Program memory is > 0xFFFF, there are 3 active tblptr bytes
  5798  001270  0E00               	movlw	low (__mediumconst shr (0+16))
  5799  001272  6EF8               	movwf	tblptru,c
  5800  001274                     	endif
  5801  001274  0008               	tblrd		*
  5802  001276  50F5               	movf	tablat,w,c
  5803  001278  0A2E               	xorlw	46
  5804  00127A  A4D8               	btfss	status,2,c
  5805  00127C  EF42  F009         	goto	i2u414_41
  5806  001280  EF44  F009         	goto	i2u414_40
  5807  001284                     i2u414_41:
  5808  001284  EFC6  F009         	goto	i2l3720
  5809  001288                     i2u414_40:
  5810  001288                     
  5811                           ; BSR set to: 0
  5812                           ;/opt/microchip/xc8/v2.30/pic/sources/c99/common/doprnt.c: 763:             prec = 0;
  5813  001288  0E00               	movlw	0
  5814  00128A  6FE1               	movwf	(_prec+1)& (0+255),b
  5815  00128C  0E00               	movlw	0
  5816  00128E  6FE0               	movwf	_prec& (0+255),b
  5817  001290                     
  5818                           ; BSR set to: 0
  5819                           ;/opt/microchip/xc8/v2.30/pic/sources/c99/common/doprnt.c: 764:             ++*fmt;
  5820  001290  C045  FFD9         	movff	vfpfcnvrt@fmt,fsr2l
  5821  001294  C046  FFDA         	movff	vfpfcnvrt@fmt+1,fsr2h
  5822  001298  2ADE               	incf	postinc2,f,c
  5823  00129A  0E00               	movlw	0
  5824  00129C  22DD               	addwfc	postdec2,f,c
  5825  00129E                     
  5826                           ; BSR set to: 0
  5827                           ;/opt/microchip/xc8/v2.30/pic/sources/c99/common/doprnt.c: 765:             if ((*fmt)[0
      +                          ] == '*') {
  5828  00129E  C045  FFD9         	movff	vfpfcnvrt@fmt,fsr2l
  5829  0012A2  C046  FFDA         	movff	vfpfcnvrt@fmt+1,fsr2h
  5830  0012A6  CFDE FFF6          	movff	postinc2,tblptrl
  5831  0012AA  CFDD FFF7          	movff	postdec2,tblptrh
  5832  0012AE                     	if	0	;tblptru may be non-zero
  5833  0012AE                     	endif
  5834  0012AE                     	if	1	;Program memory is > 0xFFFF, there are 3 active tblptr bytes
  5835  0012AE  0E00               	movlw	low (__mediumconst shr (0+16))
  5836  0012B0  6EF8               	movwf	tblptru,c
  5837  0012B2                     	endif
  5838  0012B2  0008               	tblrd		*
  5839  0012B4  50F5               	movf	tablat,w,c
  5840  0012B6  0A2A               	xorlw	42
  5841  0012B8  A4D8               	btfss	status,2,c
  5842  0012BA  EF61  F009         	goto	i2u415_41
  5843  0012BE  EF63  F009         	goto	i2u415_40
  5844  0012C2                     i2u415_41:
  5845  0012C2  EF80  F009         	goto	i2l3710
  5846  0012C6                     i2u415_40:
  5847  0012C6                     
  5848                           ; BSR set to: 0
  5849                           ;/opt/microchip/xc8/v2.30/pic/sources/c99/common/doprnt.c: 766:                 ++*fmt;
  5850  0012C6  C045  FFD9         	movff	vfpfcnvrt@fmt,fsr2l
  5851  0012CA  C046  FFDA         	movff	vfpfcnvrt@fmt+1,fsr2h
  5852  0012CE  2ADE               	incf	postinc2,f,c
  5853  0012D0  0E00               	movlw	0
  5854  0012D2  22DD               	addwfc	postdec2,f,c
  5855                           
  5856                           ;/opt/microchip/xc8/v2.30/pic/sources/c99/common/doprnt.c: 767:                 prec = (
      +                          *(int *)__va_arg(*(int **)ap, (int)0));
  5857  0012D4  C047  FFD9         	movff	vfpfcnvrt@ap,fsr2l
  5858  0012D8  C048  FFDA         	movff	vfpfcnvrt@ap+1,fsr2h
  5859  0012DC  CFDF F049          	movff	indf2,??_vfpfcnvrt
  5860  0012E0  0E02               	movlw	2
  5861  0012E2  26DE               	addwf	postinc2,f,c
  5862  0012E4  CFDF F04A          	movff	indf2,??_vfpfcnvrt+1
  5863  0012E8  0E00               	movlw	0
  5864  0012EA  22DD               	addwfc	postdec2,f,c
  5865  0012EC  C049  FFD9         	movff	??_vfpfcnvrt,fsr2l
  5866  0012F0  C04A  FFDA         	movff	??_vfpfcnvrt+1,fsr2h
  5867  0012F4  CFDE F0E0          	movff	postinc2,_prec
  5868  0012F8  CFDD F0E1          	movff	postdec2,_prec+1
  5869                           
  5870                           ;/opt/microchip/xc8/v2.30/pic/sources/c99/common/doprnt.c: 768:             } else {
  5871  0012FC  EFC6  F009         	goto	i2l3720
  5872  001300                     i2l3710:
  5873                           
  5874                           ; BSR set to: 0
  5875                           ;/opt/microchip/xc8/v2.30/pic/sources/c99/common/doprnt.c: 769:                 prec = a
      +                          toi(*fmt);
  5876  001300  C045  FFD9         	movff	vfpfcnvrt@fmt,fsr2l
  5877  001304  C046  FFDA         	movff	vfpfcnvrt@fmt+1,fsr2h
  5878  001308  CFDE F008          	movff	postinc2,atoi@s
  5879  00130C  CFDD F009          	movff	postdec2,atoi@s+1
  5880  001310  ECD8  F01A         	call	_atoi	;wreg free
  5881  001314  C008  F0E0         	movff	?_atoi,_prec
  5882  001318  C009  F0E1         	movff	?_atoi+1,_prec+1
  5883                           
  5884                           ;/opt/microchip/xc8/v2.30/pic/sources/c99/common/doprnt.c: 770:                 while ((
      +                          0 ? isdigit((*fmt)[0]) : ((unsigned)((*fmt)[0])-'0') < 10)) {
  5885  00131C  EF97  F009         	goto	i2l3714
  5886  001320                     i2l3712:
  5887                           
  5888                           ; BSR set to: 0
  5889                           ;/opt/microchip/xc8/v2.30/pic/sources/c99/common/doprnt.c: 771:                     ++*f
      +                          mt;
  5890  001320  C045  FFD9         	movff	vfpfcnvrt@fmt,fsr2l
  5891  001324  C046  FFDA         	movff	vfpfcnvrt@fmt+1,fsr2h
  5892  001328  2ADE               	incf	postinc2,f,c
  5893  00132A  0E00               	movlw	0
  5894  00132C  22DD               	addwfc	postdec2,f,c
  5895  00132E                     i2l3714:
  5896  00132E  0ED0               	movlw	208
  5897  001330  6E49               	movwf	??_vfpfcnvrt^0,c
  5898  001332  0EFF               	movlw	255
  5899  001334  6E4A               	movwf	(??_vfpfcnvrt+1)^0,c
  5900  001336  C045  FFD9         	movff	vfpfcnvrt@fmt,fsr2l
  5901  00133A  C046  FFDA         	movff	vfpfcnvrt@fmt+1,fsr2h
  5902  00133E  CFDE FFF6          	movff	postinc2,tblptrl
  5903  001342  CFDD FFF7          	movff	postdec2,tblptrh
  5904  001346                     	if	0	;tblptru may be non-zero
  5905  001346                     	endif
  5906  001346                     	if	1	;Program memory is > 0xFFFF, there are 3 active tblptr bytes
  5907  001346  0E00               	movlw	low (__mediumconst shr (0+16))
  5908  001348  6EF8               	movwf	tblptru,c
  5909  00134A                     	endif
  5910  00134A  0008               	tblrd		*
  5911  00134C  50F5               	movf	tablat,w,c
  5912  00134E  6E4B               	movwf	(??_vfpfcnvrt+2)^0,c
  5913  001350  6A4C               	clrf	(??_vfpfcnvrt+3)^0,c
  5914  001352  5049               	movf	??_vfpfcnvrt^0,w,c
  5915  001354  264B               	addwf	(??_vfpfcnvrt+2)^0,f,c
  5916  001356  504A               	movf	(??_vfpfcnvrt+1)^0,w,c
  5917  001358  224C               	addwfc	(??_vfpfcnvrt+3)^0,f,c
  5918  00135A  504C               	movf	(??_vfpfcnvrt+3)^0,w,c
  5919  00135C  E10A               	bnz	i2u416_40
  5920  00135E  0E0A               	movlw	10
  5921  001360  5C4B               	subwf	(??_vfpfcnvrt+2)^0,w,c
  5922  001362  A0D8               	btfss	status,0,c
  5923  001364  EFB6  F009         	goto	i2u416_41
  5924  001368  EFB9  F009         	goto	i2u416_40
  5925  00136C                     i2u416_41:
  5926  00136C  0E01               	movlw	1
  5927  00136E  EFBA  F009         	goto	i2u417_40
  5928  001372                     i2u416_40:
  5929  001372  0E00               	movlw	0
  5930  001374                     i2u417_40:
  5931  001374  0100               	movlb	0	; () banked
  5932  001376  6F66               	movwf	_vfpfcnvrt$1791& (0+255),b
  5933  001378  6B67               	clrf	(_vfpfcnvrt$1791+1)& (0+255),b
  5934  00137A                     
  5935                           ; BSR set to: 0
  5936  00137A  5166               	movf	_vfpfcnvrt$1791& (0+255),w,b
  5937  00137C  1167               	iorwf	(_vfpfcnvrt$1791+1)& (0+255),w,b
  5938  00137E  A4D8               	btfss	status,2,c
  5939  001380  EFC4  F009         	goto	i2u418_41
  5940  001384  EFC6  F009         	goto	i2u418_40
  5941  001388                     i2u418_41:
  5942  001388  EF90  F009         	goto	i2l3712
  5943  00138C                     i2u418_40:
  5944  00138C                     i2l3720:
  5945                           
  5946                           ; BSR set to: 0
  5947                           ;/opt/microchip/xc8/v2.30/pic/sources/c99/common/doprnt.c: 814:         if (*fmt[0] == '
      +                          c') {
  5948  00138C  C045  FFD9         	movff	vfpfcnvrt@fmt,fsr2l
  5949  001390  C046  FFDA         	movff	vfpfcnvrt@fmt+1,fsr2h
  5950  001394  CFDE FFF6          	movff	postinc2,tblptrl
  5951  001398  CFDD FFF7          	movff	postdec2,tblptrh
  5952  00139C                     	if	0	;tblptru may be non-zero
  5953  00139C                     	endif
  5954  00139C                     	if	1	;Program memory is > 0xFFFF, there are 3 active tblptr bytes
  5955  00139C  0E00               	movlw	low (__mediumconst shr (0+16))
  5956  00139E  6EF8               	movwf	tblptru,c
  5957  0013A0                     	endif
  5958  0013A0  0008               	tblrd		*
  5959  0013A2  50F5               	movf	tablat,w,c
  5960  0013A4  0A63               	xorlw	99
  5961  0013A6  A4D8               	btfss	status,2,c
  5962  0013A8  EFD8  F009         	goto	i2u419_41
  5963  0013AC  EFDA  F009         	goto	i2u419_40
  5964  0013B0                     i2u419_41:
  5965  0013B0  EF01  F00A         	goto	i2l3728
  5966  0013B4                     i2u419_40:
  5967  0013B4                     
  5968                           ; BSR set to: 0
  5969                           ;/opt/microchip/xc8/v2.30/pic/sources/c99/common/doprnt.c: 815:             ++*fmt;
  5970  0013B4  C045  FFD9         	movff	vfpfcnvrt@fmt,fsr2l
  5971  0013B8  C046  FFDA         	movff	vfpfcnvrt@fmt+1,fsr2h
  5972  0013BC  2ADE               	incf	postinc2,f,c
  5973  0013BE  0E00               	movlw	0
  5974  0013C0  22DD               	addwfc	postdec2,f,c
  5975                           
  5976                           ;/opt/microchip/xc8/v2.30/pic/sources/c99/common/doprnt.c: 816:             c = (unsigne
      +                          d char)(*(int *)__va_arg(*(int **)ap, (int)0));
  5977  0013C2  C047  FFD9         	movff	vfpfcnvrt@ap,fsr2l
  5978  0013C6  C048  FFDA         	movff	vfpfcnvrt@ap+1,fsr2h
  5979  0013CA  CFDF F049          	movff	indf2,??_vfpfcnvrt
  5980  0013CE  0E02               	movlw	2
  5981  0013D0  26DE               	addwf	postinc2,f,c
  5982  0013D2  CFDF F04A          	movff	indf2,??_vfpfcnvrt+1
  5983  0013D6  0E00               	movlw	0
  5984  0013D8  22DD               	addwfc	postdec2,f,c
  5985  0013DA  C049  FFD9         	movff	??_vfpfcnvrt,fsr2l
  5986  0013DE  C04A  FFDA         	movff	??_vfpfcnvrt+1,fsr2h
  5987  0013E2  50DF               	movf	indf2,w,c
  5988  0013E4  6F72               	movwf	vfpfcnvrt@c& (0+255),b
  5989  0013E6                     
  5990                           ; BSR set to: 0
  5991                           ;/opt/microchip/xc8/v2.30/pic/sources/c99/common/doprnt.c: 817:             return ctoa(
      +                          fp, c);
  5992  0013E6  C043  F00A         	movff	vfpfcnvrt@fp,ctoa@fp
  5993  0013EA  C044  F00B         	movff	vfpfcnvrt@fp+1,ctoa@fp+1
  5994  0013EE  C072  F00C         	movff	vfpfcnvrt@c,ctoa@c
  5995  0013F2  EC6B  F020         	call	_ctoa	;wreg free
  5996  0013F6  C00A  F043         	movff	?_ctoa,?_vfpfcnvrt
  5997  0013FA  C00B  F044         	movff	?_ctoa+1,?_vfpfcnvrt+1
  5998  0013FE  EF7A  F011         	goto	i2l1232
  5999  001402                     i2l3728:
  6000                           
  6001                           ; BSR set to: 0
  6002                           ;/opt/microchip/xc8/v2.30/pic/sources/c99/common/doprnt.c: 824:         if (!strncmp(*fm
      +                          t, "hhd", ((sizeof("hhd")/sizeof("hhd"[0]))-1)) || !strncmp(*fmt, "hhi", ((sizeof("hhi")
      +                          /sizeof("hhi"[0]))-1))) {
  6003  001402  C045  FFD9         	movff	vfpfcnvrt@fmt,fsr2l
  6004  001406  C046  FFDA         	movff	vfpfcnvrt@fmt+1,fsr2h
  6005  00140A  CFDE F001          	movff	postinc2,strncmp@_l
  6006  00140E  CFDD F002          	movff	postdec2,strncmp@_l+1
  6007  001412  0E0A               	movlw	low STR_8
  6008  001414  6E03               	movwf	strncmp@_r^0,c
  6009  001416  0E10               	movlw	high STR_8
  6010  001418  6E04               	movwf	(strncmp@_r+1)^0,c
  6011  00141A  0E00               	movlw	0
  6012  00141C  6E06               	movwf	(strncmp@n+1)^0,c
  6013  00141E  0E03               	movlw	3
  6014  001420  6E05               	movwf	strncmp@n^0,c
  6015  001422  ECFE  F01E         	call	_strncmp	;wreg free
  6016  001426  5001               	movf	?_strncmp^0,w,c
  6017  001428  1002               	iorwf	(?_strncmp+1)^0,w,c
  6018  00142A  B4D8               	btfsc	status,2,c
  6019  00142C  EF1A  F00A         	goto	i2u420_41
  6020  001430  EF1C  F00A         	goto	i2u420_40
  6021  001434                     i2u420_41:
  6022  001434  EF37  F00A         	goto	i2l3732
  6023  001438                     i2u420_40:
  6024  001438  C045  FFD9         	movff	vfpfcnvrt@fmt,fsr2l
  6025  00143C  C046  FFDA         	movff	vfpfcnvrt@fmt+1,fsr2h
  6026  001440  CFDE F001          	movff	postinc2,strncmp@_l
  6027  001444  CFDD F002          	movff	postdec2,strncmp@_l+1
  6028  001448  0E0E               	movlw	low STR_12
  6029  00144A  6E03               	movwf	strncmp@_r^0,c
  6030  00144C  0E10               	movlw	high STR_12
  6031  00144E  6E04               	movwf	(strncmp@_r+1)^0,c
  6032  001450  0E00               	movlw	0
  6033  001452  6E06               	movwf	(strncmp@n+1)^0,c
  6034  001454  0E03               	movlw	3
  6035  001456  6E05               	movwf	strncmp@n^0,c
  6036  001458  ECFE  F01E         	call	_strncmp	;wreg free
  6037  00145C  5001               	movf	?_strncmp^0,w,c
  6038  00145E  1002               	iorwf	(?_strncmp+1)^0,w,c
  6039  001460  A4D8               	btfss	status,2,c
  6040  001462  EF35  F00A         	goto	i2u421_41
  6041  001466  EF37  F00A         	goto	i2u421_40
  6042  00146A                     i2u421_41:
  6043  00146A  EF78  F00A         	goto	i2l3738
  6044  00146E                     i2u421_40:
  6045  00146E                     i2l3732:
  6046                           
  6047                           ;/opt/microchip/xc8/v2.30/pic/sources/c99/common/doprnt.c: 825: ;/opt/microchip/xc8/v2.3
      +                          0/pic/sources/c99/common/doprnt.c: 827:             *fmt += ((sizeof("hhd")/sizeof("hhd"
      +                          [0]))-1);
  6048  00146E  0E03               	movlw	3
  6049  001470  C045  FFD9         	movff	vfpfcnvrt@fmt,fsr2l
  6050  001474  C046  FFDA         	movff	vfpfcnvrt@fmt+1,fsr2h
  6051  001478  26DE               	addwf	postinc2,f,c
  6052  00147A  0E00               	movlw	0
  6053  00147C  22DD               	addwfc	postdec2,f,c
  6054                           
  6055                           ;/opt/microchip/xc8/v2.30/pic/sources/c99/common/doprnt.c: 828:             ll = (long l
      +                          ong)(signed char)(*(int *)__va_arg(*(int **)ap, (int)0));
  6056  00147E  C047  FFD9         	movff	vfpfcnvrt@ap,fsr2l
  6057  001482  C048  FFDA         	movff	vfpfcnvrt@ap+1,fsr2h
  6058  001486  CFDF F049          	movff	indf2,??_vfpfcnvrt
  6059  00148A  0E02               	movlw	2
  6060  00148C  26DE               	addwf	postinc2,f,c
  6061  00148E  CFDF F04A          	movff	indf2,??_vfpfcnvrt+1
  6062  001492  0E00               	movlw	0
  6063  001494  22DD               	addwfc	postdec2,f,c
  6064  001496  C049  FFD9         	movff	??_vfpfcnvrt,fsr2l
  6065  00149A  C04A  FFDA         	movff	??_vfpfcnvrt+1,fsr2h
  6066  00149E  50DF               	movf	indf2,w,c
  6067  0014A0  0100               	movlb	0	; () banked
  6068  0014A2  6F68               	movwf	vfpfcnvrt@ll& (0+255),b
  6069  0014A4  0E00               	movlw	0
  6070  0014A6  BF68               	btfsc	vfpfcnvrt@ll& (0+255),7,b
  6071  0014A8  0EFF               	movlw	-1
  6072  0014AA  6F69               	movwf	(vfpfcnvrt@ll+1)& (0+255),b
  6073  0014AC  6F6A               	movwf	(vfpfcnvrt@ll+2)& (0+255),b
  6074  0014AE  6F6B               	movwf	(vfpfcnvrt@ll+3)& (0+255),b
  6075  0014B0  6F6C               	movwf	(vfpfcnvrt@ll+4)& (0+255),b
  6076  0014B2  6F6D               	movwf	(vfpfcnvrt@ll+5)& (0+255),b
  6077  0014B4  6F6E               	movwf	(vfpfcnvrt@ll+6)& (0+255),b
  6078  0014B6  6F6F               	movwf	(vfpfcnvrt@ll+7)& (0+255),b
  6079  0014B8                     i2l3734:
  6080                           
  6081                           ; BSR set to: 0
  6082                           ;/opt/microchip/xc8/v2.30/pic/sources/c99/common/doprnt.c: 830:             return dtoa(
      +                          fp, ll);
  6083  0014B8  C043  F01C         	movff	vfpfcnvrt@fp,dtoa@fp
  6084  0014BC  C044  F01D         	movff	vfpfcnvrt@fp+1,dtoa@fp+1
  6085  0014C0  C068  F01E         	movff	vfpfcnvrt@ll,dtoa@d
  6086  0014C4  C069  F01F         	movff	vfpfcnvrt@ll+1,dtoa@d+1
  6087  0014C8  C06A  F020         	movff	vfpfcnvrt@ll+2,dtoa@d+2
  6088  0014CC  C06B  F021         	movff	vfpfcnvrt@ll+3,dtoa@d+3
  6089  0014D0  C06C  F022         	movff	vfpfcnvrt@ll+4,dtoa@d+4
  6090  0014D4  C06D  F023         	movff	vfpfcnvrt@ll+5,dtoa@d+5
  6091  0014D8  C06E  F024         	movff	vfpfcnvrt@ll+6,dtoa@d+6
  6092  0014DC  C06F  F025         	movff	vfpfcnvrt@ll+7,dtoa@d+7
  6093  0014E0  ECEF  F014         	call	_dtoa	;wreg free
  6094  0014E4  C01C  F043         	movff	?_dtoa,?_vfpfcnvrt
  6095  0014E8  C01D  F044         	movff	?_dtoa+1,?_vfpfcnvrt+1
  6096  0014EC  EF7A  F011         	goto	i2l1232
  6097  0014F0                     i2l3738:
  6098                           
  6099                           ;/opt/microchip/xc8/v2.30/pic/sources/c99/common/doprnt.c: 836:         if (!strncmp(*fm
      +                          t, "hd", ((sizeof("hd")/sizeof("hd"[0]))-1)) || !strncmp(*fmt, "hi", ((sizeof("hi")/size
      +                          of("hi"[0]))-1))) {
  6100  0014F0  C045  FFD9         	movff	vfpfcnvrt@fmt,fsr2l
  6101  0014F4  C046  FFDA         	movff	vfpfcnvrt@fmt+1,fsr2h
  6102  0014F8  CFDE F001          	movff	postinc2,strncmp@_l
  6103  0014FC  CFDD F002          	movff	postdec2,strncmp@_l+1
  6104  001500  0E0B               	movlw	low (STR_8+1)
  6105  001502  6E03               	movwf	strncmp@_r^0,c
  6106  001504  0E10               	movlw	high (STR_8+1)
  6107  001506  6E04               	movwf	(strncmp@_r+1)^0,c
  6108  001508  0E00               	movlw	0
  6109  00150A  6E06               	movwf	(strncmp@n+1)^0,c
  6110  00150C  0E02               	movlw	2
  6111  00150E  6E05               	movwf	strncmp@n^0,c
  6112  001510  ECFE  F01E         	call	_strncmp	;wreg free
  6113  001514  5001               	movf	?_strncmp^0,w,c
  6114  001516  1002               	iorwf	(?_strncmp+1)^0,w,c
  6115  001518  B4D8               	btfsc	status,2,c
  6116  00151A  EF91  F00A         	goto	i2u422_41
  6117  00151E  EF93  F00A         	goto	i2u422_40
  6118  001522                     i2u422_41:
  6119  001522  EFAE  F00A         	goto	i2l3742
  6120  001526                     i2u422_40:
  6121  001526  C045  FFD9         	movff	vfpfcnvrt@fmt,fsr2l
  6122  00152A  C046  FFDA         	movff	vfpfcnvrt@fmt+1,fsr2h
  6123  00152E  CFDE F001          	movff	postinc2,strncmp@_l
  6124  001532  CFDD F002          	movff	postdec2,strncmp@_l+1
  6125  001536  0E0F               	movlw	low (STR_12+1)
  6126  001538  6E03               	movwf	strncmp@_r^0,c
  6127  00153A  0E10               	movlw	high (STR_12+1)
  6128  00153C  6E04               	movwf	(strncmp@_r+1)^0,c
  6129  00153E  0E00               	movlw	0
  6130  001540  6E06               	movwf	(strncmp@n+1)^0,c
  6131  001542  0E02               	movlw	2
  6132  001544  6E05               	movwf	strncmp@n^0,c
  6133  001546  ECFE  F01E         	call	_strncmp	;wreg free
  6134  00154A  5001               	movf	?_strncmp^0,w,c
  6135  00154C  1002               	iorwf	(?_strncmp+1)^0,w,c
  6136  00154E  A4D8               	btfss	status,2,c
  6137  001550  EFAC  F00A         	goto	i2u423_41
  6138  001554  EFAE  F00A         	goto	i2u423_40
  6139  001558                     i2u423_41:
  6140  001558  EFD6  F00A         	goto	i2l3748
  6141  00155C                     i2u423_40:
  6142  00155C                     i2l3742:
  6143                           
  6144                           ;/opt/microchip/xc8/v2.30/pic/sources/c99/common/doprnt.c: 837: ;/opt/microchip/xc8/v2.3
      +                          0/pic/sources/c99/common/doprnt.c: 839:             *fmt += ((sizeof("hd")/sizeof("hd"[0
      +                          ]))-1);
  6145  00155C  0E02               	movlw	2
  6146  00155E  C045  FFD9         	movff	vfpfcnvrt@fmt,fsr2l
  6147  001562  C046  FFDA         	movff	vfpfcnvrt@fmt+1,fsr2h
  6148  001566  26DE               	addwf	postinc2,f,c
  6149  001568  0E00               	movlw	0
  6150  00156A  22DD               	addwfc	postdec2,f,c
  6151                           
  6152                           ;/opt/microchip/xc8/v2.30/pic/sources/c99/common/doprnt.c: 840:             ll = (long l
      +                          ong)(short)(*(int *)__va_arg(*(int **)ap, (int)0));
  6153  00156C  C047  FFD9         	movff	vfpfcnvrt@ap,fsr2l
  6154  001570  C048  FFDA         	movff	vfpfcnvrt@ap+1,fsr2h
  6155  001574  CFDF F049          	movff	indf2,??_vfpfcnvrt
  6156  001578  0E02               	movlw	2
  6157  00157A  26DE               	addwf	postinc2,f,c
  6158  00157C  CFDF F04A          	movff	indf2,??_vfpfcnvrt+1
  6159  001580  0E00               	movlw	0
  6160  001582  22DD               	addwfc	postdec2,f,c
  6161  001584  C049  FFD9         	movff	??_vfpfcnvrt,fsr2l
  6162  001588  C04A  FFDA         	movff	??_vfpfcnvrt+1,fsr2h
  6163  00158C  CFDE F068          	movff	postinc2,vfpfcnvrt@ll
  6164  001590  CFDD F069          	movff	postdec2,vfpfcnvrt@ll+1
  6165  001594  0100               	movlb	0	; () banked
  6166  001596  0E00               	movlw	0
  6167  001598  BF69               	btfsc	(vfpfcnvrt@ll+1)& (0+255),7,b
  6168  00159A  0EFF               	movlw	-1
  6169  00159C  6F6A               	movwf	(vfpfcnvrt@ll+2)& (0+255),b
  6170  00159E  6F6B               	movwf	(vfpfcnvrt@ll+3)& (0+255),b
  6171  0015A0  6F6C               	movwf	(vfpfcnvrt@ll+4)& (0+255),b
  6172  0015A2  6F6D               	movwf	(vfpfcnvrt@ll+5)& (0+255),b
  6173  0015A4  6F6E               	movwf	(vfpfcnvrt@ll+6)& (0+255),b
  6174  0015A6  6F6F               	movwf	(vfpfcnvrt@ll+7)& (0+255),b
  6175  0015A8  EF5C  F00A         	goto	i2l3734
  6176  0015AC                     i2l3748:
  6177                           
  6178                           ;/opt/microchip/xc8/v2.30/pic/sources/c99/common/doprnt.c: 847:         if ((*fmt[0] == 
      +                          'd') || (*fmt[0] == 'i')) {
  6179  0015AC  C045  FFD9         	movff	vfpfcnvrt@fmt,fsr2l
  6180  0015B0  C046  FFDA         	movff	vfpfcnvrt@fmt+1,fsr2h
  6181  0015B4  CFDE FFF6          	movff	postinc2,tblptrl
  6182  0015B8  CFDD FFF7          	movff	postdec2,tblptrh
  6183  0015BC                     	if	0	;tblptru may be non-zero
  6184  0015BC                     	endif
  6185  0015BC                     	if	1	;Program memory is > 0xFFFF, there are 3 active tblptr bytes
  6186  0015BC  0E00               	movlw	low (__mediumconst shr (0+16))
  6187  0015BE  6EF8               	movwf	tblptru,c
  6188  0015C0                     	endif
  6189  0015C0  0008               	tblrd		*
  6190  0015C2  50F5               	movf	tablat,w,c
  6191  0015C4  0A64               	xorlw	100
  6192  0015C6  B4D8               	btfsc	status,2,c
  6193  0015C8  EFE8  F00A         	goto	i2u424_41
  6194  0015CC  EFEA  F00A         	goto	i2u424_40
  6195  0015D0                     i2u424_41:
  6196  0015D0  EFFE  F00A         	goto	i2l3752
  6197  0015D4                     i2u424_40:
  6198  0015D4  C045  FFD9         	movff	vfpfcnvrt@fmt,fsr2l
  6199  0015D8  C046  FFDA         	movff	vfpfcnvrt@fmt+1,fsr2h
  6200  0015DC  CFDE FFF6          	movff	postinc2,tblptrl
  6201  0015E0  CFDD FFF7          	movff	postdec2,tblptrh
  6202  0015E4                     	if	0	;tblptru may be non-zero
  6203  0015E4                     	endif
  6204  0015E4                     	if	1	;Program memory is > 0xFFFF, there are 3 active tblptr bytes
  6205  0015E4  0E00               	movlw	low (__mediumconst shr (0+16))
  6206  0015E6  6EF8               	movwf	tblptru,c
  6207  0015E8                     	endif
  6208  0015E8  0008               	tblrd		*
  6209  0015EA  50F5               	movf	tablat,w,c
  6210  0015EC  0A69               	xorlw	105
  6211  0015EE  A4D8               	btfss	status,2,c
  6212  0015F0  EFFC  F00A         	goto	i2u425_41
  6213  0015F4  EFFE  F00A         	goto	i2u425_40
  6214  0015F8                     i2u425_41:
  6215  0015F8  EF25  F00B         	goto	i2l3758
  6216  0015FC                     i2u425_40:
  6217  0015FC                     i2l3752:
  6218                           
  6219                           ;/opt/microchip/xc8/v2.30/pic/sources/c99/common/doprnt.c: 849:             ++*fmt;
  6220  0015FC  C045  FFD9         	movff	vfpfcnvrt@fmt,fsr2l
  6221  001600  C046  FFDA         	movff	vfpfcnvrt@fmt+1,fsr2h
  6222  001604  2ADE               	incf	postinc2,f,c
  6223  001606  0E00               	movlw	0
  6224  001608  22DD               	addwfc	postdec2,f,c
  6225                           
  6226                           ;/opt/microchip/xc8/v2.30/pic/sources/c99/common/doprnt.c: 850:             ll = (long l
      +                          ong)(*(int *)__va_arg(*(int **)ap, (int)0));
  6227  00160A  C047  FFD9         	movff	vfpfcnvrt@ap,fsr2l
  6228  00160E  C048  FFDA         	movff	vfpfcnvrt@ap+1,fsr2h
  6229  001612  CFDF F049          	movff	indf2,??_vfpfcnvrt
  6230  001616  0E02               	movlw	2
  6231  001618  26DE               	addwf	postinc2,f,c
  6232  00161A  CFDF F04A          	movff	indf2,??_vfpfcnvrt+1
  6233  00161E  0E00               	movlw	0
  6234  001620  22DD               	addwfc	postdec2,f,c
  6235  001622  C049  FFD9         	movff	??_vfpfcnvrt,fsr2l
  6236  001626  C04A  FFDA         	movff	??_vfpfcnvrt+1,fsr2h
  6237  00162A  CFDE F068          	movff	postinc2,vfpfcnvrt@ll
  6238  00162E  CFDD F069          	movff	postdec2,vfpfcnvrt@ll+1
  6239  001632  0100               	movlb	0	; () banked
  6240  001634  0E00               	movlw	0
  6241  001636  BF69               	btfsc	(vfpfcnvrt@ll+1)& (0+255),7,b
  6242  001638  0EFF               	movlw	-1
  6243  00163A  6F6A               	movwf	(vfpfcnvrt@ll+2)& (0+255),b
  6244  00163C  6F6B               	movwf	(vfpfcnvrt@ll+3)& (0+255),b
  6245  00163E  6F6C               	movwf	(vfpfcnvrt@ll+4)& (0+255),b
  6246  001640  6F6D               	movwf	(vfpfcnvrt@ll+5)& (0+255),b
  6247  001642  6F6E               	movwf	(vfpfcnvrt@ll+6)& (0+255),b
  6248  001644  6F6F               	movwf	(vfpfcnvrt@ll+7)& (0+255),b
  6249  001646  EF5C  F00A         	goto	i2l3734
  6250  00164A                     i2l3758:
  6251                           
  6252                           ;/opt/microchip/xc8/v2.30/pic/sources/c99/common/doprnt.c: 905:         if (!strncmp(*fm
      +                          t, "zd", ((sizeof("zd")/sizeof("zd"[0]))-1)) || !strncmp(*fmt, "zi", ((sizeof("zi")/size
      +                          of("zi"[0]))-1))) {
  6253  00164A  C045  FFD9         	movff	vfpfcnvrt@fmt,fsr2l
  6254  00164E  C046  FFDA         	movff	vfpfcnvrt@fmt+1,fsr2h
  6255  001652  CFDE F001          	movff	postinc2,strncmp@_l
  6256  001656  CFDD F002          	movff	postdec2,strncmp@_l+1
  6257  00165A  0E3D               	movlw	low STR_26
  6258  00165C  6E03               	movwf	strncmp@_r^0,c
  6259  00165E  0E10               	movlw	high STR_26
  6260  001660  6E04               	movwf	(strncmp@_r+1)^0,c
  6261  001662  0E00               	movlw	0
  6262  001664  6E06               	movwf	(strncmp@n+1)^0,c
  6263  001666  0E02               	movlw	2
  6264  001668  6E05               	movwf	strncmp@n^0,c
  6265  00166A  ECFE  F01E         	call	_strncmp	;wreg free
  6266  00166E  5001               	movf	?_strncmp^0,w,c
  6267  001670  1002               	iorwf	(?_strncmp+1)^0,w,c
  6268  001672  B4D8               	btfsc	status,2,c
  6269  001674  EF3E  F00B         	goto	i2u426_41
  6270  001678  EF40  F00B         	goto	i2u426_40
  6271  00167C                     i2u426_41:
  6272  00167C  EF5B  F00B         	goto	i2l3762
  6273  001680                     i2u426_40:
  6274  001680  C045  FFD9         	movff	vfpfcnvrt@fmt,fsr2l
  6275  001684  C046  FFDA         	movff	vfpfcnvrt@fmt+1,fsr2h
  6276  001688  CFDE F001          	movff	postinc2,strncmp@_l
  6277  00168C  CFDD F002          	movff	postdec2,strncmp@_l+1
  6278  001690  0E40               	movlw	low STR_30
  6279  001692  6E03               	movwf	strncmp@_r^0,c
  6280  001694  0E10               	movlw	high STR_30
  6281  001696  6E04               	movwf	(strncmp@_r+1)^0,c
  6282  001698  0E00               	movlw	0
  6283  00169A  6E06               	movwf	(strncmp@n+1)^0,c
  6284  00169C  0E02               	movlw	2
  6285  00169E  6E05               	movwf	strncmp@n^0,c
  6286  0016A0  ECFE  F01E         	call	_strncmp	;wreg free
  6287  0016A4  5001               	movf	?_strncmp^0,w,c
  6288  0016A6  1002               	iorwf	(?_strncmp+1)^0,w,c
  6289  0016A8  A4D8               	btfss	status,2,c
  6290  0016AA  EF59  F00B         	goto	i2u427_41
  6291  0016AE  EF5B  F00B         	goto	i2u427_40
  6292  0016B2                     i2u427_41:
  6293  0016B2  EF84  F00B         	goto	i2l3768
  6294  0016B6                     i2u427_40:
  6295  0016B6                     i2l3762:
  6296                           
  6297                           ;/opt/microchip/xc8/v2.30/pic/sources/c99/common/doprnt.c: 906: ;/opt/microchip/xc8/v2.3
      +                          0/pic/sources/c99/common/doprnt.c: 908:             *fmt += ((sizeof("zd")/sizeof("zd"[0
      +                          ]))-1);
  6298  0016B6  0E02               	movlw	2
  6299  0016B8  C045  FFD9         	movff	vfpfcnvrt@fmt,fsr2l
  6300  0016BC  C046  FFDA         	movff	vfpfcnvrt@fmt+1,fsr2h
  6301  0016C0  26DE               	addwf	postinc2,f,c
  6302  0016C2  0E00               	movlw	0
  6303  0016C4  22DD               	addwfc	postdec2,f,c
  6304                           
  6305                           ;/opt/microchip/xc8/v2.30/pic/sources/c99/common/doprnt.c: 909:             ll = (long l
      +                          ong)(*(size_t *)__va_arg(*(size_t **)ap, (size_t)0));
  6306  0016C6  C047  FFD9         	movff	vfpfcnvrt@ap,fsr2l
  6307  0016CA  C048  FFDA         	movff	vfpfcnvrt@ap+1,fsr2h
  6308  0016CE  CFDF F049          	movff	indf2,??_vfpfcnvrt
  6309  0016D2  0E02               	movlw	2
  6310  0016D4  26DE               	addwf	postinc2,f,c
  6311  0016D6  CFDF F04A          	movff	indf2,??_vfpfcnvrt+1
  6312  0016DA  0E00               	movlw	0
  6313  0016DC  22DD               	addwfc	postdec2,f,c
  6314  0016DE  C049  FFD9         	movff	??_vfpfcnvrt,fsr2l
  6315  0016E2  C04A  FFDA         	movff	??_vfpfcnvrt+1,fsr2h
  6316  0016E6  CFDE F04B          	movff	postinc2,??_vfpfcnvrt+2
  6317  0016EA  CFDD F04C          	movff	postdec2,??_vfpfcnvrt+3
  6318  0016EE  C04B  F068         	movff	??_vfpfcnvrt+2,vfpfcnvrt@ll
  6319  0016F2  C04C  F069         	movff	??_vfpfcnvrt+3,vfpfcnvrt@ll+1
  6320  0016F6  0100               	movlb	0	; () banked
  6321  0016F8  6B6A               	clrf	(vfpfcnvrt@ll+2)& (0+255),b
  6322  0016FA  6B6B               	clrf	(vfpfcnvrt@ll+3)& (0+255),b
  6323  0016FC  6B6C               	clrf	(vfpfcnvrt@ll+4)& (0+255),b
  6324  0016FE  6B6D               	clrf	(vfpfcnvrt@ll+5)& (0+255),b
  6325  001700  6B6E               	clrf	(vfpfcnvrt@ll+6)& (0+255),b
  6326  001702  6B6F               	clrf	(vfpfcnvrt@ll+7)& (0+255),b
  6327  001704  EF5C  F00A         	goto	i2l3734
  6328  001708                     i2l3768:
  6329                           
  6330                           ;/opt/microchip/xc8/v2.30/pic/sources/c99/common/doprnt.c: 991:         if (!strncmp(*fm
      +                          t, "hho", ((sizeof("hho")/sizeof("hho"[0]))-1))) {
  6331  001708  C045  FFD9         	movff	vfpfcnvrt@fmt,fsr2l
  6332  00170C  C046  FFDA         	movff	vfpfcnvrt@fmt+1,fsr2h
  6333  001710  CFDE F001          	movff	postinc2,strncmp@_l
  6334  001714  CFDD F002          	movff	postdec2,strncmp@_l+1
  6335  001718  0E16               	movlw	low STR_35
  6336  00171A  6E03               	movwf	strncmp@_r^0,c
  6337  00171C  0E10               	movlw	high STR_35
  6338  00171E  6E04               	movwf	(strncmp@_r+1)^0,c
  6339  001720  0E00               	movlw	0
  6340  001722  6E06               	movwf	(strncmp@n+1)^0,c
  6341  001724  0E03               	movlw	3
  6342  001726  6E05               	movwf	strncmp@n^0,c
  6343  001728  ECFE  F01E         	call	_strncmp	;wreg free
  6344  00172C  5001               	movf	?_strncmp^0,w,c
  6345  00172E  1002               	iorwf	(?_strncmp+1)^0,w,c
  6346  001730  A4D8               	btfss	status,2,c
  6347  001732  EF9D  F00B         	goto	i2u428_41
  6348  001736  EF9F  F00B         	goto	i2u428_40
  6349  00173A                     i2u428_41:
  6350  00173A  EFDF  F00B         	goto	i2l3776
  6351  00173E                     i2u428_40:
  6352  00173E                     
  6353                           ;/opt/microchip/xc8/v2.30/pic/sources/c99/common/doprnt.c: 993:             *fmt += ((si
      +                          zeof("hho")/sizeof("hho"[0]))-1);
  6354  00173E  0E03               	movlw	3
  6355  001740  C045  FFD9         	movff	vfpfcnvrt@fmt,fsr2l
  6356  001744  C046  FFDA         	movff	vfpfcnvrt@fmt+1,fsr2h
  6357  001748  26DE               	addwf	postinc2,f,c
  6358  00174A  0E00               	movlw	0
  6359  00174C  22DD               	addwfc	postdec2,f,c
  6360                           
  6361                           ;/opt/microchip/xc8/v2.30/pic/sources/c99/common/doprnt.c: 994:             llu = (unsig
      +                          ned long long)(unsigned char)(*(int *)__va_arg(*(int **)ap, (int)0));
  6362  00174E  C047  FFD9         	movff	vfpfcnvrt@ap,fsr2l
  6363  001752  C048  FFDA         	movff	vfpfcnvrt@ap+1,fsr2h
  6364  001756  CFDF F049          	movff	indf2,??_vfpfcnvrt
  6365  00175A  0E02               	movlw	2
  6366  00175C  26DE               	addwf	postinc2,f,c
  6367  00175E  CFDF F04A          	movff	indf2,??_vfpfcnvrt+1
  6368  001762  0E00               	movlw	0
  6369  001764  22DD               	addwfc	postdec2,f,c
  6370  001766  C049  FFD9         	movff	??_vfpfcnvrt,fsr2l
  6371  00176A  C04A  FFDA         	movff	??_vfpfcnvrt+1,fsr2h
  6372  00176E  50DF               	movf	indf2,w,c
  6373  001770  6E4B               	movwf	(??_vfpfcnvrt+2)^0,c
  6374  001772  504B               	movf	(??_vfpfcnvrt+2)^0,w,c
  6375  001774  0100               	movlb	0	; () banked
  6376  001776  6F73               	movwf	vfpfcnvrt@llu& (0+255),b
  6377  001778  6B74               	clrf	(vfpfcnvrt@llu+1)& (0+255),b
  6378  00177A  6B75               	clrf	(vfpfcnvrt@llu+2)& (0+255),b
  6379  00177C  6B76               	clrf	(vfpfcnvrt@llu+3)& (0+255),b
  6380  00177E  6B77               	clrf	(vfpfcnvrt@llu+4)& (0+255),b
  6381  001780  6B78               	clrf	(vfpfcnvrt@llu+5)& (0+255),b
  6382  001782  6B79               	clrf	(vfpfcnvrt@llu+6)& (0+255),b
  6383  001784  6B7A               	clrf	(vfpfcnvrt@llu+7)& (0+255),b
  6384  001786                     i2l3772:
  6385                           
  6386                           ; BSR set to: 0
  6387                           ;/opt/microchip/xc8/v2.30/pic/sources/c99/common/doprnt.c: 996:             return otoa(
      +                          fp, llu);
  6388  001786  C043  F01C         	movff	vfpfcnvrt@fp,otoa@fp
  6389  00178A  C044  F01D         	movff	vfpfcnvrt@fp+1,otoa@fp+1
  6390  00178E  C073  F01E         	movff	vfpfcnvrt@llu,otoa@d
  6391  001792  C074  F01F         	movff	vfpfcnvrt@llu+1,otoa@d+1
  6392  001796  C075  F020         	movff	vfpfcnvrt@llu+2,otoa@d+2
  6393  00179A  C076  F021         	movff	vfpfcnvrt@llu+3,otoa@d+3
  6394  00179E  C077  F022         	movff	vfpfcnvrt@llu+4,otoa@d+4
  6395  0017A2  C078  F023         	movff	vfpfcnvrt@llu+5,otoa@d+5
  6396  0017A6  C079  F024         	movff	vfpfcnvrt@llu+6,otoa@d+6
  6397  0017AA  C07A  F025         	movff	vfpfcnvrt@llu+7,otoa@d+7
  6398  0017AE  ECE0  F019         	call	_otoa	;wreg free
  6399  0017B2  C01C  F043         	movff	?_otoa,?_vfpfcnvrt
  6400  0017B6  C01D  F044         	movff	?_otoa+1,?_vfpfcnvrt+1
  6401  0017BA  EF7A  F011         	goto	i2l1232
  6402  0017BE                     i2l3776:
  6403                           
  6404                           ;/opt/microchip/xc8/v2.30/pic/sources/c99/common/doprnt.c: 1002:         if (!strncmp(*f
      +                          mt, "ho", ((sizeof("ho")/sizeof("ho"[0]))-1))) {
  6405  0017BE  C045  FFD9         	movff	vfpfcnvrt@fmt,fsr2l
  6406  0017C2  C046  FFDA         	movff	vfpfcnvrt@fmt+1,fsr2h
  6407  0017C6  CFDE F001          	movff	postinc2,strncmp@_l
  6408  0017CA  CFDD F002          	movff	postdec2,strncmp@_l+1
  6409  0017CE  0E17               	movlw	low (STR_35+1)
  6410  0017D0  6E03               	movwf	strncmp@_r^0,c
  6411  0017D2  0E10               	movlw	high (STR_35+1)
  6412  0017D4  6E04               	movwf	(strncmp@_r+1)^0,c
  6413  0017D6  0E00               	movlw	0
  6414  0017D8  6E06               	movwf	(strncmp@n+1)^0,c
  6415  0017DA  0E02               	movlw	2
  6416  0017DC  6E05               	movwf	strncmp@n^0,c
  6417  0017DE  ECFE  F01E         	call	_strncmp	;wreg free
  6418  0017E2  5001               	movf	?_strncmp^0,w,c
  6419  0017E4  1002               	iorwf	(?_strncmp+1)^0,w,c
  6420  0017E6  A4D8               	btfss	status,2,c
  6421  0017E8  EFF8  F00B         	goto	i2u429_41
  6422  0017EC  EFFA  F00B         	goto	i2u429_40
  6423  0017F0                     i2u429_41:
  6424  0017F0  EF23  F00C         	goto	i2l3784
  6425  0017F4                     i2u429_40:
  6426  0017F4                     
  6427                           ;/opt/microchip/xc8/v2.30/pic/sources/c99/common/doprnt.c: 1004:             *fmt += ((s
      +                          izeof("ho")/sizeof("ho"[0]))-1);
  6428  0017F4  0E02               	movlw	2
  6429  0017F6  C045  FFD9         	movff	vfpfcnvrt@fmt,fsr2l
  6430  0017FA  C046  FFDA         	movff	vfpfcnvrt@fmt+1,fsr2h
  6431  0017FE  26DE               	addwf	postinc2,f,c
  6432  001800  0E00               	movlw	0
  6433  001802  22DD               	addwfc	postdec2,f,c
  6434                           
  6435                           ;/opt/microchip/xc8/v2.30/pic/sources/c99/common/doprnt.c: 1005:             llu = (unsi
      +                          gned long long)(unsigned short)(*(int *)__va_arg(*(int **)ap, (int)0));
  6436  001804  C047  FFD9         	movff	vfpfcnvrt@ap,fsr2l
  6437  001808  C048  FFDA         	movff	vfpfcnvrt@ap+1,fsr2h
  6438  00180C  CFDF F049          	movff	indf2,??_vfpfcnvrt
  6439  001810  0E02               	movlw	2
  6440  001812  26DE               	addwf	postinc2,f,c
  6441  001814  CFDF F04A          	movff	indf2,??_vfpfcnvrt+1
  6442  001818  0E00               	movlw	0
  6443  00181A  22DD               	addwfc	postdec2,f,c
  6444  00181C  C049  FFD9         	movff	??_vfpfcnvrt,fsr2l
  6445  001820  C04A  FFDA         	movff	??_vfpfcnvrt+1,fsr2h
  6446  001824  CFDE F04B          	movff	postinc2,??_vfpfcnvrt+2
  6447  001828  CFDD F04C          	movff	postdec2,??_vfpfcnvrt+3
  6448  00182C  C04B  F073         	movff	??_vfpfcnvrt+2,vfpfcnvrt@llu
  6449  001830  C04C  F074         	movff	??_vfpfcnvrt+3,vfpfcnvrt@llu+1
  6450  001834  0100               	movlb	0	; () banked
  6451  001836  6B75               	clrf	(vfpfcnvrt@llu+2)& (0+255),b
  6452  001838  6B76               	clrf	(vfpfcnvrt@llu+3)& (0+255),b
  6453  00183A  6B77               	clrf	(vfpfcnvrt@llu+4)& (0+255),b
  6454  00183C  6B78               	clrf	(vfpfcnvrt@llu+5)& (0+255),b
  6455  00183E  6B79               	clrf	(vfpfcnvrt@llu+6)& (0+255),b
  6456  001840  6B7A               	clrf	(vfpfcnvrt@llu+7)& (0+255),b
  6457  001842  EFC3  F00B         	goto	i2l3772
  6458  001846                     i2l3784:
  6459                           
  6460                           ;/opt/microchip/xc8/v2.30/pic/sources/c99/common/doprnt.c: 1012:         if (*fmt[0] == 
      +                          'o') {
  6461  001846  C045  FFD9         	movff	vfpfcnvrt@fmt,fsr2l
  6462  00184A  C046  FFDA         	movff	vfpfcnvrt@fmt+1,fsr2h
  6463  00184E  CFDE FFF6          	movff	postinc2,tblptrl
  6464  001852  CFDD FFF7          	movff	postdec2,tblptrh
  6465  001856                     	if	0	;tblptru may be non-zero
  6466  001856                     	endif
  6467  001856                     	if	1	;Program memory is > 0xFFFF, there are 3 active tblptr bytes
  6468  001856  0E00               	movlw	low (__mediumconst shr (0+16))
  6469  001858  6EF8               	movwf	tblptru,c
  6470  00185A                     	endif
  6471  00185A  0008               	tblrd		*
  6472  00185C  50F5               	movf	tablat,w,c
  6473  00185E  0A6F               	xorlw	111
  6474  001860  A4D8               	btfss	status,2,c
  6475  001862  EF35  F00C         	goto	i2u430_41
  6476  001866  EF37  F00C         	goto	i2u430_40
  6477  00186A                     i2u430_41:
  6478  00186A  EF5F  F00C         	goto	i2l3792
  6479  00186E                     i2u430_40:
  6480  00186E                     
  6481                           ;/opt/microchip/xc8/v2.30/pic/sources/c99/common/doprnt.c: 1014:             ++*fmt;
  6482  00186E  C045  FFD9         	movff	vfpfcnvrt@fmt,fsr2l
  6483  001872  C046  FFDA         	movff	vfpfcnvrt@fmt+1,fsr2h
  6484  001876  2ADE               	incf	postinc2,f,c
  6485  001878  0E00               	movlw	0
  6486  00187A  22DD               	addwfc	postdec2,f,c
  6487                           
  6488                           ;/opt/microchip/xc8/v2.30/pic/sources/c99/common/doprnt.c: 1015:             llu = (unsi
      +                          gned long long)(*(unsigned int *)__va_arg(*(unsigned int **)ap, (unsigned int)0));
  6489  00187C  C047  FFD9         	movff	vfpfcnvrt@ap,fsr2l
  6490  001880  C048  FFDA         	movff	vfpfcnvrt@ap+1,fsr2h
  6491  001884  CFDF F049          	movff	indf2,??_vfpfcnvrt
  6492  001888  0E02               	movlw	2
  6493  00188A  26DE               	addwf	postinc2,f,c
  6494  00188C  CFDF F04A          	movff	indf2,??_vfpfcnvrt+1
  6495  001890  0E00               	movlw	0
  6496  001892  22DD               	addwfc	postdec2,f,c
  6497  001894  C049  FFD9         	movff	??_vfpfcnvrt,fsr2l
  6498  001898  C04A  FFDA         	movff	??_vfpfcnvrt+1,fsr2h
  6499  00189C  CFDE F04B          	movff	postinc2,??_vfpfcnvrt+2
  6500  0018A0  CFDD F04C          	movff	postdec2,??_vfpfcnvrt+3
  6501  0018A4  C04B  F073         	movff	??_vfpfcnvrt+2,vfpfcnvrt@llu
  6502  0018A8  C04C  F074         	movff	??_vfpfcnvrt+3,vfpfcnvrt@llu+1
  6503  0018AC  0100               	movlb	0	; () banked
  6504  0018AE  6B75               	clrf	(vfpfcnvrt@llu+2)& (0+255),b
  6505  0018B0  6B76               	clrf	(vfpfcnvrt@llu+3)& (0+255),b
  6506  0018B2  6B77               	clrf	(vfpfcnvrt@llu+4)& (0+255),b
  6507  0018B4  6B78               	clrf	(vfpfcnvrt@llu+5)& (0+255),b
  6508  0018B6  6B79               	clrf	(vfpfcnvrt@llu+6)& (0+255),b
  6509  0018B8  6B7A               	clrf	(vfpfcnvrt@llu+7)& (0+255),b
  6510  0018BA  EFC3  F00B         	goto	i2l3772
  6511  0018BE                     i2l3792:
  6512                           
  6513                           ;/opt/microchip/xc8/v2.30/pic/sources/c99/common/doprnt.c: 1066:         if (!strncmp(*f
      +                          mt, "zo", ((sizeof("zo")/sizeof("zo"[0]))-1))) {
  6514  0018BE  C045  FFD9         	movff	vfpfcnvrt@fmt,fsr2l
  6515  0018C2  C046  FFDA         	movff	vfpfcnvrt@fmt+1,fsr2h
  6516  0018C6  CFDE F001          	movff	postinc2,strncmp@_l
  6517  0018CA  CFDD F002          	movff	postdec2,strncmp@_l+1
  6518  0018CE  0E46               	movlw	low STR_45
  6519  0018D0  6E03               	movwf	strncmp@_r^0,c
  6520  0018D2  0E10               	movlw	high STR_45
  6521  0018D4  6E04               	movwf	(strncmp@_r+1)^0,c
  6522  0018D6  0E00               	movlw	0
  6523  0018D8  6E06               	movwf	(strncmp@n+1)^0,c
  6524  0018DA  0E02               	movlw	2
  6525  0018DC  6E05               	movwf	strncmp@n^0,c
  6526  0018DE  ECFE  F01E         	call	_strncmp	;wreg free
  6527  0018E2  5001               	movf	?_strncmp^0,w,c
  6528  0018E4  1002               	iorwf	(?_strncmp+1)^0,w,c
  6529  0018E6  A4D8               	btfss	status,2,c
  6530  0018E8  EF78  F00C         	goto	i2u431_41
  6531  0018EC  EF7A  F00C         	goto	i2u431_40
  6532  0018F0                     i2u431_41:
  6533  0018F0  EFA3  F00C         	goto	i2l3800
  6534  0018F4                     i2u431_40:
  6535  0018F4                     
  6536                           ;/opt/microchip/xc8/v2.30/pic/sources/c99/common/doprnt.c: 1068:             *fmt += ((s
      +                          izeof("zo")/sizeof("zo"[0]))-1);
  6537  0018F4  0E02               	movlw	2
  6538  0018F6  C045  FFD9         	movff	vfpfcnvrt@fmt,fsr2l
  6539  0018FA  C046  FFDA         	movff	vfpfcnvrt@fmt+1,fsr2h
  6540  0018FE  26DE               	addwf	postinc2,f,c
  6541  001900  0E00               	movlw	0
  6542  001902  22DD               	addwfc	postdec2,f,c
  6543                           
  6544                           ;/opt/microchip/xc8/v2.30/pic/sources/c99/common/doprnt.c: 1069:             llu = (unsi
      +                          gned long long)(*(size_t *)__va_arg(*(size_t **)ap, (size_t)0));
  6545  001904  C047  FFD9         	movff	vfpfcnvrt@ap,fsr2l
  6546  001908  C048  FFDA         	movff	vfpfcnvrt@ap+1,fsr2h
  6547  00190C  CFDF F049          	movff	indf2,??_vfpfcnvrt
  6548  001910  0E02               	movlw	2
  6549  001912  26DE               	addwf	postinc2,f,c
  6550  001914  CFDF F04A          	movff	indf2,??_vfpfcnvrt+1
  6551  001918  0E00               	movlw	0
  6552  00191A  22DD               	addwfc	postdec2,f,c
  6553  00191C  C049  FFD9         	movff	??_vfpfcnvrt,fsr2l
  6554  001920  C04A  FFDA         	movff	??_vfpfcnvrt+1,fsr2h
  6555  001924  CFDE F04B          	movff	postinc2,??_vfpfcnvrt+2
  6556  001928  CFDD F04C          	movff	postdec2,??_vfpfcnvrt+3
  6557  00192C  C04B  F073         	movff	??_vfpfcnvrt+2,vfpfcnvrt@llu
  6558  001930  C04C  F074         	movff	??_vfpfcnvrt+3,vfpfcnvrt@llu+1
  6559  001934  0100               	movlb	0	; () banked
  6560  001936  6B75               	clrf	(vfpfcnvrt@llu+2)& (0+255),b
  6561  001938  6B76               	clrf	(vfpfcnvrt@llu+3)& (0+255),b
  6562  00193A  6B77               	clrf	(vfpfcnvrt@llu+4)& (0+255),b
  6563  00193C  6B78               	clrf	(vfpfcnvrt@llu+5)& (0+255),b
  6564  00193E  6B79               	clrf	(vfpfcnvrt@llu+6)& (0+255),b
  6565  001940  6B7A               	clrf	(vfpfcnvrt@llu+7)& (0+255),b
  6566  001942  EFC3  F00B         	goto	i2l3772
  6567  001946                     i2l3800:
  6568                           
  6569                           ;/opt/microchip/xc8/v2.30/pic/sources/c99/common/doprnt.c: 1080:         if (!strncmp(*f
      +                          mt, "hhn", ((sizeof("hhn")/sizeof("hhn"[0]))-1))) {
  6570  001946  C045  FFD9         	movff	vfpfcnvrt@fmt,fsr2l
  6571  00194A  C046  FFDA         	movff	vfpfcnvrt@fmt+1,fsr2h
  6572  00194E  CFDE F001          	movff	postinc2,strncmp@_l
  6573  001952  CFDD F002          	movff	postdec2,strncmp@_l+1
  6574  001956  0E12               	movlw	low STR_50
  6575  001958  6E03               	movwf	strncmp@_r^0,c
  6576  00195A  0E10               	movlw	high STR_50
  6577  00195C  6E04               	movwf	(strncmp@_r+1)^0,c
  6578  00195E  0E00               	movlw	0
  6579  001960  6E06               	movwf	(strncmp@n+1)^0,c
  6580  001962  0E03               	movlw	3
  6581  001964  6E05               	movwf	strncmp@n^0,c
  6582  001966  ECFE  F01E         	call	_strncmp	;wreg free
  6583  00196A  5001               	movf	?_strncmp^0,w,c
  6584  00196C  1002               	iorwf	(?_strncmp+1)^0,w,c
  6585  00196E  A4D8               	btfss	status,2,c
  6586  001970  EFBC  F00C         	goto	i2u432_41
  6587  001974  EFBE  F00C         	goto	i2u432_40
  6588  001978                     i2u432_41:
  6589  001978  EFE6  F00C         	goto	i2l3810
  6590  00197C                     i2u432_40:
  6591  00197C                     
  6592                           ;/opt/microchip/xc8/v2.30/pic/sources/c99/common/doprnt.c: 1082:             *fmt += ((s
      +                          izeof("hhn")/sizeof("hhn"[0]))-1);
  6593  00197C  0E03               	movlw	3
  6594  00197E  C045  FFD9         	movff	vfpfcnvrt@fmt,fsr2l
  6595  001982  C046  FFDA         	movff	vfpfcnvrt@fmt+1,fsr2h
  6596  001986  26DE               	addwf	postinc2,f,c
  6597  001988  0E00               	movlw	0
  6598  00198A  22DD               	addwfc	postdec2,f,c
  6599                           
  6600                           ;/opt/microchip/xc8/v2.30/pic/sources/c99/common/doprnt.c: 1083:             vp = (void 
      +                          *)(*(char * *)__va_arg(*(char * **)ap, (char *)0));
  6601  00198C  C047  FFD9         	movff	vfpfcnvrt@ap,fsr2l
  6602  001990  C048  FFDA         	movff	vfpfcnvrt@ap+1,fsr2h
  6603  001994  CFDF F049          	movff	indf2,??_vfpfcnvrt
  6604  001998  0E02               	movlw	2
  6605  00199A  26DE               	addwf	postinc2,f,c
  6606  00199C  CFDF F04A          	movff	indf2,??_vfpfcnvrt+1
  6607  0019A0  0E00               	movlw	0
  6608  0019A2  22DD               	addwfc	postdec2,f,c
  6609  0019A4  C049  FFD9         	movff	??_vfpfcnvrt,fsr2l
  6610  0019A8  C04A  FFDA         	movff	??_vfpfcnvrt+1,fsr2h
  6611  0019AC  CFDE F070          	movff	postinc2,vfpfcnvrt@vp
  6612  0019B0  CFDD F071          	movff	postdec2,vfpfcnvrt@vp+1
  6613  0019B4                     
  6614                           ;/opt/microchip/xc8/v2.30/pic/sources/c99/common/doprnt.c: 1084:             *(char *)vp
      +                           = (char)nout;
  6615  0019B4  C070  FFD9         	movff	vfpfcnvrt@vp,fsr2l
  6616  0019B8  C071  FFDA         	movff	vfpfcnvrt@vp+1,fsr2h
  6617  0019BC  C0DC  FFDF         	movff	_nout,indf2
  6618  0019C0                     i2l3806:
  6619                           
  6620                           ;/opt/microchip/xc8/v2.30/pic/sources/c99/common/doprnt.c: 1085:             return 0;
  6621  0019C0  0E00               	movlw	0
  6622  0019C2  6E44               	movwf	(?_vfpfcnvrt+1)^0,c
  6623  0019C4  0E00               	movlw	0
  6624  0019C6  6E43               	movwf	?_vfpfcnvrt^0,c
  6625  0019C8  EF7A  F011         	goto	i2l1232
  6626  0019CC                     i2l3810:
  6627                           
  6628                           ;/opt/microchip/xc8/v2.30/pic/sources/c99/common/doprnt.c: 1090:         if (!strncmp(*f
      +                          mt, "hn", ((sizeof("hn")/sizeof("hn"[0]))-1))) {
  6629  0019CC  C045  FFD9         	movff	vfpfcnvrt@fmt,fsr2l
  6630  0019D0  C046  FFDA         	movff	vfpfcnvrt@fmt+1,fsr2h
  6631  0019D4  CFDE F001          	movff	postinc2,strncmp@_l
  6632  0019D8  CFDD F002          	movff	postdec2,strncmp@_l+1
  6633  0019DC  0E13               	movlw	low (STR_50+1)
  6634  0019DE  6E03               	movwf	strncmp@_r^0,c
  6635  0019E0  0E10               	movlw	high (STR_50+1)
  6636  0019E2  6E04               	movwf	(strncmp@_r+1)^0,c
  6637  0019E4  0E00               	movlw	0
  6638  0019E6  6E06               	movwf	(strncmp@n+1)^0,c
  6639  0019E8  0E02               	movlw	2
  6640  0019EA  6E05               	movwf	strncmp@n^0,c
  6641  0019EC  ECFE  F01E         	call	_strncmp	;wreg free
  6642  0019F0  5001               	movf	?_strncmp^0,w,c
  6643  0019F2  1002               	iorwf	(?_strncmp+1)^0,w,c
  6644  0019F4  A4D8               	btfss	status,2,c
  6645  0019F6  EFFF  F00C         	goto	i2u433_41
  6646  0019FA  EF01  F00D         	goto	i2u433_40
  6647  0019FE                     i2u433_41:
  6648  0019FE  EF27  F00D         	goto	i2l3820
  6649  001A02                     i2u433_40:
  6650  001A02                     
  6651                           ;/opt/microchip/xc8/v2.30/pic/sources/c99/common/doprnt.c: 1092:             *fmt += ((s
      +                          izeof("hn")/sizeof("hn"[0]))-1);
  6652  001A02  0E02               	movlw	2
  6653  001A04  C045  FFD9         	movff	vfpfcnvrt@fmt,fsr2l
  6654  001A08  C046  FFDA         	movff	vfpfcnvrt@fmt+1,fsr2h
  6655  001A0C  26DE               	addwf	postinc2,f,c
  6656  001A0E  0E00               	movlw	0
  6657  001A10  22DD               	addwfc	postdec2,f,c
  6658                           
  6659                           ;/opt/microchip/xc8/v2.30/pic/sources/c99/common/doprnt.c: 1093:             vp = (void 
      +                          *)(*(short * *)__va_arg(*(short * **)ap, (short *)0));
  6660  001A12  C047  FFD9         	movff	vfpfcnvrt@ap,fsr2l
  6661  001A16  C048  FFDA         	movff	vfpfcnvrt@ap+1,fsr2h
  6662  001A1A  CFDF F049          	movff	indf2,??_vfpfcnvrt
  6663  001A1E  0E02               	movlw	2
  6664  001A20  26DE               	addwf	postinc2,f,c
  6665  001A22  CFDF F04A          	movff	indf2,??_vfpfcnvrt+1
  6666  001A26  0E00               	movlw	0
  6667  001A28  22DD               	addwfc	postdec2,f,c
  6668  001A2A  C049  FFD9         	movff	??_vfpfcnvrt,fsr2l
  6669  001A2E  C04A  FFDA         	movff	??_vfpfcnvrt+1,fsr2h
  6670  001A32  CFDE F070          	movff	postinc2,vfpfcnvrt@vp
  6671  001A36  CFDD F071          	movff	postdec2,vfpfcnvrt@vp+1
  6672  001A3A                     
  6673                           ;/opt/microchip/xc8/v2.30/pic/sources/c99/common/doprnt.c: 1094:             *(short *)v
      +                          p = (short)nout;
  6674  001A3A  C070  FFD9         	movff	vfpfcnvrt@vp,fsr2l
  6675  001A3E  C071  FFDA         	movff	vfpfcnvrt@vp+1,fsr2h
  6676  001A42  C0DC  FFDE         	movff	_nout,postinc2
  6677  001A46  C0DD  FFDD         	movff	_nout+1,postdec2
  6678  001A4A  EFE0  F00C         	goto	i2l3806
  6679  001A4E                     i2l3820:
  6680                           
  6681                           ;/opt/microchip/xc8/v2.30/pic/sources/c99/common/doprnt.c: 1099:         if (*fmt[0] == 
      +                          'n') {
  6682  001A4E  C045  FFD9         	movff	vfpfcnvrt@fmt,fsr2l
  6683  001A52  C046  FFDA         	movff	vfpfcnvrt@fmt+1,fsr2h
  6684  001A56  CFDE FFF6          	movff	postinc2,tblptrl
  6685  001A5A  CFDD FFF7          	movff	postdec2,tblptrh
  6686  001A5E                     	if	0	;tblptru may be non-zero
  6687  001A5E                     	endif
  6688  001A5E                     	if	1	;Program memory is > 0xFFFF, there are 3 active tblptr bytes
  6689  001A5E  0E00               	movlw	low (__mediumconst shr (0+16))
  6690  001A60  6EF8               	movwf	tblptru,c
  6691  001A62                     	endif
  6692  001A62  0008               	tblrd		*
  6693  001A64  50F5               	movf	tablat,w,c
  6694  001A66  0A6E               	xorlw	110
  6695  001A68  A4D8               	btfss	status,2,c
  6696  001A6A  EF39  F00D         	goto	i2u434_41
  6697  001A6E  EF3B  F00D         	goto	i2u434_40
  6698  001A72                     i2u434_41:
  6699  001A72  EF60  F00D         	goto	i2l3830
  6700  001A76                     i2u434_40:
  6701  001A76                     
  6702                           ;/opt/microchip/xc8/v2.30/pic/sources/c99/common/doprnt.c: 1100:             ++*fmt;
  6703  001A76  C045  FFD9         	movff	vfpfcnvrt@fmt,fsr2l
  6704  001A7A  C046  FFDA         	movff	vfpfcnvrt@fmt+1,fsr2h
  6705  001A7E  2ADE               	incf	postinc2,f,c
  6706  001A80  0E00               	movlw	0
  6707  001A82  22DD               	addwfc	postdec2,f,c
  6708                           
  6709                           ;/opt/microchip/xc8/v2.30/pic/sources/c99/common/doprnt.c: 1101:             vp = (void 
      +                          *)(*(int * *)__va_arg(*(int * **)ap, (int *)0));
  6710  001A84  C047  FFD9         	movff	vfpfcnvrt@ap,fsr2l
  6711  001A88  C048  FFDA         	movff	vfpfcnvrt@ap+1,fsr2h
  6712  001A8C  CFDF F049          	movff	indf2,??_vfpfcnvrt
  6713  001A90  0E02               	movlw	2
  6714  001A92  26DE               	addwf	postinc2,f,c
  6715  001A94  CFDF F04A          	movff	indf2,??_vfpfcnvrt+1
  6716  001A98  0E00               	movlw	0
  6717  001A9A  22DD               	addwfc	postdec2,f,c
  6718  001A9C  C049  FFD9         	movff	??_vfpfcnvrt,fsr2l
  6719  001AA0  C04A  FFDA         	movff	??_vfpfcnvrt+1,fsr2h
  6720  001AA4  CFDE F070          	movff	postinc2,vfpfcnvrt@vp
  6721  001AA8  CFDD F071          	movff	postdec2,vfpfcnvrt@vp+1
  6722  001AAC                     
  6723                           ;/opt/microchip/xc8/v2.30/pic/sources/c99/common/doprnt.c: 1102:             *(int *)vp 
      +                          = nout;
  6724  001AAC  C070  FFD9         	movff	vfpfcnvrt@vp,fsr2l
  6725  001AB0  C071  FFDA         	movff	vfpfcnvrt@vp+1,fsr2h
  6726  001AB4  C0DC  FFDE         	movff	_nout,postinc2
  6727  001AB8  C0DD  FFDD         	movff	_nout+1,postdec2
  6728  001ABC  EFE0  F00C         	goto	i2l3806
  6729  001AC0                     i2l3830:
  6730                           
  6731                           ;/opt/microchip/xc8/v2.30/pic/sources/c99/common/doprnt.c: 1147:         if (!strncmp(*f
      +                          mt, "zn", ((sizeof("zn")/sizeof("zn"[0]))-1))) {
  6732  001AC0  C045  FFD9         	movff	vfpfcnvrt@fmt,fsr2l
  6733  001AC4  C046  FFDA         	movff	vfpfcnvrt@fmt+1,fsr2h
  6734  001AC8  CFDE F001          	movff	postinc2,strncmp@_l
  6735  001ACC  CFDD F002          	movff	postdec2,strncmp@_l+1
  6736  001AD0  0E43               	movlw	low STR_60
  6737  001AD2  6E03               	movwf	strncmp@_r^0,c
  6738  001AD4  0E10               	movlw	high STR_60
  6739  001AD6  6E04               	movwf	(strncmp@_r+1)^0,c
  6740  001AD8  0E00               	movlw	0
  6741  001ADA  6E06               	movwf	(strncmp@n+1)^0,c
  6742  001ADC  0E02               	movlw	2
  6743  001ADE  6E05               	movwf	strncmp@n^0,c
  6744  001AE0  ECFE  F01E         	call	_strncmp	;wreg free
  6745  001AE4  5001               	movf	?_strncmp^0,w,c
  6746  001AE6  1002               	iorwf	(?_strncmp+1)^0,w,c
  6747  001AE8  A4D8               	btfss	status,2,c
  6748  001AEA  EF79  F00D         	goto	i2u435_41
  6749  001AEE  EF7B  F00D         	goto	i2u435_40
  6750  001AF2                     i2u435_41:
  6751  001AF2  EFA1  F00D         	goto	i2l3840
  6752  001AF6                     i2u435_40:
  6753  001AF6                     
  6754                           ;/opt/microchip/xc8/v2.30/pic/sources/c99/common/doprnt.c: 1149:             *fmt += ((s
      +                          izeof("zn")/sizeof("zn"[0]))-1);
  6755  001AF6  0E02               	movlw	2
  6756  001AF8  C045  FFD9         	movff	vfpfcnvrt@fmt,fsr2l
  6757  001AFC  C046  FFDA         	movff	vfpfcnvrt@fmt+1,fsr2h
  6758  001B00  26DE               	addwf	postinc2,f,c
  6759  001B02  0E00               	movlw	0
  6760  001B04  22DD               	addwfc	postdec2,f,c
  6761                           
  6762                           ;/opt/microchip/xc8/v2.30/pic/sources/c99/common/doprnt.c: 1150:             vp = (void 
      +                          *)(*(size_t * *)__va_arg(*(size_t * **)ap, (size_t *)0));
  6763  001B06  C047  FFD9         	movff	vfpfcnvrt@ap,fsr2l
  6764  001B0A  C048  FFDA         	movff	vfpfcnvrt@ap+1,fsr2h
  6765  001B0E  CFDF F049          	movff	indf2,??_vfpfcnvrt
  6766  001B12  0E02               	movlw	2
  6767  001B14  26DE               	addwf	postinc2,f,c
  6768  001B16  CFDF F04A          	movff	indf2,??_vfpfcnvrt+1
  6769  001B1A  0E00               	movlw	0
  6770  001B1C  22DD               	addwfc	postdec2,f,c
  6771  001B1E  C049  FFD9         	movff	??_vfpfcnvrt,fsr2l
  6772  001B22  C04A  FFDA         	movff	??_vfpfcnvrt+1,fsr2h
  6773  001B26  CFDE F070          	movff	postinc2,vfpfcnvrt@vp
  6774  001B2A  CFDD F071          	movff	postdec2,vfpfcnvrt@vp+1
  6775  001B2E                     
  6776                           ;/opt/microchip/xc8/v2.30/pic/sources/c99/common/doprnt.c: 1151:             *(size_t *)
      +                          vp = (size_t)nout;
  6777  001B2E  C070  FFD9         	movff	vfpfcnvrt@vp,fsr2l
  6778  001B32  C071  FFDA         	movff	vfpfcnvrt@vp+1,fsr2h
  6779  001B36  C0DC  FFDE         	movff	_nout,postinc2
  6780  001B3A  C0DD  FFDD         	movff	_nout+1,postdec2
  6781  001B3E  EFE0  F00C         	goto	i2l3806
  6782  001B42                     i2l3840:
  6783                           
  6784                           ;/opt/microchip/xc8/v2.30/pic/sources/c99/common/doprnt.c: 1160:         if (*fmt[0] == 
      +                          'p') {
  6785  001B42  C045  FFD9         	movff	vfpfcnvrt@fmt,fsr2l
  6786  001B46  C046  FFDA         	movff	vfpfcnvrt@fmt+1,fsr2h
  6787  001B4A  CFDE FFF6          	movff	postinc2,tblptrl
  6788  001B4E  CFDD FFF7          	movff	postdec2,tblptrh
  6789  001B52                     	if	0	;tblptru may be non-zero
  6790  001B52                     	endif
  6791  001B52                     	if	1	;Program memory is > 0xFFFF, there are 3 active tblptr bytes
  6792  001B52  0E00               	movlw	low (__mediumconst shr (0+16))
  6793  001B54  6EF8               	movwf	tblptru,c
  6794  001B56                     	endif
  6795  001B56  0008               	tblrd		*
  6796  001B58  50F5               	movf	tablat,w,c
  6797  001B5A  0A70               	xorlw	112
  6798  001B5C  A4D8               	btfss	status,2,c
  6799  001B5E  EFB3  F00D         	goto	i2u436_41
  6800  001B62  EFB5  F00D         	goto	i2u436_40
  6801  001B66                     i2u436_41:
  6802  001B66  EFF9  F00D         	goto	i2l3848
  6803  001B6A                     i2u436_40:
  6804  001B6A                     
  6805                           ;/opt/microchip/xc8/v2.30/pic/sources/c99/common/doprnt.c: 1162:             ++*fmt;
  6806  001B6A  C045  FFD9         	movff	vfpfcnvrt@fmt,fsr2l
  6807  001B6E  C046  FFDA         	movff	vfpfcnvrt@fmt+1,fsr2h
  6808  001B72  2ADE               	incf	postinc2,f,c
  6809  001B74  0E00               	movlw	0
  6810  001B76  22DD               	addwfc	postdec2,f,c
  6811                           
  6812                           ;/opt/microchip/xc8/v2.30/pic/sources/c99/common/doprnt.c: 1163:             llu = (unsi
      +                          gned long long)(uintptr_t)(*(void * *)__va_arg(*(void * **)ap, (void *)0));
  6813  001B78  C047  FFD9         	movff	vfpfcnvrt@ap,fsr2l
  6814  001B7C  C048  FFDA         	movff	vfpfcnvrt@ap+1,fsr2h
  6815  001B80  CFDF F049          	movff	indf2,??_vfpfcnvrt
  6816  001B84  0E02               	movlw	2
  6817  001B86  26DE               	addwf	postinc2,f,c
  6818  001B88  CFDF F04A          	movff	indf2,??_vfpfcnvrt+1
  6819  001B8C  0E00               	movlw	0
  6820  001B8E  22DD               	addwfc	postdec2,f,c
  6821  001B90  C049  FFD9         	movff	??_vfpfcnvrt,fsr2l
  6822  001B94  C04A  FFDA         	movff	??_vfpfcnvrt+1,fsr2h
  6823  001B98  CFDE F04B          	movff	postinc2,??_vfpfcnvrt+2
  6824  001B9C  CFDD F04C          	movff	postdec2,??_vfpfcnvrt+3
  6825  001BA0  C04B  F073         	movff	??_vfpfcnvrt+2,vfpfcnvrt@llu
  6826  001BA4  C04C  F074         	movff	??_vfpfcnvrt+3,vfpfcnvrt@llu+1
  6827  001BA8  0100               	movlb	0	; () banked
  6828  001BAA  6B75               	clrf	(vfpfcnvrt@llu+2)& (0+255),b
  6829  001BAC  6B76               	clrf	(vfpfcnvrt@llu+3)& (0+255),b
  6830  001BAE  6B77               	clrf	(vfpfcnvrt@llu+4)& (0+255),b
  6831  001BB0  6B78               	clrf	(vfpfcnvrt@llu+5)& (0+255),b
  6832  001BB2  6B79               	clrf	(vfpfcnvrt@llu+6)& (0+255),b
  6833  001BB4  6B7A               	clrf	(vfpfcnvrt@llu+7)& (0+255),b
  6834  001BB6                     
  6835                           ; BSR set to: 0
  6836                           ;/opt/microchip/xc8/v2.30/pic/sources/c99/common/doprnt.c: 1165:             return xtoa
      +                          (fp, llu, 'x');
  6837  001BB6  C043  F01C         	movff	vfpfcnvrt@fp,xtoa@fp
  6838  001BBA  C044  F01D         	movff	vfpfcnvrt@fp+1,xtoa@fp+1
  6839  001BBE  C073  F01E         	movff	vfpfcnvrt@llu,xtoa@d
  6840  001BC2  C074  F01F         	movff	vfpfcnvrt@llu+1,xtoa@d+1
  6841  001BC6  C075  F020         	movff	vfpfcnvrt@llu+2,xtoa@d+2
  6842  001BCA  C076  F021         	movff	vfpfcnvrt@llu+3,xtoa@d+3
  6843  001BCE  C077  F022         	movff	vfpfcnvrt@llu+4,xtoa@d+4
  6844  001BD2  C078  F023         	movff	vfpfcnvrt@llu+5,xtoa@d+5
  6845  001BD6  C079  F024         	movff	vfpfcnvrt@llu+6,xtoa@d+6
  6846  001BDA  C07A  F025         	movff	vfpfcnvrt@llu+7,xtoa@d+7
  6847  001BDE  0E78               	movlw	120
  6848  001BE0  6E26               	movwf	xtoa@x^0,c
  6849  001BE2  EC61  F016         	call	_xtoa	;wreg free
  6850  001BE6  C01C  F043         	movff	?_xtoa,?_vfpfcnvrt
  6851  001BEA  C01D  F044         	movff	?_xtoa+1,?_vfpfcnvrt+1
  6852  001BEE  EF7A  F011         	goto	i2l1232
  6853  001BF2                     i2l3848:
  6854                           
  6855                           ;/opt/microchip/xc8/v2.30/pic/sources/c99/common/doprnt.c: 1171:         if (*fmt[0] == 
      +                          's') {
  6856  001BF2  C045  FFD9         	movff	vfpfcnvrt@fmt,fsr2l
  6857  001BF6  C046  FFDA         	movff	vfpfcnvrt@fmt+1,fsr2h
  6858  001BFA  CFDE FFF6          	movff	postinc2,tblptrl
  6859  001BFE  CFDD FFF7          	movff	postdec2,tblptrh
  6860  001C02                     	if	0	;tblptru may be non-zero
  6861  001C02                     	endif
  6862  001C02                     	if	1	;Program memory is > 0xFFFF, there are 3 active tblptr bytes
  6863  001C02  0E00               	movlw	low (__mediumconst shr (0+16))
  6864  001C04  6EF8               	movwf	tblptru,c
  6865  001C06                     	endif
  6866  001C06  0008               	tblrd		*
  6867  001C08  50F5               	movf	tablat,w,c
  6868  001C0A  0A73               	xorlw	115
  6869  001C0C  A4D8               	btfss	status,2,c
  6870  001C0E  EF0B  F00E         	goto	i2u437_41
  6871  001C12  EF0D  F00E         	goto	i2u437_40
  6872  001C16                     i2u437_41:
  6873  001C16  EF38  F00E         	goto	i2l3856
  6874  001C1A                     i2u437_40:
  6875  001C1A                     
  6876                           ;/opt/microchip/xc8/v2.30/pic/sources/c99/common/doprnt.c: 1173:             ++*fmt;
  6877  001C1A  C045  FFD9         	movff	vfpfcnvrt@fmt,fsr2l
  6878  001C1E  C046  FFDA         	movff	vfpfcnvrt@fmt+1,fsr2h
  6879  001C22  2ADE               	incf	postinc2,f,c
  6880  001C24  0E00               	movlw	0
  6881  001C26  22DD               	addwfc	postdec2,f,c
  6882                           
  6883                           ;/opt/microchip/xc8/v2.30/pic/sources/c99/common/doprnt.c: 1174:             cp = (*(cha
      +                          r * *)__va_arg(*(char * **)ap, (char *)0));
  6884  001C28  C047  FFD9         	movff	vfpfcnvrt@ap,fsr2l
  6885  001C2C  C048  FFDA         	movff	vfpfcnvrt@ap+1,fsr2h
  6886  001C30  CFDF F049          	movff	indf2,??_vfpfcnvrt
  6887  001C34  0E02               	movlw	2
  6888  001C36  26DE               	addwf	postinc2,f,c
  6889  001C38  CFDF F04A          	movff	indf2,??_vfpfcnvrt+1
  6890  001C3C  0E00               	movlw	0
  6891  001C3E  22DD               	addwfc	postdec2,f,c
  6892  001C40  C049  FFD9         	movff	??_vfpfcnvrt,fsr2l
  6893  001C44  C04A  FFDA         	movff	??_vfpfcnvrt+1,fsr2h
  6894  001C48  CFDE F060          	movff	postinc2,vfpfcnvrt@cp
  6895  001C4C  CFDD F061          	movff	postdec2,vfpfcnvrt@cp+1
  6896  001C50                     
  6897                           ;/opt/microchip/xc8/v2.30/pic/sources/c99/common/doprnt.c: 1176:             return stoa
      +                          (fp, cp);
  6898  001C50  C043  F00A         	movff	vfpfcnvrt@fp,stoa@fp
  6899  001C54  C044  F00B         	movff	vfpfcnvrt@fp+1,stoa@fp+1
  6900  001C58  C060  F00C         	movff	vfpfcnvrt@cp,stoa@s
  6901  001C5C  C061  F00D         	movff	vfpfcnvrt@cp+1,stoa@s+1
  6902  001C60  EC6E  F01C         	call	_stoa	;wreg free
  6903  001C64  C00A  F043         	movff	?_stoa,?_vfpfcnvrt
  6904  001C68  C00B  F044         	movff	?_stoa+1,?_vfpfcnvrt+1
  6905  001C6C  EF7A  F011         	goto	i2l1232
  6906  001C70                     i2l3856:
  6907                           
  6908                           ;/opt/microchip/xc8/v2.30/pic/sources/c99/common/doprnt.c: 1183:         if (!strncmp(*f
      +                          mt, "hhu", ((sizeof("hhu")/sizeof("hhu"[0]))-1))) {
  6909  001C70  C045  FFD9         	movff	vfpfcnvrt@fmt,fsr2l
  6910  001C74  C046  FFDA         	movff	vfpfcnvrt@fmt+1,fsr2h
  6911  001C78  CFDE F001          	movff	postinc2,strncmp@_l
  6912  001C7C  CFDD F002          	movff	postdec2,strncmp@_l+1
  6913  001C80  0E1A               	movlw	low STR_65
  6914  001C82  6E03               	movwf	strncmp@_r^0,c
  6915  001C84  0E10               	movlw	high STR_65
  6916  001C86  6E04               	movwf	(strncmp@_r+1)^0,c
  6917  001C88  0E00               	movlw	0
  6918  001C8A  6E06               	movwf	(strncmp@n+1)^0,c
  6919  001C8C  0E03               	movlw	3
  6920  001C8E  6E05               	movwf	strncmp@n^0,c
  6921  001C90  ECFE  F01E         	call	_strncmp	;wreg free
  6922  001C94  5001               	movf	?_strncmp^0,w,c
  6923  001C96  1002               	iorwf	(?_strncmp+1)^0,w,c
  6924  001C98  A4D8               	btfss	status,2,c
  6925  001C9A  EF51  F00E         	goto	i2u438_41
  6926  001C9E  EF53  F00E         	goto	i2u438_40
  6927  001CA2                     i2u438_41:
  6928  001CA2  EF93  F00E         	goto	i2l3864
  6929  001CA6                     i2u438_40:
  6930  001CA6                     
  6931                           ;/opt/microchip/xc8/v2.30/pic/sources/c99/common/doprnt.c: 1185:             *fmt += ((s
      +                          izeof("hhu")/sizeof("hhu"[0]))-1);
  6932  001CA6  0E03               	movlw	3
  6933  001CA8  C045  FFD9         	movff	vfpfcnvrt@fmt,fsr2l
  6934  001CAC  C046  FFDA         	movff	vfpfcnvrt@fmt+1,fsr2h
  6935  001CB0  26DE               	addwf	postinc2,f,c
  6936  001CB2  0E00               	movlw	0
  6937  001CB4  22DD               	addwfc	postdec2,f,c
  6938                           
  6939                           ;/opt/microchip/xc8/v2.30/pic/sources/c99/common/doprnt.c: 1186:             llu = (unsi
      +                          gned long long)(unsigned char)(*(int *)__va_arg(*(int **)ap, (int)0));
  6940  001CB6  C047  FFD9         	movff	vfpfcnvrt@ap,fsr2l
  6941  001CBA  C048  FFDA         	movff	vfpfcnvrt@ap+1,fsr2h
  6942  001CBE  CFDF F049          	movff	indf2,??_vfpfcnvrt
  6943  001CC2  0E02               	movlw	2
  6944  001CC4  26DE               	addwf	postinc2,f,c
  6945  001CC6  CFDF F04A          	movff	indf2,??_vfpfcnvrt+1
  6946  001CCA  0E00               	movlw	0
  6947  001CCC  22DD               	addwfc	postdec2,f,c
  6948  001CCE  C049  FFD9         	movff	??_vfpfcnvrt,fsr2l
  6949  001CD2  C04A  FFDA         	movff	??_vfpfcnvrt+1,fsr2h
  6950  001CD6  50DF               	movf	indf2,w,c
  6951  001CD8  6E4B               	movwf	(??_vfpfcnvrt+2)^0,c
  6952  001CDA  504B               	movf	(??_vfpfcnvrt+2)^0,w,c
  6953  001CDC  0100               	movlb	0	; () banked
  6954  001CDE  6F73               	movwf	vfpfcnvrt@llu& (0+255),b
  6955  001CE0  6B74               	clrf	(vfpfcnvrt@llu+1)& (0+255),b
  6956  001CE2  6B75               	clrf	(vfpfcnvrt@llu+2)& (0+255),b
  6957  001CE4  6B76               	clrf	(vfpfcnvrt@llu+3)& (0+255),b
  6958  001CE6  6B77               	clrf	(vfpfcnvrt@llu+4)& (0+255),b
  6959  001CE8  6B78               	clrf	(vfpfcnvrt@llu+5)& (0+255),b
  6960  001CEA  6B79               	clrf	(vfpfcnvrt@llu+6)& (0+255),b
  6961  001CEC  6B7A               	clrf	(vfpfcnvrt@llu+7)& (0+255),b
  6962  001CEE                     i2l3860:
  6963                           
  6964                           ; BSR set to: 0
  6965                           ;/opt/microchip/xc8/v2.30/pic/sources/c99/common/doprnt.c: 1188:             return utoa
      +                          (fp, llu);
  6966  001CEE  C043  F01C         	movff	vfpfcnvrt@fp,utoa@fp
  6967  001CF2  C044  F01D         	movff	vfpfcnvrt@fp+1,utoa@fp+1
  6968  001CF6  C073  F01E         	movff	vfpfcnvrt@llu,utoa@d
  6969  001CFA  C074  F01F         	movff	vfpfcnvrt@llu+1,utoa@d+1
  6970  001CFE  C075  F020         	movff	vfpfcnvrt@llu+2,utoa@d+2
  6971  001D02  C076  F021         	movff	vfpfcnvrt@llu+3,utoa@d+3
  6972  001D06  C077  F022         	movff	vfpfcnvrt@llu+4,utoa@d+4
  6973  001D0A  C078  F023         	movff	vfpfcnvrt@llu+5,utoa@d+5
  6974  001D0E  C079  F024         	movff	vfpfcnvrt@llu+6,utoa@d+6
  6975  001D12  C07A  F025         	movff	vfpfcnvrt@llu+7,utoa@d+7
  6976  001D16  ECDE  F018         	call	_utoa	;wreg free
  6977  001D1A  C01C  F043         	movff	?_utoa,?_vfpfcnvrt
  6978  001D1E  C01D  F044         	movff	?_utoa+1,?_vfpfcnvrt+1
  6979  001D22  EF7A  F011         	goto	i2l1232
  6980  001D26                     i2l3864:
  6981                           
  6982                           ;/opt/microchip/xc8/v2.30/pic/sources/c99/common/doprnt.c: 1194:         if (!strncmp(*f
      +                          mt, "hu", ((sizeof("hu")/sizeof("hu"[0]))-1))) {
  6983  001D26  C045  FFD9         	movff	vfpfcnvrt@fmt,fsr2l
  6984  001D2A  C046  FFDA         	movff	vfpfcnvrt@fmt+1,fsr2h
  6985  001D2E  CFDE F001          	movff	postinc2,strncmp@_l
  6986  001D32  CFDD F002          	movff	postdec2,strncmp@_l+1
  6987  001D36  0E1B               	movlw	low (STR_65+1)
  6988  001D38  6E03               	movwf	strncmp@_r^0,c
  6989  001D3A  0E10               	movlw	high (STR_65+1)
  6990  001D3C  6E04               	movwf	(strncmp@_r+1)^0,c
  6991  001D3E  0E00               	movlw	0
  6992  001D40  6E06               	movwf	(strncmp@n+1)^0,c
  6993  001D42  0E02               	movlw	2
  6994  001D44  6E05               	movwf	strncmp@n^0,c
  6995  001D46  ECFE  F01E         	call	_strncmp	;wreg free
  6996  001D4A  5001               	movf	?_strncmp^0,w,c
  6997  001D4C  1002               	iorwf	(?_strncmp+1)^0,w,c
  6998  001D4E  A4D8               	btfss	status,2,c
  6999  001D50  EFAC  F00E         	goto	i2u439_41
  7000  001D54  EFAE  F00E         	goto	i2u439_40
  7001  001D58                     i2u439_41:
  7002  001D58  EFD7  F00E         	goto	i2l3872
  7003  001D5C                     i2u439_40:
  7004  001D5C                     
  7005                           ;/opt/microchip/xc8/v2.30/pic/sources/c99/common/doprnt.c: 1196:             *fmt += ((s
      +                          izeof("hu")/sizeof("hu"[0]))-1);
  7006  001D5C  0E02               	movlw	2
  7007  001D5E  C045  FFD9         	movff	vfpfcnvrt@fmt,fsr2l
  7008  001D62  C046  FFDA         	movff	vfpfcnvrt@fmt+1,fsr2h
  7009  001D66  26DE               	addwf	postinc2,f,c
  7010  001D68  0E00               	movlw	0
  7011  001D6A  22DD               	addwfc	postdec2,f,c
  7012                           
  7013                           ;/opt/microchip/xc8/v2.30/pic/sources/c99/common/doprnt.c: 1197:             llu = (unsi
      +                          gned long long)(unsigned short)(*(int *)__va_arg(*(int **)ap, (int)0));
  7014  001D6C  C047  FFD9         	movff	vfpfcnvrt@ap,fsr2l
  7015  001D70  C048  FFDA         	movff	vfpfcnvrt@ap+1,fsr2h
  7016  001D74  CFDF F049          	movff	indf2,??_vfpfcnvrt
  7017  001D78  0E02               	movlw	2
  7018  001D7A  26DE               	addwf	postinc2,f,c
  7019  001D7C  CFDF F04A          	movff	indf2,??_vfpfcnvrt+1
  7020  001D80  0E00               	movlw	0
  7021  001D82  22DD               	addwfc	postdec2,f,c
  7022  001D84  C049  FFD9         	movff	??_vfpfcnvrt,fsr2l
  7023  001D88  C04A  FFDA         	movff	??_vfpfcnvrt+1,fsr2h
  7024  001D8C  CFDE F04B          	movff	postinc2,??_vfpfcnvrt+2
  7025  001D90  CFDD F04C          	movff	postdec2,??_vfpfcnvrt+3
  7026  001D94  C04B  F073         	movff	??_vfpfcnvrt+2,vfpfcnvrt@llu
  7027  001D98  C04C  F074         	movff	??_vfpfcnvrt+3,vfpfcnvrt@llu+1
  7028  001D9C  0100               	movlb	0	; () banked
  7029  001D9E  6B75               	clrf	(vfpfcnvrt@llu+2)& (0+255),b
  7030  001DA0  6B76               	clrf	(vfpfcnvrt@llu+3)& (0+255),b
  7031  001DA2  6B77               	clrf	(vfpfcnvrt@llu+4)& (0+255),b
  7032  001DA4  6B78               	clrf	(vfpfcnvrt@llu+5)& (0+255),b
  7033  001DA6  6B79               	clrf	(vfpfcnvrt@llu+6)& (0+255),b
  7034  001DA8  6B7A               	clrf	(vfpfcnvrt@llu+7)& (0+255),b
  7035  001DAA  EF77  F00E         	goto	i2l3860
  7036  001DAE                     i2l3872:
  7037                           
  7038                           ;/opt/microchip/xc8/v2.30/pic/sources/c99/common/doprnt.c: 1204:         if (*fmt[0] == 
      +                          'u') {
  7039  001DAE  C045  FFD9         	movff	vfpfcnvrt@fmt,fsr2l
  7040  001DB2  C046  FFDA         	movff	vfpfcnvrt@fmt+1,fsr2h
  7041  001DB6  CFDE FFF6          	movff	postinc2,tblptrl
  7042  001DBA  CFDD FFF7          	movff	postdec2,tblptrh
  7043  001DBE                     	if	0	;tblptru may be non-zero
  7044  001DBE                     	endif
  7045  001DBE                     	if	1	;Program memory is > 0xFFFF, there are 3 active tblptr bytes
  7046  001DBE  0E00               	movlw	low (__mediumconst shr (0+16))
  7047  001DC0  6EF8               	movwf	tblptru,c
  7048  001DC2                     	endif
  7049  001DC2  0008               	tblrd		*
  7050  001DC4  50F5               	movf	tablat,w,c
  7051  001DC6  0A75               	xorlw	117
  7052  001DC8  A4D8               	btfss	status,2,c
  7053  001DCA  EFE9  F00E         	goto	i2u440_41
  7054  001DCE  EFEB  F00E         	goto	i2u440_40
  7055  001DD2                     i2u440_41:
  7056  001DD2  EF13  F00F         	goto	i2l3880
  7057  001DD6                     i2u440_40:
  7058  001DD6                     
  7059                           ;/opt/microchip/xc8/v2.30/pic/sources/c99/common/doprnt.c: 1206:             ++*fmt;
  7060  001DD6  C045  FFD9         	movff	vfpfcnvrt@fmt,fsr2l
  7061  001DDA  C046  FFDA         	movff	vfpfcnvrt@fmt+1,fsr2h
  7062  001DDE  2ADE               	incf	postinc2,f,c
  7063  001DE0  0E00               	movlw	0
  7064  001DE2  22DD               	addwfc	postdec2,f,c
  7065                           
  7066                           ;/opt/microchip/xc8/v2.30/pic/sources/c99/common/doprnt.c: 1207:             llu = (unsi
      +                          gned long long)(*(unsigned int *)__va_arg(*(unsigned int **)ap, (unsigned int)0));
  7067  001DE4  C047  FFD9         	movff	vfpfcnvrt@ap,fsr2l
  7068  001DE8  C048  FFDA         	movff	vfpfcnvrt@ap+1,fsr2h
  7069  001DEC  CFDF F049          	movff	indf2,??_vfpfcnvrt
  7070  001DF0  0E02               	movlw	2
  7071  001DF2  26DE               	addwf	postinc2,f,c
  7072  001DF4  CFDF F04A          	movff	indf2,??_vfpfcnvrt+1
  7073  001DF8  0E00               	movlw	0
  7074  001DFA  22DD               	addwfc	postdec2,f,c
  7075  001DFC  C049  FFD9         	movff	??_vfpfcnvrt,fsr2l
  7076  001E00  C04A  FFDA         	movff	??_vfpfcnvrt+1,fsr2h
  7077  001E04  CFDE F04B          	movff	postinc2,??_vfpfcnvrt+2
  7078  001E08  CFDD F04C          	movff	postdec2,??_vfpfcnvrt+3
  7079  001E0C  C04B  F073         	movff	??_vfpfcnvrt+2,vfpfcnvrt@llu
  7080  001E10  C04C  F074         	movff	??_vfpfcnvrt+3,vfpfcnvrt@llu+1
  7081  001E14  0100               	movlb	0	; () banked
  7082  001E16  6B75               	clrf	(vfpfcnvrt@llu+2)& (0+255),b
  7083  001E18  6B76               	clrf	(vfpfcnvrt@llu+3)& (0+255),b
  7084  001E1A  6B77               	clrf	(vfpfcnvrt@llu+4)& (0+255),b
  7085  001E1C  6B78               	clrf	(vfpfcnvrt@llu+5)& (0+255),b
  7086  001E1E  6B79               	clrf	(vfpfcnvrt@llu+6)& (0+255),b
  7087  001E20  6B7A               	clrf	(vfpfcnvrt@llu+7)& (0+255),b
  7088  001E22  EF77  F00E         	goto	i2l3860
  7089  001E26                     i2l3880:
  7090                           
  7091                           ;/opt/microchip/xc8/v2.30/pic/sources/c99/common/doprnt.c: 1258:         if (!strncmp(*f
      +                          mt, "zu", ((sizeof("zu")/sizeof("zu"[0]))-1))) {
  7092  001E26  C045  FFD9         	movff	vfpfcnvrt@fmt,fsr2l
  7093  001E2A  C046  FFDA         	movff	vfpfcnvrt@fmt+1,fsr2h
  7094  001E2E  CFDE F001          	movff	postinc2,strncmp@_l
  7095  001E32  CFDD F002          	movff	postdec2,strncmp@_l+1
  7096  001E36  0E49               	movlw	low STR_75
  7097  001E38  6E03               	movwf	strncmp@_r^0,c
  7098  001E3A  0E10               	movlw	high STR_75
  7099  001E3C  6E04               	movwf	(strncmp@_r+1)^0,c
  7100  001E3E  0E00               	movlw	0
  7101  001E40  6E06               	movwf	(strncmp@n+1)^0,c
  7102  001E42  0E02               	movlw	2
  7103  001E44  6E05               	movwf	strncmp@n^0,c
  7104  001E46  ECFE  F01E         	call	_strncmp	;wreg free
  7105  001E4A  5001               	movf	?_strncmp^0,w,c
  7106  001E4C  1002               	iorwf	(?_strncmp+1)^0,w,c
  7107  001E4E  A4D8               	btfss	status,2,c
  7108  001E50  EF2C  F00F         	goto	i2u441_41
  7109  001E54  EF2E  F00F         	goto	i2u441_40
  7110  001E58                     i2u441_41:
  7111  001E58  EF57  F00F         	goto	i2l3888
  7112  001E5C                     i2u441_40:
  7113  001E5C                     
  7114                           ;/opt/microchip/xc8/v2.30/pic/sources/c99/common/doprnt.c: 1260:             *fmt += ((s
      +                          izeof("zu")/sizeof("zu"[0]))-1);
  7115  001E5C  0E02               	movlw	2
  7116  001E5E  C045  FFD9         	movff	vfpfcnvrt@fmt,fsr2l
  7117  001E62  C046  FFDA         	movff	vfpfcnvrt@fmt+1,fsr2h
  7118  001E66  26DE               	addwf	postinc2,f,c
  7119  001E68  0E00               	movlw	0
  7120  001E6A  22DD               	addwfc	postdec2,f,c
  7121                           
  7122                           ;/opt/microchip/xc8/v2.30/pic/sources/c99/common/doprnt.c: 1261:             llu = (unsi
      +                          gned long long)(*(size_t *)__va_arg(*(size_t **)ap, (size_t)0));
  7123  001E6C  C047  FFD9         	movff	vfpfcnvrt@ap,fsr2l
  7124  001E70  C048  FFDA         	movff	vfpfcnvrt@ap+1,fsr2h
  7125  001E74  CFDF F049          	movff	indf2,??_vfpfcnvrt
  7126  001E78  0E02               	movlw	2
  7127  001E7A  26DE               	addwf	postinc2,f,c
  7128  001E7C  CFDF F04A          	movff	indf2,??_vfpfcnvrt+1
  7129  001E80  0E00               	movlw	0
  7130  001E82  22DD               	addwfc	postdec2,f,c
  7131  001E84  C049  FFD9         	movff	??_vfpfcnvrt,fsr2l
  7132  001E88  C04A  FFDA         	movff	??_vfpfcnvrt+1,fsr2h
  7133  001E8C  CFDE F04B          	movff	postinc2,??_vfpfcnvrt+2
  7134  001E90  CFDD F04C          	movff	postdec2,??_vfpfcnvrt+3
  7135  001E94  C04B  F073         	movff	??_vfpfcnvrt+2,vfpfcnvrt@llu
  7136  001E98  C04C  F074         	movff	??_vfpfcnvrt+3,vfpfcnvrt@llu+1
  7137  001E9C  0100               	movlb	0	; () banked
  7138  001E9E  6B75               	clrf	(vfpfcnvrt@llu+2)& (0+255),b
  7139  001EA0  6B76               	clrf	(vfpfcnvrt@llu+3)& (0+255),b
  7140  001EA2  6B77               	clrf	(vfpfcnvrt@llu+4)& (0+255),b
  7141  001EA4  6B78               	clrf	(vfpfcnvrt@llu+5)& (0+255),b
  7142  001EA6  6B79               	clrf	(vfpfcnvrt@llu+6)& (0+255),b
  7143  001EA8  6B7A               	clrf	(vfpfcnvrt@llu+7)& (0+255),b
  7144  001EAA  EF77  F00E         	goto	i2l3860
  7145  001EAE                     i2l3888:
  7146                           
  7147                           ;/opt/microchip/xc8/v2.30/pic/sources/c99/common/doprnt.c: 1271:         if (!strncmp(*f
      +                          mt, "hhx", ((sizeof("hhx")/sizeof("hhx"[0]))-1)) || !strncmp(*fmt, "hhX", ((sizeof("hhX"
      +                          )/sizeof("hhX"[0]))-1))) {
  7148  001EAE  C045  FFD9         	movff	vfpfcnvrt@fmt,fsr2l
  7149  001EB2  C046  FFDA         	movff	vfpfcnvrt@fmt+1,fsr2h
  7150  001EB6  CFDE F001          	movff	postinc2,strncmp@_l
  7151  001EBA  CFDD F002          	movff	postdec2,strncmp@_l+1
  7152  001EBE  0E1E               	movlw	low STR_80
  7153  001EC0  6E03               	movwf	strncmp@_r^0,c
  7154  001EC2  0E10               	movlw	high STR_80
  7155  001EC4  6E04               	movwf	(strncmp@_r+1)^0,c
  7156  001EC6  0E00               	movlw	0
  7157  001EC8  6E06               	movwf	(strncmp@n+1)^0,c
  7158  001ECA  0E03               	movlw	3
  7159  001ECC  6E05               	movwf	strncmp@n^0,c
  7160  001ECE  ECFE  F01E         	call	_strncmp	;wreg free
  7161  001ED2  5001               	movf	?_strncmp^0,w,c
  7162  001ED4  1002               	iorwf	(?_strncmp+1)^0,w,c
  7163  001ED6  B4D8               	btfsc	status,2,c
  7164  001ED8  EF70  F00F         	goto	i2u442_41
  7165  001EDC  EF72  F00F         	goto	i2u442_40
  7166  001EE0                     i2u442_41:
  7167  001EE0  EF8D  F00F         	goto	i2l3892
  7168  001EE4                     i2u442_40:
  7169  001EE4  C045  FFD9         	movff	vfpfcnvrt@fmt,fsr2l
  7170  001EE8  C046  FFDA         	movff	vfpfcnvrt@fmt+1,fsr2h
  7171  001EEC  CFDE F001          	movff	postinc2,strncmp@_l
  7172  001EF0  CFDD F002          	movff	postdec2,strncmp@_l+1
  7173  001EF4  0E06               	movlw	low STR_84
  7174  001EF6  6E03               	movwf	strncmp@_r^0,c
  7175  001EF8  0E10               	movlw	high STR_84
  7176  001EFA  6E04               	movwf	(strncmp@_r+1)^0,c
  7177  001EFC  0E00               	movlw	0
  7178  001EFE  6E06               	movwf	(strncmp@n+1)^0,c
  7179  001F00  0E03               	movlw	3
  7180  001F02  6E05               	movwf	strncmp@n^0,c
  7181  001F04  ECFE  F01E         	call	_strncmp	;wreg free
  7182  001F08  5001               	movf	?_strncmp^0,w,c
  7183  001F0A  1002               	iorwf	(?_strncmp+1)^0,w,c
  7184  001F0C  A4D8               	btfss	status,2,c
  7185  001F0E  EF8B  F00F         	goto	i2u443_41
  7186  001F12  EF8D  F00F         	goto	i2u443_40
  7187  001F16                     i2u443_41:
  7188  001F16  EFE4  F00F         	goto	i2l3902
  7189  001F1A                     i2u443_40:
  7190  001F1A                     i2l3892:
  7191                           
  7192                           ;/opt/microchip/xc8/v2.30/pic/sources/c99/common/doprnt.c: 1272: ;/opt/microchip/xc8/v2.
      +                          30/pic/sources/c99/common/doprnt.c: 1274:             c = (*fmt)[2];
  7193  001F1A  C045  FFD9         	movff	vfpfcnvrt@fmt,fsr2l
  7194  001F1E  C046  FFDA         	movff	vfpfcnvrt@fmt+1,fsr2h
  7195  001F22  CFDE F049          	movff	postinc2,??_vfpfcnvrt
  7196  001F26  CFDD F04A          	movff	postdec2,??_vfpfcnvrt+1
  7197  001F2A  0E02               	movlw	2
  7198  001F2C  2649               	addwf	??_vfpfcnvrt^0,f,c
  7199  001F2E  0E00               	movlw	0
  7200  001F30  224A               	addwfc	(??_vfpfcnvrt+1)^0,f,c
  7201  001F32  C049  FFF6         	movff	??_vfpfcnvrt,tblptrl
  7202  001F36  C04A  FFF7         	movff	??_vfpfcnvrt+1,tblptrh
  7203  001F3A                     	if	0	;tblptru may be non-zero
  7204  001F3A                     	endif
  7205  001F3A                     	if	1	;Program memory is > 0xFFFF, there are 3 active tblptr bytes
  7206  001F3A  0E00               	movlw	low (__mediumconst shr (0+16))
  7207  001F3C  6EF8               	movwf	tblptru,c
  7208  001F3E                     	endif
  7209  001F3E  0008               	tblrd		*
  7210  001F40  CFF5 F072          	movff	tablat,vfpfcnvrt@c
  7211  001F44                     
  7212                           ;/opt/microchip/xc8/v2.30/pic/sources/c99/common/doprnt.c: 1275:             *fmt += ((s
      +                          izeof("hhx")/sizeof("hhx"[0]))-1);
  7213  001F44  0E03               	movlw	3
  7214  001F46  C045  FFD9         	movff	vfpfcnvrt@fmt,fsr2l
  7215  001F4A  C046  FFDA         	movff	vfpfcnvrt@fmt+1,fsr2h
  7216  001F4E  26DE               	addwf	postinc2,f,c
  7217  001F50  0E00               	movlw	0
  7218  001F52  22DD               	addwfc	postdec2,f,c
  7219  001F54                     
  7220                           ;/opt/microchip/xc8/v2.30/pic/sources/c99/common/doprnt.c: 1276:             llu = (unsi
      +                          gned long long)(unsigned char)(*(int *)__va_arg(*(int **)ap, (int)0));
  7221  001F54  C047  FFD9         	movff	vfpfcnvrt@ap,fsr2l
  7222  001F58  C048  FFDA         	movff	vfpfcnvrt@ap+1,fsr2h
  7223  001F5C  CFDF F049          	movff	indf2,??_vfpfcnvrt
  7224  001F60  0E02               	movlw	2
  7225  001F62  26DE               	addwf	postinc2,f,c
  7226  001F64  CFDF F04A          	movff	indf2,??_vfpfcnvrt+1
  7227  001F68  0E00               	movlw	0
  7228  001F6A  22DD               	addwfc	postdec2,f,c
  7229  001F6C  C049  FFD9         	movff	??_vfpfcnvrt,fsr2l
  7230  001F70  C04A  FFDA         	movff	??_vfpfcnvrt+1,fsr2h
  7231  001F74  50DF               	movf	indf2,w,c
  7232  001F76  6E4B               	movwf	(??_vfpfcnvrt+2)^0,c
  7233  001F78  504B               	movf	(??_vfpfcnvrt+2)^0,w,c
  7234  001F7A  0100               	movlb	0	; () banked
  7235  001F7C  6F73               	movwf	vfpfcnvrt@llu& (0+255),b
  7236  001F7E  6B74               	clrf	(vfpfcnvrt@llu+1)& (0+255),b
  7237  001F80  6B75               	clrf	(vfpfcnvrt@llu+2)& (0+255),b
  7238  001F82  6B76               	clrf	(vfpfcnvrt@llu+3)& (0+255),b
  7239  001F84  6B77               	clrf	(vfpfcnvrt@llu+4)& (0+255),b
  7240  001F86  6B78               	clrf	(vfpfcnvrt@llu+5)& (0+255),b
  7241  001F88  6B79               	clrf	(vfpfcnvrt@llu+6)& (0+255),b
  7242  001F8A  6B7A               	clrf	(vfpfcnvrt@llu+7)& (0+255),b
  7243  001F8C                     i2l3898:
  7244                           
  7245                           ; BSR set to: 0
  7246                           ;/opt/microchip/xc8/v2.30/pic/sources/c99/common/doprnt.c: 1278:             return xtoa
      +                          (fp, llu, c);
  7247  001F8C  C043  F01C         	movff	vfpfcnvrt@fp,xtoa@fp
  7248  001F90  C044  F01D         	movff	vfpfcnvrt@fp+1,xtoa@fp+1
  7249  001F94  C073  F01E         	movff	vfpfcnvrt@llu,xtoa@d
  7250  001F98  C074  F01F         	movff	vfpfcnvrt@llu+1,xtoa@d+1
  7251  001F9C  C075  F020         	movff	vfpfcnvrt@llu+2,xtoa@d+2
  7252  001FA0  C076  F021         	movff	vfpfcnvrt@llu+3,xtoa@d+3
  7253  001FA4  C077  F022         	movff	vfpfcnvrt@llu+4,xtoa@d+4
  7254  001FA8  C078  F023         	movff	vfpfcnvrt@llu+5,xtoa@d+5
  7255  001FAC  C079  F024         	movff	vfpfcnvrt@llu+6,xtoa@d+6
  7256  001FB0  C07A  F025         	movff	vfpfcnvrt@llu+7,xtoa@d+7
  7257  001FB4  C072  F026         	movff	vfpfcnvrt@c,xtoa@x
  7258  001FB8  EC61  F016         	call	_xtoa	;wreg free
  7259  001FBC  C01C  F043         	movff	?_xtoa,?_vfpfcnvrt
  7260  001FC0  C01D  F044         	movff	?_xtoa+1,?_vfpfcnvrt+1
  7261  001FC4  EF7A  F011         	goto	i2l1232
  7262  001FC8                     i2l3902:
  7263                           
  7264                           ;/opt/microchip/xc8/v2.30/pic/sources/c99/common/doprnt.c: 1284:         if (!strncmp(*f
      +                          mt, "hx", ((sizeof("hx")/sizeof("hx"[0]))-1)) || !strncmp(*fmt, "hX", ((sizeof("hX")/siz
      +                          eof("hX"[0]))-1))) {
  7265  001FC8  C045  FFD9         	movff	vfpfcnvrt@fmt,fsr2l
  7266  001FCC  C046  FFDA         	movff	vfpfcnvrt@fmt+1,fsr2h
  7267  001FD0  CFDE F001          	movff	postinc2,strncmp@_l
  7268  001FD4  CFDD F002          	movff	postdec2,strncmp@_l+1
  7269  001FD8  0E1F               	movlw	low (STR_80+1)
  7270  001FDA  6E03               	movwf	strncmp@_r^0,c
  7271  001FDC  0E10               	movlw	high (STR_80+1)
  7272  001FDE  6E04               	movwf	(strncmp@_r+1)^0,c
  7273  001FE0  0E00               	movlw	0
  7274  001FE2  6E06               	movwf	(strncmp@n+1)^0,c
  7275  001FE4  0E02               	movlw	2
  7276  001FE6  6E05               	movwf	strncmp@n^0,c
  7277  001FE8  ECFE  F01E         	call	_strncmp	;wreg free
  7278  001FEC  5001               	movf	?_strncmp^0,w,c
  7279  001FEE  1002               	iorwf	(?_strncmp+1)^0,w,c
  7280  001FF0  B4D8               	btfsc	status,2,c
  7281  001FF2  EFFD  F00F         	goto	i2u444_41
  7282  001FF6  EFFF  F00F         	goto	i2u444_40
  7283  001FFA                     i2u444_41:
  7284  001FFA  EF1A  F010         	goto	i2l3906
  7285  001FFE                     i2u444_40:
  7286  001FFE  C045  FFD9         	movff	vfpfcnvrt@fmt,fsr2l
  7287  002002  C046  FFDA         	movff	vfpfcnvrt@fmt+1,fsr2h
  7288  002006  CFDE F001          	movff	postinc2,strncmp@_l
  7289  00200A  CFDD F002          	movff	postdec2,strncmp@_l+1
  7290  00200E  0E07               	movlw	low (STR_84+1)
  7291  002010  6E03               	movwf	strncmp@_r^0,c
  7292  002012  0E10               	movlw	high (STR_84+1)
  7293  002014  6E04               	movwf	(strncmp@_r+1)^0,c
  7294  002016  0E00               	movlw	0
  7295  002018  6E06               	movwf	(strncmp@n+1)^0,c
  7296  00201A  0E02               	movlw	2
  7297  00201C  6E05               	movwf	strncmp@n^0,c
  7298  00201E  ECFE  F01E         	call	_strncmp	;wreg free
  7299  002022  5001               	movf	?_strncmp^0,w,c
  7300  002024  1002               	iorwf	(?_strncmp+1)^0,w,c
  7301  002026  A4D8               	btfss	status,2,c
  7302  002028  EF18  F010         	goto	i2u445_41
  7303  00202C  EF1A  F010         	goto	i2u445_40
  7304  002030                     i2u445_41:
  7305  002030  EF58  F010         	goto	i2l3916
  7306  002034                     i2u445_40:
  7307  002034                     i2l3906:
  7308                           
  7309                           ;/opt/microchip/xc8/v2.30/pic/sources/c99/common/doprnt.c: 1285: ;/opt/microchip/xc8/v2.
      +                          30/pic/sources/c99/common/doprnt.c: 1287:             c = (*fmt)[1];
  7310  002034  C045  FFD9         	movff	vfpfcnvrt@fmt,fsr2l
  7311  002038  C046  FFDA         	movff	vfpfcnvrt@fmt+1,fsr2h
  7312  00203C  CFDE F049          	movff	postinc2,??_vfpfcnvrt
  7313  002040  CFDD F04A          	movff	postdec2,??_vfpfcnvrt+1
  7314  002044  0E01               	movlw	1
  7315  002046  2649               	addwf	??_vfpfcnvrt^0,f,c
  7316  002048  0E00               	movlw	0
  7317  00204A  224A               	addwfc	(??_vfpfcnvrt+1)^0,f,c
  7318  00204C  C049  FFF6         	movff	??_vfpfcnvrt,tblptrl
  7319  002050  C04A  FFF7         	movff	??_vfpfcnvrt+1,tblptrh
  7320  002054                     	if	0	;tblptru may be non-zero
  7321  002054                     	endif
  7322  002054                     	if	1	;Program memory is > 0xFFFF, there are 3 active tblptr bytes
  7323  002054  0E00               	movlw	low (__mediumconst shr (0+16))
  7324  002056  6EF8               	movwf	tblptru,c
  7325  002058                     	endif
  7326  002058  0008               	tblrd		*
  7327  00205A  CFF5 F072          	movff	tablat,vfpfcnvrt@c
  7328  00205E                     
  7329                           ;/opt/microchip/xc8/v2.30/pic/sources/c99/common/doprnt.c: 1288:             *fmt += ((s
      +                          izeof("hx")/sizeof("hx"[0]))-1);
  7330  00205E  0E02               	movlw	2
  7331  002060  C045  FFD9         	movff	vfpfcnvrt@fmt,fsr2l
  7332  002064  C046  FFDA         	movff	vfpfcnvrt@fmt+1,fsr2h
  7333  002068  26DE               	addwf	postinc2,f,c
  7334  00206A  0E00               	movlw	0
  7335  00206C  22DD               	addwfc	postdec2,f,c
  7336  00206E                     
  7337                           ;/opt/microchip/xc8/v2.30/pic/sources/c99/common/doprnt.c: 1289:             llu = (unsi
      +                          gned long long)(unsigned short)(*(int *)__va_arg(*(int **)ap, (int)0));
  7338  00206E  C047  FFD9         	movff	vfpfcnvrt@ap,fsr2l
  7339  002072  C048  FFDA         	movff	vfpfcnvrt@ap+1,fsr2h
  7340  002076  CFDF F049          	movff	indf2,??_vfpfcnvrt
  7341  00207A  0E02               	movlw	2
  7342  00207C  26DE               	addwf	postinc2,f,c
  7343  00207E  CFDF F04A          	movff	indf2,??_vfpfcnvrt+1
  7344  002082  0E00               	movlw	0
  7345  002084  22DD               	addwfc	postdec2,f,c
  7346  002086  C049  FFD9         	movff	??_vfpfcnvrt,fsr2l
  7347  00208A  C04A  FFDA         	movff	??_vfpfcnvrt+1,fsr2h
  7348  00208E  CFDE F04B          	movff	postinc2,??_vfpfcnvrt+2
  7349  002092  CFDD F04C          	movff	postdec2,??_vfpfcnvrt+3
  7350  002096  C04B  F073         	movff	??_vfpfcnvrt+2,vfpfcnvrt@llu
  7351  00209A  C04C  F074         	movff	??_vfpfcnvrt+3,vfpfcnvrt@llu+1
  7352  00209E  0100               	movlb	0	; () banked
  7353  0020A0  6B75               	clrf	(vfpfcnvrt@llu+2)& (0+255),b
  7354  0020A2  6B76               	clrf	(vfpfcnvrt@llu+3)& (0+255),b
  7355  0020A4  6B77               	clrf	(vfpfcnvrt@llu+4)& (0+255),b
  7356  0020A6  6B78               	clrf	(vfpfcnvrt@llu+5)& (0+255),b
  7357  0020A8  6B79               	clrf	(vfpfcnvrt@llu+6)& (0+255),b
  7358  0020AA  6B7A               	clrf	(vfpfcnvrt@llu+7)& (0+255),b
  7359  0020AC  EFC6  F00F         	goto	i2l3898
  7360  0020B0                     i2l3916:
  7361                           
  7362                           ;/opt/microchip/xc8/v2.30/pic/sources/c99/common/doprnt.c: 1296:         if ((*fmt[0] ==
      +                           'x') || (*fmt[0] == 'X')) {
  7363  0020B0  C045  FFD9         	movff	vfpfcnvrt@fmt,fsr2l
  7364  0020B4  C046  FFDA         	movff	vfpfcnvrt@fmt+1,fsr2h
  7365  0020B8  CFDE FFF6          	movff	postinc2,tblptrl
  7366  0020BC  CFDD FFF7          	movff	postdec2,tblptrh
  7367  0020C0                     	if	0	;tblptru may be non-zero
  7368  0020C0                     	endif
  7369  0020C0                     	if	1	;Program memory is > 0xFFFF, there are 3 active tblptr bytes
  7370  0020C0  0E00               	movlw	low (__mediumconst shr (0+16))
  7371  0020C2  6EF8               	movwf	tblptru,c
  7372  0020C4                     	endif
  7373  0020C4  0008               	tblrd		*
  7374  0020C6  50F5               	movf	tablat,w,c
  7375  0020C8  0A78               	xorlw	120
  7376  0020CA  B4D8               	btfsc	status,2,c
  7377  0020CC  EF6A  F010         	goto	i2u446_41
  7378  0020D0  EF6C  F010         	goto	i2u446_40
  7379  0020D4                     i2u446_41:
  7380  0020D4  EF80  F010         	goto	i2l3920
  7381  0020D8                     i2u446_40:
  7382  0020D8  C045  FFD9         	movff	vfpfcnvrt@fmt,fsr2l
  7383  0020DC  C046  FFDA         	movff	vfpfcnvrt@fmt+1,fsr2h
  7384  0020E0  CFDE FFF6          	movff	postinc2,tblptrl
  7385  0020E4  CFDD FFF7          	movff	postdec2,tblptrh
  7386  0020E8                     	if	0	;tblptru may be non-zero
  7387  0020E8                     	endif
  7388  0020E8                     	if	1	;Program memory is > 0xFFFF, there are 3 active tblptr bytes
  7389  0020E8  0E00               	movlw	low (__mediumconst shr (0+16))
  7390  0020EA  6EF8               	movwf	tblptru,c
  7391  0020EC                     	endif
  7392  0020EC  0008               	tblrd		*
  7393  0020EE  50F5               	movf	tablat,w,c
  7394  0020F0  0A58               	xorlw	88
  7395  0020F2  A4D8               	btfss	status,2,c
  7396  0020F4  EF7E  F010         	goto	i2u447_41
  7397  0020F8  EF80  F010         	goto	i2u447_40
  7398  0020FC                     i2u447_41:
  7399  0020FC  EFB5  F010         	goto	i2l3930
  7400  002100                     i2u447_40:
  7401  002100                     i2l3920:
  7402                           
  7403                           ;/opt/microchip/xc8/v2.30/pic/sources/c99/common/doprnt.c: 1298:             c = (*fmt)[
      +                          0];
  7404  002100  C045  FFD9         	movff	vfpfcnvrt@fmt,fsr2l
  7405  002104  C046  FFDA         	movff	vfpfcnvrt@fmt+1,fsr2h
  7406  002108  CFDE FFF6          	movff	postinc2,tblptrl
  7407  00210C  CFDD FFF7          	movff	postdec2,tblptrh
  7408  002110                     	if	0	;tblptru may be non-zero
  7409  002110                     	endif
  7410  002110                     	if	1	;Program memory is > 0xFFFF, there are 3 active tblptr bytes
  7411  002110  0E00               	movlw	low (__mediumconst shr (0+16))
  7412  002112  6EF8               	movwf	tblptru,c
  7413  002114                     	endif
  7414  002114  0008               	tblrd		*
  7415  002116  CFF5 F072          	movff	tablat,vfpfcnvrt@c
  7416  00211A                     
  7417                           ;/opt/microchip/xc8/v2.30/pic/sources/c99/common/doprnt.c: 1299:             ++*fmt;
  7418  00211A  C045  FFD9         	movff	vfpfcnvrt@fmt,fsr2l
  7419  00211E  C046  FFDA         	movff	vfpfcnvrt@fmt+1,fsr2h
  7420  002122  2ADE               	incf	postinc2,f,c
  7421  002124  0E00               	movlw	0
  7422  002126  22DD               	addwfc	postdec2,f,c
  7423  002128                     
  7424                           ;/opt/microchip/xc8/v2.30/pic/sources/c99/common/doprnt.c: 1300:             llu = (unsi
      +                          gned long long)(*(unsigned int *)__va_arg(*(unsigned int **)ap, (unsigned int)0));
  7425  002128  C047  FFD9         	movff	vfpfcnvrt@ap,fsr2l
  7426  00212C  C048  FFDA         	movff	vfpfcnvrt@ap+1,fsr2h
  7427  002130  CFDF F049          	movff	indf2,??_vfpfcnvrt
  7428  002134  0E02               	movlw	2
  7429  002136  26DE               	addwf	postinc2,f,c
  7430  002138  CFDF F04A          	movff	indf2,??_vfpfcnvrt+1
  7431  00213C  0E00               	movlw	0
  7432  00213E  22DD               	addwfc	postdec2,f,c
  7433  002140  C049  FFD9         	movff	??_vfpfcnvrt,fsr2l
  7434  002144  C04A  FFDA         	movff	??_vfpfcnvrt+1,fsr2h
  7435  002148  CFDE F04B          	movff	postinc2,??_vfpfcnvrt+2
  7436  00214C  CFDD F04C          	movff	postdec2,??_vfpfcnvrt+3
  7437  002150  C04B  F073         	movff	??_vfpfcnvrt+2,vfpfcnvrt@llu
  7438  002154  C04C  F074         	movff	??_vfpfcnvrt+3,vfpfcnvrt@llu+1
  7439  002158  0100               	movlb	0	; () banked
  7440  00215A  6B75               	clrf	(vfpfcnvrt@llu+2)& (0+255),b
  7441  00215C  6B76               	clrf	(vfpfcnvrt@llu+3)& (0+255),b
  7442  00215E  6B77               	clrf	(vfpfcnvrt@llu+4)& (0+255),b
  7443  002160  6B78               	clrf	(vfpfcnvrt@llu+5)& (0+255),b
  7444  002162  6B79               	clrf	(vfpfcnvrt@llu+6)& (0+255),b
  7445  002164  6B7A               	clrf	(vfpfcnvrt@llu+7)& (0+255),b
  7446  002166  EFC6  F00F         	goto	i2l3898
  7447  00216A                     i2l3930:
  7448                           
  7449                           ;/opt/microchip/xc8/v2.30/pic/sources/c99/common/doprnt.c: 1359:         if (!strncmp(*f
      +                          mt, "zx", ((sizeof("zx")/sizeof("zx"[0]))-1)) || !strncmp(*fmt, "zX", ((sizeof("zX")/siz
      +                          eof("zX"[0]))-1))) {
  7450  00216A  C045  FFD9         	movff	vfpfcnvrt@fmt,fsr2l
  7451  00216E  C046  FFDA         	movff	vfpfcnvrt@fmt+1,fsr2h
  7452  002172  CFDE F001          	movff	postinc2,strncmp@_l
  7453  002176  CFDD F002          	movff	postdec2,strncmp@_l+1
  7454  00217A  0E4C               	movlw	low STR_98
  7455  00217C  6E03               	movwf	strncmp@_r^0,c
  7456  00217E  0E10               	movlw	high STR_98
  7457  002180  6E04               	movwf	(strncmp@_r+1)^0,c
  7458  002182  0E00               	movlw	0
  7459  002184  6E06               	movwf	(strncmp@n+1)^0,c
  7460  002186  0E02               	movlw	2
  7461  002188  6E05               	movwf	strncmp@n^0,c
  7462  00218A  ECFE  F01E         	call	_strncmp	;wreg free
  7463  00218E  5001               	movf	?_strncmp^0,w,c
  7464  002190  1002               	iorwf	(?_strncmp+1)^0,w,c
  7465  002192  B4D8               	btfsc	status,2,c
  7466  002194  EFCE  F010         	goto	i2u448_41
  7467  002198  EFD0  F010         	goto	i2u448_40
  7468  00219C                     i2u448_41:
  7469  00219C  EFEB  F010         	goto	i2l3934
  7470  0021A0                     i2u448_40:
  7471  0021A0  C045  FFD9         	movff	vfpfcnvrt@fmt,fsr2l
  7472  0021A4  C046  FFDA         	movff	vfpfcnvrt@fmt+1,fsr2h
  7473  0021A8  CFDE F001          	movff	postinc2,strncmp@_l
  7474  0021AC  CFDD F002          	movff	postdec2,strncmp@_l+1
  7475  0021B0  0E3A               	movlw	low STR_102
  7476  0021B2  6E03               	movwf	strncmp@_r^0,c
  7477  0021B4  0E10               	movlw	high STR_102
  7478  0021B6  6E04               	movwf	(strncmp@_r+1)^0,c
  7479  0021B8  0E00               	movlw	0
  7480  0021BA  6E06               	movwf	(strncmp@n+1)^0,c
  7481  0021BC  0E02               	movlw	2
  7482  0021BE  6E05               	movwf	strncmp@n^0,c
  7483  0021C0  ECFE  F01E         	call	_strncmp	;wreg free
  7484  0021C4  5001               	movf	?_strncmp^0,w,c
  7485  0021C6  1002               	iorwf	(?_strncmp+1)^0,w,c
  7486  0021C8  A4D8               	btfss	status,2,c
  7487  0021CA  EFE9  F010         	goto	i2u449_41
  7488  0021CE  EFEB  F010         	goto	i2u449_40
  7489  0021D2                     i2u449_41:
  7490  0021D2  EF29  F011         	goto	i2l3944
  7491  0021D6                     i2u449_40:
  7492  0021D6                     i2l3934:
  7493                           
  7494                           ;/opt/microchip/xc8/v2.30/pic/sources/c99/common/doprnt.c: 1360: ;/opt/microchip/xc8/v2.
      +                          30/pic/sources/c99/common/doprnt.c: 1362:             c = (*fmt)[1];
  7495  0021D6  C045  FFD9         	movff	vfpfcnvrt@fmt,fsr2l
  7496  0021DA  C046  FFDA         	movff	vfpfcnvrt@fmt+1,fsr2h
  7497  0021DE  CFDE F049          	movff	postinc2,??_vfpfcnvrt
  7498  0021E2  CFDD F04A          	movff	postdec2,??_vfpfcnvrt+1
  7499  0021E6  0E01               	movlw	1
  7500  0021E8  2649               	addwf	??_vfpfcnvrt^0,f,c
  7501  0021EA  0E00               	movlw	0
  7502  0021EC  224A               	addwfc	(??_vfpfcnvrt+1)^0,f,c
  7503  0021EE  C049  FFF6         	movff	??_vfpfcnvrt,tblptrl
  7504  0021F2  C04A  FFF7         	movff	??_vfpfcnvrt+1,tblptrh
  7505  0021F6                     	if	0	;tblptru may be non-zero
  7506  0021F6                     	endif
  7507  0021F6                     	if	1	;Program memory is > 0xFFFF, there are 3 active tblptr bytes
  7508  0021F6  0E00               	movlw	low (__mediumconst shr (0+16))
  7509  0021F8  6EF8               	movwf	tblptru,c
  7510  0021FA                     	endif
  7511  0021FA  0008               	tblrd		*
  7512  0021FC  CFF5 F072          	movff	tablat,vfpfcnvrt@c
  7513  002200                     
  7514                           ;/opt/microchip/xc8/v2.30/pic/sources/c99/common/doprnt.c: 1363:             *fmt += ((s
      +                          izeof("zx")/sizeof("zx"[0]))-1);
  7515  002200  0E02               	movlw	2
  7516  002202  C045  FFD9         	movff	vfpfcnvrt@fmt,fsr2l
  7517  002206  C046  FFDA         	movff	vfpfcnvrt@fmt+1,fsr2h
  7518  00220A  26DE               	addwf	postinc2,f,c
  7519  00220C  0E00               	movlw	0
  7520  00220E  22DD               	addwfc	postdec2,f,c
  7521  002210                     
  7522                           ;/opt/microchip/xc8/v2.30/pic/sources/c99/common/doprnt.c: 1364:             llu = (unsi
      +                          gned long long)(*(size_t *)__va_arg(*(size_t **)ap, (size_t)0));
  7523  002210  C047  FFD9         	movff	vfpfcnvrt@ap,fsr2l
  7524  002214  C048  FFDA         	movff	vfpfcnvrt@ap+1,fsr2h
  7525  002218  CFDF F049          	movff	indf2,??_vfpfcnvrt
  7526  00221C  0E02               	movlw	2
  7527  00221E  26DE               	addwf	postinc2,f,c
  7528  002220  CFDF F04A          	movff	indf2,??_vfpfcnvrt+1
  7529  002224  0E00               	movlw	0
  7530  002226  22DD               	addwfc	postdec2,f,c
  7531  002228  C049  FFD9         	movff	??_vfpfcnvrt,fsr2l
  7532  00222C  C04A  FFDA         	movff	??_vfpfcnvrt+1,fsr2h
  7533  002230  CFDE F04B          	movff	postinc2,??_vfpfcnvrt+2
  7534  002234  CFDD F04C          	movff	postdec2,??_vfpfcnvrt+3
  7535  002238  C04B  F073         	movff	??_vfpfcnvrt+2,vfpfcnvrt@llu
  7536  00223C  C04C  F074         	movff	??_vfpfcnvrt+3,vfpfcnvrt@llu+1
  7537  002240  0100               	movlb	0	; () banked
  7538  002242  6B75               	clrf	(vfpfcnvrt@llu+2)& (0+255),b
  7539  002244  6B76               	clrf	(vfpfcnvrt@llu+3)& (0+255),b
  7540  002246  6B77               	clrf	(vfpfcnvrt@llu+4)& (0+255),b
  7541  002248  6B78               	clrf	(vfpfcnvrt@llu+5)& (0+255),b
  7542  00224A  6B79               	clrf	(vfpfcnvrt@llu+6)& (0+255),b
  7543  00224C  6B7A               	clrf	(vfpfcnvrt@llu+7)& (0+255),b
  7544  00224E  EFC6  F00F         	goto	i2l3898
  7545  002252                     i2l3944:
  7546                           
  7547                           ;/opt/microchip/xc8/v2.30/pic/sources/c99/common/doprnt.c: 1372:         if ((*fmt)[0] =
      +                          = '%') {
  7548  002252  C045  FFD9         	movff	vfpfcnvrt@fmt,fsr2l
  7549  002256  C046  FFDA         	movff	vfpfcnvrt@fmt+1,fsr2h
  7550  00225A  CFDE FFF6          	movff	postinc2,tblptrl
  7551  00225E  CFDD FFF7          	movff	postdec2,tblptrh
  7552  002262                     	if	0	;tblptru may be non-zero
  7553  002262                     	endif
  7554  002262                     	if	1	;Program memory is > 0xFFFF, there are 3 active tblptr bytes
  7555  002262  0E00               	movlw	low (__mediumconst shr (0+16))
  7556  002264  6EF8               	movwf	tblptru,c
  7557  002266                     	endif
  7558  002266  0008               	tblrd		*
  7559  002268  50F5               	movf	tablat,w,c
  7560  00226A  0A25               	xorlw	37
  7561  00226C  A4D8               	btfss	status,2,c
  7562  00226E  EF3B  F011         	goto	i2u450_41
  7563  002272  EF3D  F011         	goto	i2u450_40
  7564  002276                     i2u450_41:
  7565  002276  EF54  F011         	goto	i2l3954
  7566  00227A                     i2u450_40:
  7567  00227A                     
  7568                           ;/opt/microchip/xc8/v2.30/pic/sources/c99/common/doprnt.c: 1373:             ++*fmt;
  7569  00227A  C045  FFD9         	movff	vfpfcnvrt@fmt,fsr2l
  7570  00227E  C046  FFDA         	movff	vfpfcnvrt@fmt+1,fsr2h
  7571  002282  2ADE               	incf	postinc2,f,c
  7572  002284  0E00               	movlw	0
  7573  002286  22DD               	addwfc	postdec2,f,c
  7574  002288                     
  7575                           ;/opt/microchip/xc8/v2.30/pic/sources/c99/common/doprnt.c: 1374:             fputc((int)
      +                          '%', fp);
  7576  002288  0E00               	movlw	0
  7577  00228A  6E02               	movwf	(fputc@c+1)^0,c
  7578  00228C  0E25               	movlw	37
  7579  00228E  6E01               	movwf	fputc@c^0,c
  7580  002290  C043  F003         	movff	vfpfcnvrt@fp,fputc@fp
  7581  002294  C044  F004         	movff	vfpfcnvrt@fp+1,fputc@fp+1
  7582  002298  ECA5  F021         	call	_fputc	;wreg free
  7583  00229C                     i2l3950:
  7584                           
  7585                           ;/opt/microchip/xc8/v2.30/pic/sources/c99/common/doprnt.c: 1375:             return 1;
  7586  00229C  0E00               	movlw	0
  7587  00229E  6E44               	movwf	(?_vfpfcnvrt+1)^0,c
  7588  0022A0  0E01               	movlw	1
  7589  0022A2  6E43               	movwf	?_vfpfcnvrt^0,c
  7590  0022A4  EF7A  F011         	goto	i2l1232
  7591  0022A8                     i2l3954:
  7592                           
  7593                           ;/opt/microchip/xc8/v2.30/pic/sources/c99/common/doprnt.c: 1379:         ++*fmt;
  7594  0022A8  C045  FFD9         	movff	vfpfcnvrt@fmt,fsr2l
  7595  0022AC  C046  FFDA         	movff	vfpfcnvrt@fmt+1,fsr2h
  7596  0022B0  2ADE               	incf	postinc2,f,c
  7597  0022B2  0E00               	movlw	0
  7598  0022B4  22DD               	addwfc	postdec2,f,c
  7599  0022B6  EFE0  F00C         	goto	i2l3806
  7600  0022BA                     i2l3960:
  7601                           
  7602                           ;/opt/microchip/xc8/v2.30/pic/sources/c99/common/doprnt.c: 1384:     fputc((int)(*fmt)[0
      +                          ], fp);
  7603  0022BA  C045  FFD9         	movff	vfpfcnvrt@fmt,fsr2l
  7604  0022BE  C046  FFDA         	movff	vfpfcnvrt@fmt+1,fsr2h
  7605  0022C2  CFDE FFF6          	movff	postinc2,tblptrl
  7606  0022C6  CFDD FFF7          	movff	postdec2,tblptrh
  7607  0022CA                     	if	0	;tblptru may be non-zero
  7608  0022CA                     	endif
  7609  0022CA                     	if	1	;Program memory is > 0xFFFF, there are 3 active tblptr bytes
  7610  0022CA  0E00               	movlw	low (__mediumconst shr (0+16))
  7611  0022CC  6EF8               	movwf	tblptru,c
  7612  0022CE                     	endif
  7613  0022CE  0008               	tblrd		*
  7614  0022D0  50F5               	movf	tablat,w,c
  7615  0022D2  6E01               	movwf	fputc@c^0,c
  7616  0022D4  6A02               	clrf	(fputc@c+1)^0,c
  7617  0022D6  C043  F003         	movff	vfpfcnvrt@fp,fputc@fp
  7618  0022DA  C044  F004         	movff	vfpfcnvrt@fp+1,fputc@fp+1
  7619  0022DE  ECA5  F021         	call	_fputc	;wreg free
  7620  0022E2                     
  7621                           ;/opt/microchip/xc8/v2.30/pic/sources/c99/common/doprnt.c: 1385:     ++*fmt;
  7622  0022E2  C045  FFD9         	movff	vfpfcnvrt@fmt,fsr2l
  7623  0022E6  C046  FFDA         	movff	vfpfcnvrt@fmt+1,fsr2h
  7624  0022EA  2ADE               	incf	postinc2,f,c
  7625  0022EC  0E00               	movlw	0
  7626  0022EE  22DD               	addwfc	postdec2,f,c
  7627  0022F0  EF4E  F011         	goto	i2l3950
  7628  0022F4                     i2l1232:
  7629  0022F4  0012               	return		;funcret
  7630  0022F6                     __end_of_vfpfcnvrt:
  7631                           	callstack 0
  7632                           
  7633 ;; *************** function _xtoa *****************
  7634 ;; Defined at:
  7635 ;;		line 645 in file "/opt/microchip/xc8/v2.30/pic/sources/c99/common/doprnt.c"
  7636 ;; Parameters:    Size  Location     Type
  7637 ;;  fp              2   27[COMRAM] PTR struct _IO_FILE
  7638 ;;		 -> vsnprintf@f(6), 
  7639 ;;  d               8   29[COMRAM] unsigned long long 
  7640 ;;  x               1   37[COMRAM] unsigned char 
  7641 ;; Auto vars:     Size  Location     Type
  7642 ;;  n               8   54[COMRAM] unsigned long long 
  7643 ;;  c               2   64[COMRAM] int 
  7644 ;;  i               2   62[COMRAM] int 
  7645 ;;  w               2   52[COMRAM] int 
  7646 ;;  p               2   50[COMRAM] int 
  7647 ;; Return value:  Size  Location     Type
  7648 ;;                  2   27[COMRAM] int 
  7649 ;; Registers used:
  7650 ;;		wreg, fsr1l, fsr1h, fsr2l, fsr2h, status,2, status,0, cstack
  7651 ;; Tracked objects:
  7652 ;;		On entry : 0/0
  7653 ;;		On exit  : 0/0
  7654 ;;		Unchanged: 0/0
  7655 ;; Data sizes:     COMRAM   BANK0   BANK1   BANK2   BANK3   BANK4   BANK5   BANK6   BANK7   BANK8   BANK9  BANK10  BANK1
      +1  BANK12  BANK13  BANK14  BANK15
  7656 ;;      Params:        11       0       0       0       0       0       0       0       0       0       0       0       
      +0       0       0       0       0
  7657 ;;      Locals:        20       0       0       0       0       0       0       0       0       0       0       0       
      +0       0       0       0       0
  7658 ;;      Temps:          8       0       0       0       0       0       0       0       0       0       0       0       
      +0       0       0       0       0
  7659 ;;      Totals:        39       0       0       0       0       0       0       0       0       0       0       0       
      +0       0       0       0       0
  7660 ;;Total ram usage:       39 bytes
  7661 ;; Hardware stack levels used:    1
  7662 ;; Hardware stack levels required when called:    4
  7663 ;; This function calls:
  7664 ;;		_isalpha
  7665 ;;		_isupper
  7666 ;;		_pad
  7667 ;;		_toupper
  7668 ;; This function is called by:
  7669 ;;		_vfpfcnvrt
  7670 ;; This function uses a non-reentrant model
  7671 ;;
  7672                           
  7673                           	psect	text23
  7674  002CC2                     __ptext23:
  7675                           	callstack 0
  7676  002CC2                     _xtoa:
  7677                           	callstack 16
  7678  002CC2                     
  7679                           ;/opt/microchip/xc8/v2.30/pic/sources/c99/common/doprnt.c: 645: static int xtoa(FILE *fp
      +                          , unsigned long long d, char x);/opt/microchip/xc8/v2.30/pic/sources/c99/common/doprnt.c
      +                          : 646: {;/opt/microchip/xc8/v2.30/pic/sources/c99/common/doprnt.c: 647:     int c, i, p,
      +                           w;;/opt/microchip/xc8/v2.30/pic/sources/c99/common/doprnt.c: 648:     unsigned long lon
      +                          g n;;/opt/microchip/xc8/v2.30/pic/sources/c99/common/doprnt.c: 651:     if (!(prec < 0))
      +                           {
  7680  002CC2  0100               	movlb	0	; () banked
  7681  002CC4  BFE1               	btfsc	(_prec+1)& (0+255),7,b
  7682  002CC6  EF67  F016         	goto	i2u377_41
  7683  002CCA  EF69  F016         	goto	i2u377_40
  7684  002CCE                     i2u377_41:
  7685  002CCE  EF6A  F016         	goto	i2l3518
  7686  002CD2                     i2u377_40:
  7687  002CD2                     
  7688                           ; BSR set to: 0
  7689                           ;/opt/microchip/xc8/v2.30/pic/sources/c99/common/doprnt.c: 652:         flags &= ~(1 << 
      +                          1);
  7690  002CD2  93E2               	bcf	_flags& (0+255),1,b
  7691  002CD4                     i2l3518:
  7692                           
  7693                           ; BSR set to: 0
  7694                           ;/opt/microchip/xc8/v2.30/pic/sources/c99/common/doprnt.c: 654:     p = (0 < prec) ? pre
      +                          c : 1;
  7695  002CD4  BFE1               	btfsc	(_prec+1)& (0+255),7,b
  7696  002CD6  EF77  F016         	goto	i2u378_40
  7697  002CDA  51E1               	movf	(_prec+1)& (0+255),w,b
  7698  002CDC  E106               	bnz	i2u378_41
  7699  002CDE  05E0               	decf	_prec& (0+255),w,b
  7700  002CE0  B0D8               	btfsc	status,0,c
  7701  002CE2  EF75  F016         	goto	i2u378_41
  7702  002CE6  EF77  F016         	goto	i2u378_40
  7703  002CEA                     i2u378_41:
  7704  002CEA  EF7D  F016         	goto	i2l1170
  7705  002CEE                     i2u378_40:
  7706  002CEE                     
  7707                           ; BSR set to: 0
  7708  002CEE  0E00               	movlw	0
  7709  002CF0  6E34               	movwf	(xtoa@p+1)^0,c
  7710  002CF2  0E01               	movlw	1
  7711  002CF4  6E33               	movwf	xtoa@p^0,c
  7712  002CF6  EF81  F016         	goto	i2l1172
  7713  002CFA                     i2l1170:
  7714                           
  7715                           ; BSR set to: 0
  7716  002CFA  C0E0  F033         	movff	_prec,xtoa@p
  7717  002CFE  C0E1  F034         	movff	_prec+1,xtoa@p+1
  7718  002D02                     i2l1172:
  7719                           
  7720                           ; BSR set to: 0
  7721                           ;/opt/microchip/xc8/v2.30/pic/sources/c99/common/doprnt.c: 655:     w = width;
  7722  002D02  C0DE  F035         	movff	_width,xtoa@w
  7723  002D06  C0DF  F036         	movff	_width+1,xtoa@w+1
  7724                           
  7725                           ;/opt/microchip/xc8/v2.30/pic/sources/c99/common/doprnt.c: 656:     if (flags & (1 << 4)
      +                          ) {
  7726  002D0A  A9E2               	btfss	_flags& (0+255),4,b
  7727  002D0C  EF8A  F016         	goto	i2u379_41
  7728  002D10  EF8C  F016         	goto	i2u379_40
  7729  002D14                     i2u379_41:
  7730  002D14  EF90  F016         	goto	i2l3524
  7731  002D18                     i2u379_40:
  7732  002D18                     
  7733                           ; BSR set to: 0
  7734                           ;/opt/microchip/xc8/v2.30/pic/sources/c99/common/doprnt.c: 657:         w -= 2;
  7735  002D18  0EFE               	movlw	254
  7736  002D1A  2635               	addwf	xtoa@w^0,f,c
  7737  002D1C  0EFF               	movlw	255
  7738  002D1E  2236               	addwfc	(xtoa@w+1)^0,f,c
  7739  002D20                     i2l3524:
  7740                           
  7741                           ; BSR set to: 0
  7742                           ;/opt/microchip/xc8/v2.30/pic/sources/c99/common/doprnt.c: 661:     n = d;
  7743  002D20  C01E  F037         	movff	xtoa@d,xtoa@n
  7744  002D24  C01F  F038         	movff	xtoa@d+1,xtoa@n+1
  7745  002D28  C020  F039         	movff	xtoa@d+2,xtoa@n+2
  7746  002D2C  C021  F03A         	movff	xtoa@d+3,xtoa@n+3
  7747  002D30  C022  F03B         	movff	xtoa@d+4,xtoa@n+4
  7748  002D34  C023  F03C         	movff	xtoa@d+5,xtoa@n+5
  7749  002D38  C024  F03D         	movff	xtoa@d+6,xtoa@n+6
  7750  002D3C  C025  F03E         	movff	xtoa@d+7,xtoa@n+7
  7751  002D40                     
  7752                           ; BSR set to: 0
  7753                           ;/opt/microchip/xc8/v2.30/pic/sources/c99/common/doprnt.c: 662:     i = sizeof(dbuf) - 1
      +                          ;
  7754  002D40  0E00               	movlw	0
  7755  002D42  6E40               	movwf	(xtoa@i+1)^0,c
  7756  002D44  0E1F               	movlw	31
  7757  002D46  6E3F               	movwf	xtoa@i^0,c
  7758  002D48                     
  7759                           ; BSR set to: 0
  7760                           ;/opt/microchip/xc8/v2.30/pic/sources/c99/common/doprnt.c: 663:     dbuf[i] = '\0';
  7761  002D48  0E00               	movlw	0
  7762  002D4A  0101               	movlb	1	; () banked
  7763  002D4C  6FB2               	movwf	(_dbuf+31)& (0+255),b
  7764                           
  7765                           ;/opt/microchip/xc8/v2.30/pic/sources/c99/common/doprnt.c: 664:     while (!(i < 2) && (
      +                          n || (0 < p) || ((0 < w) && (flags & (1 << 1))))) {
  7766  002D4E  EF5C  F017         	goto	i2l3560
  7767  002D52                     i2l3530:
  7768                           
  7769                           ;/opt/microchip/xc8/v2.30/pic/sources/c99/common/doprnt.c: 665:         --i;
  7770  002D52  063F               	decf	xtoa@i^0,f,c
  7771  002D54  A0D8               	btfss	status,0,c
  7772  002D56  0640               	decf	(xtoa@i+1)^0,f,c
  7773  002D58                     
  7774                           ;/opt/microchip/xc8/v2.30/pic/sources/c99/common/doprnt.c: 666:         c = n & 0x0f;
  7775  002D58  0E0F               	movlw	15
  7776  002D5A  1437               	andwf	xtoa@n^0,w,c
  7777  002D5C  6E41               	movwf	xtoa@c^0,c
  7778  002D5E  6A42               	clrf	(xtoa@c+1)^0,c
  7779  002D60                     
  7780                           ;/opt/microchip/xc8/v2.30/pic/sources/c99/common/doprnt.c: 667:         c = (c < 10) ? (
      +                          int)'0' + c : (int)'a' + (c - 10);
  7781  002D60  BE42               	btfsc	(xtoa@c+1)^0,7,c
  7782  002D62  EFBC  F016         	goto	i2u380_41
  7783  002D66  5042               	movf	(xtoa@c+1)^0,w,c
  7784  002D68  E109               	bnz	i2u380_40
  7785  002D6A  0E0A               	movlw	10
  7786  002D6C  5C41               	subwf	xtoa@c^0,w,c
  7787  002D6E  A0D8               	btfss	status,0,c
  7788  002D70  EFBC  F016         	goto	i2u380_41
  7789  002D74  EFBE  F016         	goto	i2u380_40
  7790  002D78                     i2u380_41:
  7791  002D78  EFC6  F016         	goto	i2l3538
  7792  002D7C                     i2u380_40:
  7793  002D7C  0E57               	movlw	87
  7794  002D7E  2441               	addwf	xtoa@c^0,w,c
  7795  002D80  6E41               	movwf	xtoa@c^0,c
  7796  002D82  0E00               	movlw	0
  7797  002D84  2042               	addwfc	(xtoa@c+1)^0,w,c
  7798  002D86  6E42               	movwf	(xtoa@c+1)^0,c
  7799  002D88  EFCC  F016         	goto	i2l1179
  7800  002D8C                     i2l3538:
  7801  002D8C  0E30               	movlw	48
  7802  002D8E  2441               	addwf	xtoa@c^0,w,c
  7803  002D90  6E41               	movwf	xtoa@c^0,c
  7804  002D92  0E00               	movlw	0
  7805  002D94  2042               	addwfc	(xtoa@c+1)^0,w,c
  7806  002D96  6E42               	movwf	(xtoa@c+1)^0,c
  7807  002D98                     i2l1179:
  7808  002D98  0EBF               	movlw	191
  7809  002D9A  6E27               	movwf	??_xtoa^0,c
  7810  002D9C  0EFF               	movlw	255
  7811  002D9E  6E28               	movwf	(??_xtoa+1)^0,c
  7812  002DA0  5026               	movf	xtoa@x^0,w,c
  7813  002DA2  6E29               	movwf	(??_xtoa+2)^0,c
  7814  002DA4  6A2A               	clrf	(??_xtoa+3)^0,c
  7815  002DA6  5027               	movf	??_xtoa^0,w,c
  7816  002DA8  2629               	addwf	(??_xtoa+2)^0,f,c
  7817  002DAA  5028               	movf	(??_xtoa+1)^0,w,c
  7818  002DAC  222A               	addwfc	(??_xtoa+3)^0,f,c
  7819  002DAE  502A               	movf	(??_xtoa+3)^0,w,c
  7820  002DB0  E10A               	bnz	i2u381_40
  7821  002DB2  0E1A               	movlw	26
  7822  002DB4  5C29               	subwf	(??_xtoa+2)^0,w,c
  7823  002DB6  A0D8               	btfss	status,0,c
  7824  002DB8  EFE0  F016         	goto	i2u381_41
  7825  002DBC  EFE3  F016         	goto	i2u381_40
  7826  002DC0                     i2u381_41:
  7827  002DC0  0E01               	movlw	1
  7828  002DC2  EFE4  F016         	goto	i2u382_40
  7829  002DC6                     i2u381_40:
  7830  002DC6  0E00               	movlw	0
  7831  002DC8                     i2u382_40:
  7832  002DC8  6E2F               	movwf	_xtoa$1775^0,c
  7833  002DCA  6A30               	clrf	(_xtoa$1775+1)^0,c
  7834  002DCC  502F               	movf	_xtoa$1775^0,w,c
  7835  002DCE  1030               	iorwf	(_xtoa$1775+1)^0,w,c
  7836  002DD0  B4D8               	btfsc	status,2,c
  7837  002DD2  EFED  F016         	goto	i2u383_41
  7838  002DD6  EFEF  F016         	goto	i2u383_40
  7839  002DDA                     i2u383_41:
  7840  002DDA  EF1F  F017         	goto	i2l3552
  7841  002DDE                     i2u383_40:
  7842  002DDE  0E9F               	movlw	159
  7843  002DE0  6E27               	movwf	??_xtoa^0,c
  7844  002DE2  0EFF               	movlw	255
  7845  002DE4  6E28               	movwf	(??_xtoa+1)^0,c
  7846  002DE6  0E20               	movlw	32
  7847  002DE8  1041               	iorwf	xtoa@c^0,w,c
  7848  002DEA  6E29               	movwf	(??_xtoa+2)^0,c
  7849  002DEC  0E00               	movlw	0
  7850  002DEE  1042               	iorwf	(xtoa@c+1)^0,w,c
  7851  002DF0  6E2A               	movwf	(??_xtoa+3)^0,c
  7852  002DF2  5027               	movf	??_xtoa^0,w,c
  7853  002DF4  2629               	addwf	(??_xtoa+2)^0,f,c
  7854  002DF6  5028               	movf	(??_xtoa+1)^0,w,c
  7855  002DF8  222A               	addwfc	(??_xtoa+3)^0,f,c
  7856  002DFA  502A               	movf	(??_xtoa+3)^0,w,c
  7857  002DFC  E10A               	bnz	i2u384_40
  7858  002DFE  0E1A               	movlw	26
  7859  002E00  5C29               	subwf	(??_xtoa+2)^0,w,c
  7860  002E02  A0D8               	btfss	status,0,c
  7861  002E04  EF06  F017         	goto	i2u384_41
  7862  002E08  EF09  F017         	goto	i2u384_40
  7863  002E0C                     i2u384_41:
  7864  002E0C  0E01               	movlw	1
  7865  002E0E  EF0A  F017         	goto	i2u385_40
  7866  002E12                     i2u384_40:
  7867  002E12  0E00               	movlw	0
  7868  002E14                     i2u385_40:
  7869  002E14  6E31               	movwf	_xtoa$1776^0,c
  7870  002E16  6A32               	clrf	(_xtoa$1776+1)^0,c
  7871  002E18  5031               	movf	_xtoa$1776^0,w,c
  7872  002E1A  1032               	iorwf	(_xtoa$1776+1)^0,w,c
  7873  002E1C  B4D8               	btfsc	status,2,c
  7874  002E1E  EF13  F017         	goto	i2u386_41
  7875  002E22  EF15  F017         	goto	i2u386_40
  7876  002E26                     i2u386_41:
  7877  002E26  EF1F  F017         	goto	i2l3552
  7878  002E2A                     i2u386_40:
  7879  002E2A                     
  7880                           ;/opt/microchip/xc8/v2.30/pic/sources/c99/common/doprnt.c: 669:             c = toupper(
      +                          c);
  7881  002E2A  C041  F007         	movff	xtoa@c,toupper@c
  7882  002E2E  C042  F008         	movff	xtoa@c+1,toupper@c+1
  7883  002E32  EC49  F025         	call	_toupper	;wreg free
  7884  002E36  C007  F041         	movff	?_toupper,xtoa@c
  7885  002E3A  C008  F042         	movff	?_toupper+1,xtoa@c+1
  7886  002E3E                     i2l3552:
  7887                           
  7888                           ;/opt/microchip/xc8/v2.30/pic/sources/c99/common/doprnt.c: 671:         dbuf[i] = (char)
      +                          c;
  7889  002E3E  0E93               	movlw	low _dbuf
  7890  002E40  243F               	addwf	xtoa@i^0,w,c
  7891  002E42  6ED9               	movwf	fsr2l,c
  7892  002E44  0E01               	movlw	high _dbuf
  7893  002E46  2040               	addwfc	(xtoa@i+1)^0,w,c
  7894  002E48  6EDA               	movwf	fsr2h,c
  7895  002E4A  C041  FFDF         	movff	xtoa@c,indf2
  7896  002E4E                     
  7897                           ;/opt/microchip/xc8/v2.30/pic/sources/c99/common/doprnt.c: 672:         --p;
  7898  002E4E  0633               	decf	xtoa@p^0,f,c
  7899  002E50  A0D8               	btfss	status,0,c
  7900  002E52  0634               	decf	(xtoa@p+1)^0,f,c
  7901  002E54                     
  7902                           ;/opt/microchip/xc8/v2.30/pic/sources/c99/common/doprnt.c: 673:         --w;
  7903  002E54  0635               	decf	xtoa@w^0,f,c
  7904  002E56  A0D8               	btfss	status,0,c
  7905  002E58  0636               	decf	(xtoa@w+1)^0,f,c
  7906  002E5A                     
  7907                           ;/opt/microchip/xc8/v2.30/pic/sources/c99/common/doprnt.c: 674:         n = n >> 4;
  7908  002E5A  C037  F027         	movff	xtoa@n,??_xtoa
  7909  002E5E  C038  F028         	movff	xtoa@n+1,??_xtoa+1
  7910  002E62  C039  F029         	movff	xtoa@n+2,??_xtoa+2
  7911  002E66  C03A  F02A         	movff	xtoa@n+3,??_xtoa+3
  7912  002E6A  C03B  F02B         	movff	xtoa@n+4,??_xtoa+4
  7913  002E6E  C03C  F02C         	movff	xtoa@n+5,??_xtoa+5
  7914  002E72  C03D  F02D         	movff	xtoa@n+6,??_xtoa+6
  7915  002E76  C03E  F02E         	movff	xtoa@n+7,??_xtoa+7
  7916  002E7A  0E05               	movlw	5
  7917  002E7C  EF49  F017         	goto	i2u387_40
  7918  002E80                     i2u387_45:
  7919  002E80  90D8               	bcf	status,0,c
  7920  002E82  322E               	rrcf	(??_xtoa+7)^0,f,c
  7921  002E84  322D               	rrcf	(??_xtoa+6)^0,f,c
  7922  002E86  322C               	rrcf	(??_xtoa+5)^0,f,c
  7923  002E88  322B               	rrcf	(??_xtoa+4)^0,f,c
  7924  002E8A  322A               	rrcf	(??_xtoa+3)^0,f,c
  7925  002E8C  3229               	rrcf	(??_xtoa+2)^0,f,c
  7926  002E8E  3228               	rrcf	(??_xtoa+1)^0,f,c
  7927  002E90  3227               	rrcf	??_xtoa^0,f,c
  7928  002E92                     i2u387_40:
  7929  002E92  2EE8               	decfsz	wreg,f,c
  7930  002E94  EF40  F017         	goto	i2u387_45
  7931  002E98  C027  F037         	movff	??_xtoa,xtoa@n
  7932  002E9C  C028  F038         	movff	??_xtoa+1,xtoa@n+1
  7933  002EA0  C029  F039         	movff	??_xtoa+2,xtoa@n+2
  7934  002EA4  C02A  F03A         	movff	??_xtoa+3,xtoa@n+3
  7935  002EA8  C02B  F03B         	movff	??_xtoa+4,xtoa@n+4
  7936  002EAC  C02C  F03C         	movff	??_xtoa+5,xtoa@n+5
  7937  002EB0  C02D  F03D         	movff	??_xtoa+6,xtoa@n+6
  7938  002EB4  C02E  F03E         	movff	??_xtoa+7,xtoa@n+7
  7939  002EB8                     i2l3560:
  7940                           
  7941                           ;/opt/microchip/xc8/v2.30/pic/sources/c99/common/doprnt.c: 664:     while (!(i < 2) && (
      +                          n || (0 < p) || ((0 < w) && (flags & (1 << 1))))) {
  7942  002EB8  BE40               	btfsc	(xtoa@i+1)^0,7,c
  7943  002EBA  EF68  F017         	goto	i2u388_41
  7944  002EBE  5040               	movf	(xtoa@i+1)^0,w,c
  7945  002EC0  E109               	bnz	i2u388_40
  7946  002EC2  0E02               	movlw	2
  7947  002EC4  5C3F               	subwf	xtoa@i^0,w,c
  7948  002EC6  A0D8               	btfss	status,0,c
  7949  002EC8  EF68  F017         	goto	i2u388_41
  7950  002ECC  EF6A  F017         	goto	i2u388_40
  7951  002ED0                     i2u388_41:
  7952  002ED0  EF9B  F017         	goto	i2l1193
  7953  002ED4                     i2u388_40:
  7954  002ED4  5037               	movf	xtoa@n^0,w,c
  7955  002ED6  1038               	iorwf	(xtoa@n+1)^0,w,c
  7956  002ED8  1039               	iorwf	(xtoa@n+2)^0,w,c
  7957  002EDA  103A               	iorwf	(xtoa@n+3)^0,w,c
  7958  002EDC  103B               	iorwf	(xtoa@n+4)^0,w,c
  7959  002EDE  103C               	iorwf	(xtoa@n+5)^0,w,c
  7960  002EE0  103D               	iorwf	(xtoa@n+6)^0,w,c
  7961  002EE2  103E               	iorwf	(xtoa@n+7)^0,w,c
  7962  002EE4  A4D8               	btfss	status,2,c
  7963  002EE6  EF77  F017         	goto	i2u389_41
  7964  002EEA  EF79  F017         	goto	i2u389_40
  7965  002EEE                     i2u389_41:
  7966  002EEE  EFA9  F016         	goto	i2l3530
  7967  002EF2                     i2u389_40:
  7968  002EF2  BE34               	btfsc	(xtoa@p+1)^0,7,c
  7969  002EF4  EF86  F017         	goto	i2u390_40
  7970  002EF8  5034               	movf	(xtoa@p+1)^0,w,c
  7971  002EFA  E106               	bnz	i2u390_41
  7972  002EFC  0433               	decf	xtoa@p^0,w,c
  7973  002EFE  B0D8               	btfsc	status,0,c
  7974  002F00  EF84  F017         	goto	i2u390_41
  7975  002F04  EF86  F017         	goto	i2u390_40
  7976  002F08                     i2u390_41:
  7977  002F08  EFA9  F016         	goto	i2l3530
  7978  002F0C                     i2u390_40:
  7979  002F0C  BE36               	btfsc	(xtoa@w+1)^0,7,c
  7980  002F0E  EF91  F017         	goto	i2u391_41
  7981  002F12  5036               	movf	(xtoa@w+1)^0,w,c
  7982  002F14  E108               	bnz	i2u391_40
  7983  002F16  0435               	decf	xtoa@w^0,w,c
  7984  002F18  A0D8               	btfss	status,0,c
  7985  002F1A  EF91  F017         	goto	i2u391_41
  7986  002F1E  EF93  F017         	goto	i2u391_40
  7987  002F22                     i2u391_41:
  7988  002F22  EF9B  F017         	goto	i2l1193
  7989  002F26                     i2u391_40:
  7990  002F26  0100               	movlb	0	; () banked
  7991  002F28  B3E2               	btfsc	_flags& (0+255),1,b
  7992  002F2A  EF99  F017         	goto	i2u392_41
  7993  002F2E  EF9B  F017         	goto	i2u392_40
  7994  002F32                     i2u392_41:
  7995  002F32  EFA9  F016         	goto	i2l3530
  7996  002F36                     i2u392_40:
  7997  002F36                     i2l1193:
  7998                           
  7999                           ;/opt/microchip/xc8/v2.30/pic/sources/c99/common/doprnt.c: 678:     if (flags & (1 << 4)
      +                          ) {
  8000  002F36  0100               	movlb	0	; () banked
  8001  002F38  A9E2               	btfss	_flags& (0+255),4,b
  8002  002F3A  EFA1  F017         	goto	i2u393_41
  8003  002F3E  EFA3  F017         	goto	i2u393_40
  8004  002F42                     i2u393_41:
  8005  002F42  EFB9  F017         	goto	i2l3576
  8006  002F46                     i2u393_40:
  8007  002F46                     
  8008                           ; BSR set to: 0
  8009                           ;/opt/microchip/xc8/v2.30/pic/sources/c99/common/doprnt.c: 679:         --i;
  8010  002F46  063F               	decf	xtoa@i^0,f,c
  8011  002F48  A0D8               	btfss	status,0,c
  8012  002F4A  0640               	decf	(xtoa@i+1)^0,f,c
  8013  002F4C                     
  8014                           ; BSR set to: 0
  8015                           ;/opt/microchip/xc8/v2.30/pic/sources/c99/common/doprnt.c: 680:         dbuf[i] = x;
  8016  002F4C  0E93               	movlw	low _dbuf
  8017  002F4E  243F               	addwf	xtoa@i^0,w,c
  8018  002F50  6ED9               	movwf	fsr2l,c
  8019  002F52  0E01               	movlw	high _dbuf
  8020  002F54  2040               	addwfc	(xtoa@i+1)^0,w,c
  8021  002F56  6EDA               	movwf	fsr2h,c
  8022  002F58  C026  FFDF         	movff	xtoa@x,indf2
  8023  002F5C                     
  8024                           ; BSR set to: 0
  8025                           ;/opt/microchip/xc8/v2.30/pic/sources/c99/common/doprnt.c: 681:         --i;
  8026  002F5C  063F               	decf	xtoa@i^0,f,c
  8027  002F5E  A0D8               	btfss	status,0,c
  8028  002F60  0640               	decf	(xtoa@i+1)^0,f,c
  8029                           
  8030                           ;/opt/microchip/xc8/v2.30/pic/sources/c99/common/doprnt.c: 682:         dbuf[i] = '0';
  8031  002F62  0E93               	movlw	low _dbuf
  8032  002F64  243F               	addwf	xtoa@i^0,w,c
  8033  002F66  6ED9               	movwf	fsr2l,c
  8034  002F68  0E01               	movlw	high _dbuf
  8035  002F6A  2040               	addwfc	(xtoa@i+1)^0,w,c
  8036  002F6C  6EDA               	movwf	fsr2h,c
  8037  002F6E  0E30               	movlw	48
  8038  002F70  6EDF               	movwf	indf2,c
  8039  002F72                     i2l3576:
  8040                           
  8041                           ; BSR set to: 0
  8042                           ;/opt/microchip/xc8/v2.30/pic/sources/c99/common/doprnt.c: 686:     return pad(fp, &dbuf
      +                          [i], w);
  8043  002F72  C01C  F011         	movff	xtoa@fp,pad@fp
  8044  002F76  C01D  F012         	movff	xtoa@fp+1,pad@fp+1
  8045  002F7A  0E93               	movlw	low _dbuf
  8046  002F7C  243F               	addwf	xtoa@i^0,w,c
  8047  002F7E  6E13               	movwf	pad@buf^0,c
  8048  002F80  0E01               	movlw	high _dbuf
  8049  002F82  2040               	addwfc	(xtoa@i+1)^0,w,c
  8050  002F84  6E14               	movwf	(pad@buf+1)^0,c
  8051  002F86  C035  F015         	movff	xtoa@w,pad@p
  8052  002F8A  C036  F016         	movff	xtoa@w+1,pad@p+1
  8053  002F8E  EC0A  F022         	call	_pad	;wreg free
  8054  002F92  C011  F01C         	movff	?_pad,?_xtoa
  8055  002F96  C012  F01D         	movff	?_pad+1,?_xtoa+1
  8056  002F9A  0012               	return		;funcret
  8057  002F9C                     __end_of_xtoa:
  8058                           	callstack 0
  8059                           
  8060 ;; *************** function _toupper *****************
  8061 ;; Defined at:
  8062 ;;		line 4 in file "/opt/microchip/xc8/v2.30/pic/sources/c99/common/toupper.c"
  8063 ;; Parameters:    Size  Location     Type
  8064 ;;  c               2    6[COMRAM] int 
  8065 ;; Auto vars:     Size  Location     Type
  8066 ;;		None
  8067 ;; Return value:  Size  Location     Type
  8068 ;;                  2    6[COMRAM] int 
  8069 ;; Registers used:
  8070 ;;		wreg, status,2, status,0
  8071 ;; Tracked objects:
  8072 ;;		On entry : 0/0
  8073 ;;		On exit  : 0/0
  8074 ;;		Unchanged: 0/0
  8075 ;; Data sizes:     COMRAM   BANK0   BANK1   BANK2   BANK3   BANK4   BANK5   BANK6   BANK7   BANK8   BANK9  BANK10  BANK1
      +1  BANK12  BANK13  BANK14  BANK15
  8076 ;;      Params:         2       0       0       0       0       0       0       0       0       0       0       0       
      +0       0       0       0       0
  8077 ;;      Locals:         2       0       0       0       0       0       0       0       0       0       0       0       
      +0       0       0       0       0
  8078 ;;      Temps:          4       0       0       0       0       0       0       0       0       0       0       0       
      +0       0       0       0       0
  8079 ;;      Totals:         8       0       0       0       0       0       0       0       0       0       0       0       
      +0       0       0       0       0
  8080 ;;Total ram usage:        8 bytes
  8081 ;; Hardware stack levels used:    1
  8082 ;; Hardware stack levels required when called:    1
  8083 ;; This function calls:
  8084 ;;		_islower
  8085 ;; This function is called by:
  8086 ;;		_xtoa
  8087 ;; This function uses a non-reentrant model
  8088 ;;
  8089                           
  8090                           	psect	text24
  8091  004A92                     __ptext24:
  8092                           	callstack 0
  8093  004A92                     _toupper:
  8094                           	callstack 18
  8095  004A92  0E9F               	movlw	159
  8096  004A94  6E09               	movwf	??_toupper^0,c
  8097  004A96  0EFF               	movlw	255
  8098  004A98  6E0A               	movwf	(??_toupper+1)^0,c
  8099  004A9A  C007  F00B         	movff	toupper@c,??_toupper+2
  8100  004A9E  C008  F00C         	movff	toupper@c+1,??_toupper+3
  8101  004AA2  5009               	movf	??_toupper^0,w,c
  8102  004AA4  260B               	addwf	(??_toupper+2)^0,f,c
  8103  004AA6  500A               	movf	(??_toupper+1)^0,w,c
  8104  004AA8  220C               	addwfc	(??_toupper+3)^0,f,c
  8105  004AAA  500C               	movf	(??_toupper+3)^0,w,c
  8106  004AAC  E10A               	bnz	i2u324_40
  8107  004AAE  0E1A               	movlw	26
  8108  004AB0  5C0B               	subwf	(??_toupper+2)^0,w,c
  8109  004AB2  A0D8               	btfss	status,0,c
  8110  004AB4  EF5E  F025         	goto	i2u324_41
  8111  004AB8  EF61  F025         	goto	i2u324_40
  8112  004ABC                     i2u324_41:
  8113  004ABC  0E01               	movlw	1
  8114  004ABE  EF62  F025         	goto	i2u325_40
  8115  004AC2                     i2u324_40:
  8116  004AC2  0E00               	movlw	0
  8117  004AC4                     i2u325_40:
  8118  004AC4  6E0D               	movwf	_toupper$2006^0,c
  8119  004AC6  6A0E               	clrf	(_toupper$2006+1)^0,c
  8120  004AC8  500D               	movf	_toupper$2006^0,w,c
  8121  004ACA  100E               	iorwf	(_toupper$2006+1)^0,w,c
  8122  004ACC  B4D8               	btfsc	status,2,c
  8123  004ACE  EF6B  F025         	goto	i2u326_41
  8124  004AD2  EF6D  F025         	goto	i2u326_40
  8125  004AD6                     i2u326_41:
  8126  004AD6  EF73  F025         	goto	i2l1394
  8127  004ADA                     i2u326_40:
  8128  004ADA  0E5F               	movlw	95
  8129  004ADC  1407               	andwf	toupper@c^0,w,c
  8130  004ADE  6E07               	movwf	?_toupper^0,c
  8131  004AE0  6A08               	clrf	(?_toupper+1)^0,c
  8132  004AE2  EF77  F025         	goto	i2l1399
  8133  004AE6                     i2l1394:
  8134  004AE6  C007  F007         	movff	toupper@c,?_toupper
  8135  004AEA  C008  F008         	movff	toupper@c+1,?_toupper+1
  8136  004AEE                     i2l1399:
  8137  004AEE  0012               	return		;funcret
  8138  004AF0                     __end_of_toupper:
  8139                           	callstack 0
  8140                           
  8141 ;; *************** function _islower *****************
  8142 ;; Defined at:
  8143 ;;		line 5 in file "/opt/microchip/xc8/v2.30/pic/sources/c99/common/islower.c"
  8144 ;; Parameters:    Size  Location     Type
  8145 ;;  c               2    0[COMRAM] int 
  8146 ;; Auto vars:     Size  Location     Type
  8147 ;;		None
  8148 ;; Return value:  Size  Location     Type
  8149 ;;                  2    0[COMRAM] int 
  8150 ;; Registers used:
  8151 ;;		wreg, status,2, status,0
  8152 ;; Tracked objects:
  8153 ;;		On entry : 0/0
  8154 ;;		On exit  : 0/0
  8155 ;;		Unchanged: 0/0
  8156 ;; Data sizes:     COMRAM   BANK0   BANK1   BANK2   BANK3   BANK4   BANK5   BANK6   BANK7   BANK8   BANK9  BANK10  BANK1
      +1  BANK12  BANK13  BANK14  BANK15
  8157 ;;      Params:         2       0       0       0       0       0       0       0       0       0       0       0       
      +0       0       0       0       0
  8158 ;;      Locals:         0       0       0       0       0       0       0       0       0       0       0       0       
      +0       0       0       0       0
  8159 ;;      Temps:          4       0       0       0       0       0       0       0       0       0       0       0       
      +0       0       0       0       0
  8160 ;;      Totals:         6       0       0       0       0       0       0       0       0       0       0       0       
      +0       0       0       0       0
  8161 ;;Total ram usage:        6 bytes
  8162 ;; Hardware stack levels used:    1
  8163 ;; This function calls:
  8164 ;;		Nothing
  8165 ;; This function is called by:
  8166 ;;		_toupper
  8167 ;; This function uses a non-reentrant model
  8168 ;;
  8169                           
  8170                           	psect	text25
  8171  004D32                     __ptext25:
  8172                           	callstack 0
  8173  004D32                     _islower:
  8174                           	callstack 18
  8175  004D32  0E9F               	movlw	159
  8176  004D34  6E03               	movwf	??_islower^0,c
  8177  004D36  0EFF               	movlw	255
  8178  004D38  6E04               	movwf	(??_islower+1)^0,c
  8179  004D3A  C001  F005         	movff	islower@c,??_islower+2
  8180  004D3E  C002  F006         	movff	islower@c+1,??_islower+3
  8181  004D42  5003               	movf	??_islower^0,w,c
  8182  004D44  2605               	addwf	(??_islower+2)^0,f,c
  8183  004D46  5004               	movf	(??_islower+1)^0,w,c
  8184  004D48  2206               	addwfc	(??_islower+3)^0,f,c
  8185  004D4A  5006               	movf	(??_islower+3)^0,w,c
  8186  004D4C  E10A               	bnz	i2u293_40
  8187  004D4E  0E1A               	movlw	26
  8188  004D50  5C05               	subwf	(??_islower+2)^0,w,c
  8189  004D52  A0D8               	btfss	status,0,c
  8190  004D54  EFAE  F026         	goto	i2u293_41
  8191  004D58  EFB1  F026         	goto	i2u293_40
  8192  004D5C                     i2u293_41:
  8193  004D5C  0E01               	movlw	1
  8194  004D5E  EFB2  F026         	goto	i2u294_40
  8195  004D62                     i2u293_40:
  8196  004D62  0E00               	movlw	0
  8197  004D64                     i2u294_40:
  8198  004D64  6E01               	movwf	?_islower^0,c
  8199  004D66  6A02               	clrf	(?_islower+1)^0,c
  8200  004D68  0012               	return		;funcret
  8201  004D6A                     __end_of_islower:
  8202                           	callstack 0
  8203                           
  8204 ;; *************** function _isupper *****************
  8205 ;; Defined at:
  8206 ;;		line 5 in file "/opt/microchip/xc8/v2.30/pic/sources/c99/common/isupper.c"
  8207 ;; Parameters:    Size  Location     Type
  8208 ;;  c               2    0[COMRAM] int 
  8209 ;; Auto vars:     Size  Location     Type
  8210 ;;		None
  8211 ;; Return value:  Size  Location     Type
  8212 ;;                  2    0[COMRAM] int 
  8213 ;; Registers used:
  8214 ;;		wreg, status,2, status,0
  8215 ;; Tracked objects:
  8216 ;;		On entry : 0/0
  8217 ;;		On exit  : 0/0
  8218 ;;		Unchanged: 0/0
  8219 ;; Data sizes:     COMRAM   BANK0   BANK1   BANK2   BANK3   BANK4   BANK5   BANK6   BANK7   BANK8   BANK9  BANK10  BANK1
      +1  BANK12  BANK13  BANK14  BANK15
  8220 ;;      Params:         2       0       0       0       0       0       0       0       0       0       0       0       
      +0       0       0       0       0
  8221 ;;      Locals:         0       0       0       0       0       0       0       0       0       0       0       0       
      +0       0       0       0       0
  8222 ;;      Temps:          4       0       0       0       0       0       0       0       0       0       0       0       
      +0       0       0       0       0
  8223 ;;      Totals:         6       0       0       0       0       0       0       0       0       0       0       0       
      +0       0       0       0       0
  8224 ;;Total ram usage:        6 bytes
  8225 ;; Hardware stack levels used:    1
  8226 ;; This function calls:
  8227 ;;		Nothing
  8228 ;; This function is called by:
  8229 ;;		_xtoa
  8230 ;; This function uses a non-reentrant model
  8231 ;;
  8232                           
  8233                           	psect	text26
  8234  004D6A                     __ptext26:
  8235                           	callstack 0
  8236  004D6A                     _isupper:
  8237                           	callstack 19
  8238  004D6A  0EBF               	movlw	191
  8239  004D6C  6E03               	movwf	??_isupper^0,c
  8240  004D6E  0EFF               	movlw	255
  8241  004D70  6E04               	movwf	(??_isupper+1)^0,c
  8242  004D72  C001  F005         	movff	isupper@c,??_isupper+2
  8243  004D76  C002  F006         	movff	isupper@c+1,??_isupper+3
  8244  004D7A  5003               	movf	??_isupper^0,w,c
  8245  004D7C  2605               	addwf	(??_isupper+2)^0,f,c
  8246  004D7E  5004               	movf	(??_isupper+1)^0,w,c
  8247  004D80  2206               	addwfc	(??_isupper+3)^0,f,c
  8248  004D82  5006               	movf	(??_isupper+3)^0,w,c
  8249  004D84  E10A               	bnz	i2u320_40
  8250  004D86  0E1A               	movlw	26
  8251  004D88  5C05               	subwf	(??_isupper+2)^0,w,c
  8252  004D8A  A0D8               	btfss	status,0,c
  8253  004D8C  EFCA  F026         	goto	i2u320_41
  8254  004D90  EFCD  F026         	goto	i2u320_40
  8255  004D94                     i2u320_41:
  8256  004D94  0E01               	movlw	1
  8257  004D96  EFCE  F026         	goto	i2u321_40
  8258  004D9A                     i2u320_40:
  8259  004D9A  0E00               	movlw	0
  8260  004D9C                     i2u321_40:
  8261  004D9C  6E01               	movwf	?_isupper^0,c
  8262  004D9E  6A02               	clrf	(?_isupper+1)^0,c
  8263  004DA0  0012               	return		;funcret
  8264  004DA2                     __end_of_isupper:
  8265                           	callstack 0
  8266                           
  8267 ;; *************** function _isalpha *****************
  8268 ;; Defined at:
  8269 ;;		line 5 in file "/opt/microchip/xc8/v2.30/pic/sources/c99/common/isalpha.c"
  8270 ;; Parameters:    Size  Location     Type
  8271 ;;  c               2    0[COMRAM] int 
  8272 ;; Auto vars:     Size  Location     Type
  8273 ;;		None
  8274 ;; Return value:  Size  Location     Type
  8275 ;;                  2    0[COMRAM] int 
  8276 ;; Registers used:
  8277 ;;		wreg, status,2, status,0
  8278 ;; Tracked objects:
  8279 ;;		On entry : 0/0
  8280 ;;		On exit  : 0/0
  8281 ;;		Unchanged: 0/0
  8282 ;; Data sizes:     COMRAM   BANK0   BANK1   BANK2   BANK3   BANK4   BANK5   BANK6   BANK7   BANK8   BANK9  BANK10  BANK1
      +1  BANK12  BANK13  BANK14  BANK15
  8283 ;;      Params:         2       0       0       0       0       0       0       0       0       0       0       0       
      +0       0       0       0       0
  8284 ;;      Locals:         0       0       0       0       0       0       0       0       0       0       0       0       
      +0       0       0       0       0
  8285 ;;      Temps:          4       0       0       0       0       0       0       0       0       0       0       0       
      +0       0       0       0       0
  8286 ;;      Totals:         6       0       0       0       0       0       0       0       0       0       0       0       
      +0       0       0       0       0
  8287 ;;Total ram usage:        6 bytes
  8288 ;; Hardware stack levels used:    1
  8289 ;; This function calls:
  8290 ;;		Nothing
  8291 ;; This function is called by:
  8292 ;;		_xtoa
  8293 ;; This function uses a non-reentrant model
  8294 ;;
  8295                           
  8296                           	psect	text27
  8297  004CF6                     __ptext27:
  8298                           	callstack 0
  8299  004CF6                     _isalpha:
  8300                           	callstack 19
  8301  004CF6  0E9F               	movlw	159
  8302  004CF8  6E03               	movwf	??_isalpha^0,c
  8303  004CFA  0EFF               	movlw	255
  8304  004CFC  6E04               	movwf	(??_isalpha+1)^0,c
  8305  004CFE  0E20               	movlw	32
  8306  004D00  1001               	iorwf	isalpha@c^0,w,c
  8307  004D02  6E05               	movwf	(??_isalpha+2)^0,c
  8308  004D04  0E00               	movlw	0
  8309  004D06  1002               	iorwf	(isalpha@c+1)^0,w,c
  8310  004D08  6E06               	movwf	(??_isalpha+3)^0,c
  8311  004D0A  5003               	movf	??_isalpha^0,w,c
  8312  004D0C  2605               	addwf	(??_isalpha+2)^0,f,c
  8313  004D0E  5004               	movf	(??_isalpha+1)^0,w,c
  8314  004D10  2206               	addwfc	(??_isalpha+3)^0,f,c
  8315  004D12  5006               	movf	(??_isalpha+3)^0,w,c
  8316  004D14  E10A               	bnz	i2u322_40
  8317  004D16  0E1A               	movlw	26
  8318  004D18  5C05               	subwf	(??_isalpha+2)^0,w,c
  8319  004D1A  A0D8               	btfss	status,0,c
  8320  004D1C  EF92  F026         	goto	i2u322_41
  8321  004D20  EF95  F026         	goto	i2u322_40
  8322  004D24                     i2u322_41:
  8323  004D24  0E01               	movlw	1
  8324  004D26  EF96  F026         	goto	i2u323_40
  8325  004D2A                     i2u322_40:
  8326  004D2A  0E00               	movlw	0
  8327  004D2C                     i2u323_40:
  8328  004D2C  6E01               	movwf	?_isalpha^0,c
  8329  004D2E  6A02               	clrf	(?_isalpha+1)^0,c
  8330  004D30  0012               	return		;funcret
  8331  004D32                     __end_of_isalpha:
  8332                           	callstack 0
  8333                           
  8334 ;; *************** function _utoa *****************
  8335 ;; Defined at:
  8336 ;;		line 615 in file "/opt/microchip/xc8/v2.30/pic/sources/c99/common/doprnt.c"
  8337 ;; Parameters:    Size  Location     Type
  8338 ;;  fp              2   27[COMRAM] PTR struct _IO_FILE
  8339 ;;		 -> vsnprintf@f(6), 
  8340 ;;  d               8   29[COMRAM] unsigned long long 
  8341 ;; Auto vars:     Size  Location     Type
  8342 ;;  n               8   49[COMRAM] unsigned long long 
  8343 ;;  i               2   57[COMRAM] int 
  8344 ;;  w               2   47[COMRAM] int 
  8345 ;;  p               2   45[COMRAM] int 
  8346 ;; Return value:  Size  Location     Type
  8347 ;;                  2   27[COMRAM] int 
  8348 ;; Registers used:
  8349 ;;		wreg, fsr1l, fsr1h, fsr2l, fsr2h, status,2, status,0, cstack
  8350 ;; Tracked objects:
  8351 ;;		On entry : 0/0
  8352 ;;		On exit  : 0/0
  8353 ;;		Unchanged: 0/0
  8354 ;; Data sizes:     COMRAM   BANK0   BANK1   BANK2   BANK3   BANK4   BANK5   BANK6   BANK7   BANK8   BANK9  BANK10  BANK1
      +1  BANK12  BANK13  BANK14  BANK15
  8355 ;;      Params:        10       0       0       0       0       0       0       0       0       0       0       0       
      +0       0       0       0       0
  8356 ;;      Locals:        14       0       0       0       0       0       0       0       0       0       0       0       
      +0       0       0       0       0
  8357 ;;      Temps:          8       0       0       0       0       0       0       0       0       0       0       0       
      +0       0       0       0       0
  8358 ;;      Totals:        32       0       0       0       0       0       0       0       0       0       0       0       
      +0       0       0       0       0
  8359 ;;Total ram usage:       32 bytes
  8360 ;; Hardware stack levels used:    1
  8361 ;; Hardware stack levels required when called:    4
  8362 ;; This function calls:
  8363 ;;		___lodiv
  8364 ;;		___lomod
  8365 ;;		_pad
  8366 ;; This function is called by:
  8367 ;;		_vfpfcnvrt
  8368 ;; This function uses a non-reentrant model
  8369 ;;
  8370                           
  8371                           	psect	text28
  8372  0031BC                     __ptext28:
  8373                           	callstack 0
  8374  0031BC                     _utoa:
  8375                           	callstack 16
  8376  0031BC                     
  8377                           ;/opt/microchip/xc8/v2.30/pic/sources/c99/common/doprnt.c: 615: static int utoa(FILE *fp
      +                          , unsigned long long d);/opt/microchip/xc8/v2.30/pic/sources/c99/common/doprnt.c: 616: {
      +                          ;/opt/microchip/xc8/v2.30/pic/sources/c99/common/doprnt.c: 617:     int i, p, w;;/opt/mi
      +                          crochip/xc8/v2.30/pic/sources/c99/common/doprnt.c: 618:     unsigned long long n;;/opt/m
      +                          icrochip/xc8/v2.30/pic/sources/c99/common/doprnt.c: 621:     if (!(prec < 0)) {
  8378  0031BC  0100               	movlb	0	; () banked
  8379  0031BE  BFE1               	btfsc	(_prec+1)& (0+255),7,b
  8380  0031C0  EFE4  F018         	goto	i2u370_41
  8381  0031C4  EFE6  F018         	goto	i2u370_40
  8382  0031C8                     i2u370_41:
  8383  0031C8  EFE7  F018         	goto	i2l3482
  8384  0031CC                     i2u370_40:
  8385  0031CC                     
  8386                           ; BSR set to: 0
  8387                           ;/opt/microchip/xc8/v2.30/pic/sources/c99/common/doprnt.c: 622:         flags &= ~(1 << 
      +                          1);
  8388  0031CC  93E2               	bcf	_flags& (0+255),1,b
  8389  0031CE                     i2l3482:
  8390                           
  8391                           ; BSR set to: 0
  8392                           ;/opt/microchip/xc8/v2.30/pic/sources/c99/common/doprnt.c: 624:     p = (0 < prec) ? pre
      +                          c : 1;
  8393  0031CE  BFE1               	btfsc	(_prec+1)& (0+255),7,b
  8394  0031D0  EFF4  F018         	goto	i2u371_40
  8395  0031D4  51E1               	movf	(_prec+1)& (0+255),w,b
  8396  0031D6  E106               	bnz	i2u371_41
  8397  0031D8  05E0               	decf	_prec& (0+255),w,b
  8398  0031DA  B0D8               	btfsc	status,0,c
  8399  0031DC  EFF2  F018         	goto	i2u371_41
  8400  0031E0  EFF4  F018         	goto	i2u371_40
  8401  0031E4                     i2u371_41:
  8402  0031E4  EFFA  F018         	goto	i2l1155
  8403  0031E8                     i2u371_40:
  8404  0031E8                     
  8405                           ; BSR set to: 0
  8406  0031E8  0E00               	movlw	0
  8407  0031EA  6E2F               	movwf	(utoa@p+1)^0,c
  8408  0031EC  0E01               	movlw	1
  8409  0031EE  6E2E               	movwf	utoa@p^0,c
  8410  0031F0  EFFE  F018         	goto	i2l1157
  8411  0031F4                     i2l1155:
  8412                           
  8413                           ; BSR set to: 0
  8414  0031F4  C0E0  F02E         	movff	_prec,utoa@p
  8415  0031F8  C0E1  F02F         	movff	_prec+1,utoa@p+1
  8416  0031FC                     i2l1157:
  8417                           
  8418                           ; BSR set to: 0
  8419                           ;/opt/microchip/xc8/v2.30/pic/sources/c99/common/doprnt.c: 625:     w = width;
  8420  0031FC  C0DE  F030         	movff	_width,utoa@w
  8421  003200  C0DF  F031         	movff	_width+1,utoa@w+1
  8422                           
  8423                           ;/opt/microchip/xc8/v2.30/pic/sources/c99/common/doprnt.c: 628:     n = d;
  8424  003204  C01E  F032         	movff	utoa@d,utoa@n
  8425  003208  C01F  F033         	movff	utoa@d+1,utoa@n+1
  8426  00320C  C020  F034         	movff	utoa@d+2,utoa@n+2
  8427  003210  C021  F035         	movff	utoa@d+3,utoa@n+3
  8428  003214  C022  F036         	movff	utoa@d+4,utoa@n+4
  8429  003218  C023  F037         	movff	utoa@d+5,utoa@n+5
  8430  00321C  C024  F038         	movff	utoa@d+6,utoa@n+6
  8431  003220  C025  F039         	movff	utoa@d+7,utoa@n+7
  8432  003224                     
  8433                           ; BSR set to: 0
  8434                           ;/opt/microchip/xc8/v2.30/pic/sources/c99/common/doprnt.c: 629:     i = sizeof(dbuf) - 1
      +                          ;
  8435  003224  0E00               	movlw	0
  8436  003226  6E3B               	movwf	(utoa@i+1)^0,c
  8437  003228  0E1F               	movlw	31
  8438  00322A  6E3A               	movwf	utoa@i^0,c
  8439  00322C                     
  8440                           ; BSR set to: 0
  8441                           ;/opt/microchip/xc8/v2.30/pic/sources/c99/common/doprnt.c: 630:     dbuf[i] = '\0';
  8442  00322C  0E00               	movlw	0
  8443  00322E  0101               	movlb	1	; () banked
  8444  003230  6FB2               	movwf	(_dbuf+31)& (0+255),b
  8445                           
  8446                           ;/opt/microchip/xc8/v2.30/pic/sources/c99/common/doprnt.c: 631:     while (i && (n || (0
      +                           < p) || ((0 < w) && (flags & (1 << 1))))) {
  8447  003232  EF91  F019         	goto	i2l3500
  8448  003236                     i2l3490:
  8449                           
  8450                           ;/opt/microchip/xc8/v2.30/pic/sources/c99/common/doprnt.c: 632:         --i;
  8451  003236  063A               	decf	utoa@i^0,f,c
  8452  003238  A0D8               	btfss	status,0,c
  8453  00323A  063B               	decf	(utoa@i+1)^0,f,c
  8454  00323C                     
  8455                           ;/opt/microchip/xc8/v2.30/pic/sources/c99/common/doprnt.c: 633:         dbuf[i] = '0' + 
      +                          (n % 10);
  8456  00323C  0E93               	movlw	low _dbuf
  8457  00323E  243A               	addwf	utoa@i^0,w,c
  8458  003240  6ED9               	movwf	fsr2l,c
  8459  003242  0E01               	movlw	high _dbuf
  8460  003244  203B               	addwfc	(utoa@i+1)^0,w,c
  8461  003246  6EDA               	movwf	fsr2h,c
  8462  003248  C032  F001         	movff	utoa@n,___lomod@dividend
  8463  00324C  C033  F002         	movff	utoa@n+1,___lomod@dividend+1
  8464  003250  C034  F003         	movff	utoa@n+2,___lomod@dividend+2
  8465  003254  C035  F004         	movff	utoa@n+3,___lomod@dividend+3
  8466  003258  C036  F005         	movff	utoa@n+4,___lomod@dividend+4
  8467  00325C  C037  F006         	movff	utoa@n+5,___lomod@dividend+5
  8468  003260  C038  F007         	movff	utoa@n+6,___lomod@dividend+6
  8469  003264  C039  F008         	movff	utoa@n+7,___lomod@dividend+7
  8470  003268  0E0A               	movlw	10
  8471  00326A  6E09               	movwf	___lomod@divisor^0,c
  8472  00326C  0E00               	movlw	0
  8473  00326E  6E0A               	movwf	(___lomod@divisor+1)^0,c
  8474  003270  0E00               	movlw	0
  8475  003272  6E0B               	movwf	(___lomod@divisor+2)^0,c
  8476  003274  0E00               	movlw	0
  8477  003276  6E0C               	movwf	(___lomod@divisor+3)^0,c
  8478  003278  0E00               	movlw	0
  8479  00327A  6E0D               	movwf	(___lomod@divisor+4)^0,c
  8480  00327C  0E00               	movlw	0
  8481  00327E  6E0E               	movwf	(___lomod@divisor+5)^0,c
  8482  003280  0E00               	movlw	0
  8483  003282  6E0F               	movwf	(___lomod@divisor+6)^0,c
  8484  003284  0E00               	movlw	0
  8485  003286  6E10               	movwf	(___lomod@divisor+7)^0,c
  8486  003288  ECD7  F020         	call	___lomod	;wreg free
  8487  00328C  C001  F026         	movff	?___lomod,??_utoa
  8488  003290  C002  F027         	movff	?___lomod+1,??_utoa+1
  8489  003294  C003  F028         	movff	?___lomod+2,??_utoa+2
  8490  003298  C004  F029         	movff	?___lomod+3,??_utoa+3
  8491  00329C  C005  F02A         	movff	?___lomod+4,??_utoa+4
  8492  0032A0  C006  F02B         	movff	?___lomod+5,??_utoa+5
  8493  0032A4  C007  F02C         	movff	?___lomod+6,??_utoa+6
  8494  0032A8  C008  F02D         	movff	?___lomod+7,??_utoa+7
  8495  0032AC  5026               	movf	??_utoa^0,w,c
  8496  0032AE  0F30               	addlw	48
  8497  0032B0  6EDF               	movwf	indf2,c
  8498  0032B2                     
  8499                           ;/opt/microchip/xc8/v2.30/pic/sources/c99/common/doprnt.c: 634:         --p;
  8500  0032B2  062E               	decf	utoa@p^0,f,c
  8501  0032B4  A0D8               	btfss	status,0,c
  8502  0032B6  062F               	decf	(utoa@p+1)^0,f,c
  8503  0032B8                     
  8504                           ;/opt/microchip/xc8/v2.30/pic/sources/c99/common/doprnt.c: 635:         --w;
  8505  0032B8  0630               	decf	utoa@w^0,f,c
  8506  0032BA  A0D8               	btfss	status,0,c
  8507  0032BC  0631               	decf	(utoa@w+1)^0,f,c
  8508  0032BE                     
  8509                           ;/opt/microchip/xc8/v2.30/pic/sources/c99/common/doprnt.c: 636:         n = n / 10;
  8510  0032BE  C032  F001         	movff	utoa@n,___lodiv@dividend
  8511  0032C2  C033  F002         	movff	utoa@n+1,___lodiv@dividend+1
  8512  0032C6  C034  F003         	movff	utoa@n+2,___lodiv@dividend+2
  8513  0032CA  C035  F004         	movff	utoa@n+3,___lodiv@dividend+3
  8514  0032CE  C036  F005         	movff	utoa@n+4,___lodiv@dividend+4
  8515  0032D2  C037  F006         	movff	utoa@n+5,___lodiv@dividend+5
  8516  0032D6  C038  F007         	movff	utoa@n+6,___lodiv@dividend+6
  8517  0032DA  C039  F008         	movff	utoa@n+7,___lodiv@dividend+7
  8518  0032DE  0E0A               	movlw	10
  8519  0032E0  6E09               	movwf	___lodiv@divisor^0,c
  8520  0032E2  0E00               	movlw	0
  8521  0032E4  6E0A               	movwf	(___lodiv@divisor+1)^0,c
  8522  0032E6  0E00               	movlw	0
  8523  0032E8  6E0B               	movwf	(___lodiv@divisor+2)^0,c
  8524  0032EA  0E00               	movlw	0
  8525  0032EC  6E0C               	movwf	(___lodiv@divisor+3)^0,c
  8526  0032EE  0E00               	movlw	0
  8527  0032F0  6E0D               	movwf	(___lodiv@divisor+4)^0,c
  8528  0032F2  0E00               	movlw	0
  8529  0032F4  6E0E               	movwf	(___lodiv@divisor+5)^0,c
  8530  0032F6  0E00               	movlw	0
  8531  0032F8  6E0F               	movwf	(___lodiv@divisor+6)^0,c
  8532  0032FA  0E00               	movlw	0
  8533  0032FC  6E10               	movwf	(___lodiv@divisor+7)^0,c
  8534  0032FE  ECF3  F01F         	call	___lodiv	;wreg free
  8535  003302  C001  F032         	movff	?___lodiv,utoa@n
  8536  003306  C002  F033         	movff	?___lodiv+1,utoa@n+1
  8537  00330A  C003  F034         	movff	?___lodiv+2,utoa@n+2
  8538  00330E  C004  F035         	movff	?___lodiv+3,utoa@n+3
  8539  003312  C005  F036         	movff	?___lodiv+4,utoa@n+4
  8540  003316  C006  F037         	movff	?___lodiv+5,utoa@n+5
  8541  00331A  C007  F038         	movff	?___lodiv+6,utoa@n+6
  8542  00331E  C008  F039         	movff	?___lodiv+7,utoa@n+7
  8543  003322                     i2l3500:
  8544                           
  8545                           ;/opt/microchip/xc8/v2.30/pic/sources/c99/common/doprnt.c: 631:     while (i && (n || (0
      +                           < p) || ((0 < w) && (flags & (1 << 1))))) {
  8546  003322  503A               	movf	utoa@i^0,w,c
  8547  003324  103B               	iorwf	(utoa@i+1)^0,w,c
  8548  003326  B4D8               	btfsc	status,2,c
  8549  003328  EF98  F019         	goto	i2u372_41
  8550  00332C  EF9A  F019         	goto	i2u372_40
  8551  003330                     i2u372_41:
  8552  003330  EFCB  F019         	goto	i2l3510
  8553  003334                     i2u372_40:
  8554  003334  5032               	movf	utoa@n^0,w,c
  8555  003336  1033               	iorwf	(utoa@n+1)^0,w,c
  8556  003338  1034               	iorwf	(utoa@n+2)^0,w,c
  8557  00333A  1035               	iorwf	(utoa@n+3)^0,w,c
  8558  00333C  1036               	iorwf	(utoa@n+4)^0,w,c
  8559  00333E  1037               	iorwf	(utoa@n+5)^0,w,c
  8560  003340  1038               	iorwf	(utoa@n+6)^0,w,c
  8561  003342  1039               	iorwf	(utoa@n+7)^0,w,c
  8562  003344  A4D8               	btfss	status,2,c
  8563  003346  EFA7  F019         	goto	i2u373_41
  8564  00334A  EFA9  F019         	goto	i2u373_40
  8565  00334E                     i2u373_41:
  8566  00334E  EF1B  F019         	goto	i2l3490
  8567  003352                     i2u373_40:
  8568  003352  BE2F               	btfsc	(utoa@p+1)^0,7,c
  8569  003354  EFB6  F019         	goto	i2u374_40
  8570  003358  502F               	movf	(utoa@p+1)^0,w,c
  8571  00335A  E106               	bnz	i2u374_41
  8572  00335C  042E               	decf	utoa@p^0,w,c
  8573  00335E  B0D8               	btfsc	status,0,c
  8574  003360  EFB4  F019         	goto	i2u374_41
  8575  003364  EFB6  F019         	goto	i2u374_40
  8576  003368                     i2u374_41:
  8577  003368  EF1B  F019         	goto	i2l3490
  8578  00336C                     i2u374_40:
  8579  00336C  BE31               	btfsc	(utoa@w+1)^0,7,c
  8580  00336E  EFC1  F019         	goto	i2u375_41
  8581  003372  5031               	movf	(utoa@w+1)^0,w,c
  8582  003374  E108               	bnz	i2u375_40
  8583  003376  0430               	decf	utoa@w^0,w,c
  8584  003378  A0D8               	btfss	status,0,c
  8585  00337A  EFC1  F019         	goto	i2u375_41
  8586  00337E  EFC3  F019         	goto	i2u375_40
  8587  003382                     i2u375_41:
  8588  003382  EFCB  F019         	goto	i2l3510
  8589  003386                     i2u375_40:
  8590  003386  0100               	movlb	0	; () banked
  8591  003388  B3E2               	btfsc	_flags& (0+255),1,b
  8592  00338A  EFC9  F019         	goto	i2u376_41
  8593  00338E  EFCB  F019         	goto	i2u376_40
  8594  003392                     i2u376_41:
  8595  003392  EF1B  F019         	goto	i2l3490
  8596  003396                     i2u376_40:
  8597  003396                     i2l3510:
  8598                           
  8599                           ;/opt/microchip/xc8/v2.30/pic/sources/c99/common/doprnt.c: 640:     return pad(fp, &dbuf
      +                          [i], w);
  8600  003396  C01C  F011         	movff	utoa@fp,pad@fp
  8601  00339A  C01D  F012         	movff	utoa@fp+1,pad@fp+1
  8602  00339E  0E93               	movlw	low _dbuf
  8603  0033A0  243A               	addwf	utoa@i^0,w,c
  8604  0033A2  6E13               	movwf	pad@buf^0,c
  8605  0033A4  0E01               	movlw	high _dbuf
  8606  0033A6  203B               	addwfc	(utoa@i+1)^0,w,c
  8607  0033A8  6E14               	movwf	(pad@buf+1)^0,c
  8608  0033AA  C030  F015         	movff	utoa@w,pad@p
  8609  0033AE  C031  F016         	movff	utoa@w+1,pad@p+1
  8610  0033B2  EC0A  F022         	call	_pad	;wreg free
  8611  0033B6  C011  F01C         	movff	?_pad,?_utoa
  8612  0033BA  C012  F01D         	movff	?_pad+1,?_utoa+1
  8613  0033BE  0012               	return		;funcret
  8614  0033C0                     __end_of_utoa:
  8615                           	callstack 0
  8616                           
  8617 ;; *************** function ___lomod *****************
  8618 ;; Defined at:
  8619 ;;		line 9 in file "/opt/microchip/xc8/v2.30/pic/sources/c99/common/lomod.c"
  8620 ;; Parameters:    Size  Location     Type
  8621 ;;  dividend        8    0[COMRAM] unsigned long long 
  8622 ;;  divisor         8    8[COMRAM] unsigned long long 
  8623 ;; Auto vars:     Size  Location     Type
  8624 ;;  counter         1   16[COMRAM] unsigned char 
  8625 ;; Return value:  Size  Location     Type
  8626 ;;                  8    0[COMRAM] unsigned long long 
  8627 ;; Registers used:
  8628 ;;		wreg, status,2, status,0
  8629 ;; Tracked objects:
  8630 ;;		On entry : 0/0
  8631 ;;		On exit  : 0/0
  8632 ;;		Unchanged: 0/0
  8633 ;; Data sizes:     COMRAM   BANK0   BANK1   BANK2   BANK3   BANK4   BANK5   BANK6   BANK7   BANK8   BANK9  BANK10  BANK1
      +1  BANK12  BANK13  BANK14  BANK15
  8634 ;;      Params:        16       0       0       0       0       0       0       0       0       0       0       0       
      +0       0       0       0       0
  8635 ;;      Locals:         1       0       0       0       0       0       0       0       0       0       0       0       
      +0       0       0       0       0
  8636 ;;      Temps:          0       0       0       0       0       0       0       0       0       0       0       0       
      +0       0       0       0       0
  8637 ;;      Totals:        17       0       0       0       0       0       0       0       0       0       0       0       
      +0       0       0       0       0
  8638 ;;Total ram usage:       17 bytes
  8639 ;; Hardware stack levels used:    1
  8640 ;; This function calls:
  8641 ;;		Nothing
  8642 ;; This function is called by:
  8643 ;;		_utoa
  8644 ;; This function uses a non-reentrant model
  8645 ;;
  8646                           
  8647                           	psect	text29
  8648  0041AE                     __ptext29:
  8649                           	callstack 0
  8650  0041AE                     ___lomod:
  8651                           	callstack 19
  8652  0041AE  5009               	movf	___lomod@divisor^0,w,c
  8653  0041B0  100A               	iorwf	(___lomod@divisor+1)^0,w,c
  8654  0041B2  100B               	iorwf	(___lomod@divisor+2)^0,w,c
  8655  0041B4  100C               	iorwf	(___lomod@divisor+3)^0,w,c
  8656  0041B6  100D               	iorwf	(___lomod@divisor+4)^0,w,c
  8657  0041B8  100E               	iorwf	(___lomod@divisor+5)^0,w,c
  8658  0041BA  100F               	iorwf	(___lomod@divisor+6)^0,w,c
  8659  0041BC  1010               	iorwf	(___lomod@divisor+7)^0,w,c
  8660  0041BE  B4D8               	btfsc	status,2,c
  8661  0041C0  EFE4  F020         	goto	i2u312_41
  8662  0041C4  EFE6  F020         	goto	i2u312_40
  8663  0041C8                     i2u312_41:
  8664  0041C8  EF2E  F021         	goto	i2l780
  8665  0041CC                     i2u312_40:
  8666  0041CC  0E01               	movlw	1
  8667  0041CE  6E11               	movwf	___lomod@counter^0,c
  8668  0041D0  EFF4  F020         	goto	i2l3228
  8669  0041D4                     i2l3226:
  8670  0041D4  90D8               	bcf	status,0,c
  8671  0041D6  3609               	rlcf	___lomod@divisor^0,f,c
  8672  0041D8  360A               	rlcf	(___lomod@divisor+1)^0,f,c
  8673  0041DA  360B               	rlcf	(___lomod@divisor+2)^0,f,c
  8674  0041DC  360C               	rlcf	(___lomod@divisor+3)^0,f,c
  8675  0041DE  360D               	rlcf	(___lomod@divisor+4)^0,f,c
  8676  0041E0  360E               	rlcf	(___lomod@divisor+5)^0,f,c
  8677  0041E2  360F               	rlcf	(___lomod@divisor+6)^0,f,c
  8678  0041E4  3610               	rlcf	(___lomod@divisor+7)^0,f,c
  8679  0041E6  2A11               	incf	___lomod@counter^0,f,c
  8680  0041E8                     i2l3228:
  8681  0041E8  AE10               	btfss	(___lomod@divisor+7)^0,7,c
  8682  0041EA  EFF9  F020         	goto	i2u313_41
  8683  0041EE  EFFB  F020         	goto	i2u313_40
  8684  0041F2                     i2u313_41:
  8685  0041F2  EFEA  F020         	goto	i2l3226
  8686  0041F6                     i2u313_40:
  8687  0041F6                     i2l3230:
  8688  0041F6  5009               	movf	___lomod@divisor^0,w,c
  8689  0041F8  5C01               	subwf	___lomod@dividend^0,w,c
  8690  0041FA  500A               	movf	(___lomod@divisor+1)^0,w,c
  8691  0041FC  5802               	subwfb	(___lomod@dividend+1)^0,w,c
  8692  0041FE  500B               	movf	(___lomod@divisor+2)^0,w,c
  8693  004200  5803               	subwfb	(___lomod@dividend+2)^0,w,c
  8694  004202  500C               	movf	(___lomod@divisor+3)^0,w,c
  8695  004204  5804               	subwfb	(___lomod@dividend+3)^0,w,c
  8696  004206  500D               	movf	(___lomod@divisor+4)^0,w,c
  8697  004208  5805               	subwfb	(___lomod@dividend+4)^0,w,c
  8698  00420A  500E               	movf	(___lomod@divisor+5)^0,w,c
  8699  00420C  5806               	subwfb	(___lomod@dividend+5)^0,w,c
  8700  00420E  500F               	movf	(___lomod@divisor+6)^0,w,c
  8701  004210  5807               	subwfb	(___lomod@dividend+6)^0,w,c
  8702  004212  5010               	movf	(___lomod@divisor+7)^0,w,c
  8703  004214  5808               	subwfb	(___lomod@dividend+7)^0,w,c
  8704  004216  A0D8               	btfss	status,0,c
  8705  004218  EF10  F021         	goto	i2u314_41
  8706  00421C  EF12  F021         	goto	i2u314_40
  8707  004220                     i2u314_41:
  8708  004220  EF22  F021         	goto	i2l3234
  8709  004224                     i2u314_40:
  8710  004224  5009               	movf	___lomod@divisor^0,w,c
  8711  004226  5E01               	subwf	___lomod@dividend^0,f,c
  8712  004228  500A               	movf	(___lomod@divisor+1)^0,w,c
  8713  00422A  5A02               	subwfb	(___lomod@dividend+1)^0,f,c
  8714  00422C  500B               	movf	(___lomod@divisor+2)^0,w,c
  8715  00422E  5A03               	subwfb	(___lomod@dividend+2)^0,f,c
  8716  004230  500C               	movf	(___lomod@divisor+3)^0,w,c
  8717  004232  5A04               	subwfb	(___lomod@dividend+3)^0,f,c
  8718  004234  500D               	movf	(___lomod@divisor+4)^0,w,c
  8719  004236  5A05               	subwfb	(___lomod@dividend+4)^0,f,c
  8720  004238  500E               	movf	(___lomod@divisor+5)^0,w,c
  8721  00423A  5A06               	subwfb	(___lomod@dividend+5)^0,f,c
  8722  00423C  500F               	movf	(___lomod@divisor+6)^0,w,c
  8723  00423E  5A07               	subwfb	(___lomod@dividend+6)^0,f,c
  8724  004240  5010               	movf	(___lomod@divisor+7)^0,w,c
  8725  004242  5A08               	subwfb	(___lomod@dividend+7)^0,f,c
  8726  004244                     i2l3234:
  8727  004244  90D8               	bcf	status,0,c
  8728  004246  3210               	rrcf	(___lomod@divisor+7)^0,f,c
  8729  004248  320F               	rrcf	(___lomod@divisor+6)^0,f,c
  8730  00424A  320E               	rrcf	(___lomod@divisor+5)^0,f,c
  8731  00424C  320D               	rrcf	(___lomod@divisor+4)^0,f,c
  8732  00424E  320C               	rrcf	(___lomod@divisor+3)^0,f,c
  8733  004250  320B               	rrcf	(___lomod@divisor+2)^0,f,c
  8734  004252  320A               	rrcf	(___lomod@divisor+1)^0,f,c
  8735  004254  3209               	rrcf	___lomod@divisor^0,f,c
  8736  004256  2E11               	decfsz	___lomod@counter^0,f,c
  8737  004258  EFFB  F020         	goto	i2l3230
  8738  00425C                     i2l780:
  8739  00425C  C001  F001         	movff	___lomod@dividend,?___lomod
  8740  004260  C002  F002         	movff	___lomod@dividend+1,?___lomod+1
  8741  004264  C003  F003         	movff	___lomod@dividend+2,?___lomod+2
  8742  004268  C004  F004         	movff	___lomod@dividend+3,?___lomod+3
  8743  00426C  C005  F005         	movff	___lomod@dividend+4,?___lomod+4
  8744  004270  C006  F006         	movff	___lomod@dividend+5,?___lomod+5
  8745  004274  C007  F007         	movff	___lomod@dividend+6,?___lomod+6
  8746  004278  C008  F008         	movff	___lomod@dividend+7,?___lomod+7
  8747  00427C  0012               	return		;funcret
  8748  00427E                     __end_of___lomod:
  8749                           	callstack 0
  8750                           
  8751 ;; *************** function ___lodiv *****************
  8752 ;; Defined at:
  8753 ;;		line 9 in file "/opt/microchip/xc8/v2.30/pic/sources/c99/common/lodiv.c"
  8754 ;; Parameters:    Size  Location     Type
  8755 ;;  dividend        8    0[COMRAM] unsigned long long 
  8756 ;;  divisor         8    8[COMRAM] unsigned long long 
  8757 ;; Auto vars:     Size  Location     Type
  8758 ;;  quotient        8   16[COMRAM] unsigned long long 
  8759 ;;  counter         1   24[COMRAM] unsigned char 
  8760 ;; Return value:  Size  Location     Type
  8761 ;;                  8    0[COMRAM] unsigned long long 
  8762 ;; Registers used:
  8763 ;;		wreg, fsr2l, fsr2h, status,2, status,0
  8764 ;; Tracked objects:
  8765 ;;		On entry : 0/0
  8766 ;;		On exit  : 0/0
  8767 ;;		Unchanged: 0/0
  8768 ;; Data sizes:     COMRAM   BANK0   BANK1   BANK2   BANK3   BANK4   BANK5   BANK6   BANK7   BANK8   BANK9  BANK10  BANK1
      +1  BANK12  BANK13  BANK14  BANK15
  8769 ;;      Params:        16       0       0       0       0       0       0       0       0       0       0       0       
      +0       0       0       0       0
  8770 ;;      Locals:         9       0       0       0       0       0       0       0       0       0       0       0       
      +0       0       0       0       0
  8771 ;;      Temps:          0       0       0       0       0       0       0       0       0       0       0       0       
      +0       0       0       0       0
  8772 ;;      Totals:        25       0       0       0       0       0       0       0       0       0       0       0       
      +0       0       0       0       0
  8773 ;;Total ram usage:       25 bytes
  8774 ;; Hardware stack levels used:    1
  8775 ;; This function calls:
  8776 ;;		Nothing
  8777 ;; This function is called by:
  8778 ;;		_utoa
  8779 ;; This function uses a non-reentrant model
  8780 ;;
  8781                           
  8782                           	psect	text30
  8783  003FE6                     __ptext30:
  8784                           	callstack 0
  8785  003FE6                     ___lodiv:
  8786                           	callstack 19
  8787  003FE6  EE20  F011         	lfsr	2,___lodiv@quotient
  8788  003FEA  0E07               	movlw	7
  8789  003FEC                     i2u308_41:
  8790  003FEC  6ADE               	clrf	postinc2,c
  8791  003FEE  06E8               	decf	wreg,f,c
  8792  003FF0  E2FD               	bc	i2u308_41
  8793  003FF2  5009               	movf	___lodiv@divisor^0,w,c
  8794  003FF4  100A               	iorwf	(___lodiv@divisor+1)^0,w,c
  8795  003FF6  100B               	iorwf	(___lodiv@divisor+2)^0,w,c
  8796  003FF8  100C               	iorwf	(___lodiv@divisor+3)^0,w,c
  8797  003FFA  100D               	iorwf	(___lodiv@divisor+4)^0,w,c
  8798  003FFC  100E               	iorwf	(___lodiv@divisor+5)^0,w,c
  8799  003FFE  100F               	iorwf	(___lodiv@divisor+6)^0,w,c
  8800  004000  1010               	iorwf	(___lodiv@divisor+7)^0,w,c
  8801  004002  B4D8               	btfsc	status,2,c
  8802  004004  EF06  F020         	goto	i2u309_41
  8803  004008  EF08  F020         	goto	i2u309_40
  8804  00400C                     i2u309_41:
  8805  00400C  EF5A  F020         	goto	i2l770
  8806  004010                     i2u309_40:
  8807  004010  0E01               	movlw	1
  8808  004012  6E19               	movwf	___lodiv@counter^0,c
  8809  004014  EF16  F020         	goto	i2l3208
  8810  004018                     i2l3206:
  8811  004018  90D8               	bcf	status,0,c
  8812  00401A  3609               	rlcf	___lodiv@divisor^0,f,c
  8813  00401C  360A               	rlcf	(___lodiv@divisor+1)^0,f,c
  8814  00401E  360B               	rlcf	(___lodiv@divisor+2)^0,f,c
  8815  004020  360C               	rlcf	(___lodiv@divisor+3)^0,f,c
  8816  004022  360D               	rlcf	(___lodiv@divisor+4)^0,f,c
  8817  004024  360E               	rlcf	(___lodiv@divisor+5)^0,f,c
  8818  004026  360F               	rlcf	(___lodiv@divisor+6)^0,f,c
  8819  004028  3610               	rlcf	(___lodiv@divisor+7)^0,f,c
  8820  00402A  2A19               	incf	___lodiv@counter^0,f,c
  8821  00402C                     i2l3208:
  8822  00402C  AE10               	btfss	(___lodiv@divisor+7)^0,7,c
  8823  00402E  EF1B  F020         	goto	i2u310_41
  8824  004032  EF1D  F020         	goto	i2u310_40
  8825  004036                     i2u310_41:
  8826  004036  EF0C  F020         	goto	i2l3206
  8827  00403A                     i2u310_40:
  8828  00403A                     i2l3210:
  8829  00403A  90D8               	bcf	status,0,c
  8830  00403C  3611               	rlcf	___lodiv@quotient^0,f,c
  8831  00403E  3612               	rlcf	(___lodiv@quotient+1)^0,f,c
  8832  004040  3613               	rlcf	(___lodiv@quotient+2)^0,f,c
  8833  004042  3614               	rlcf	(___lodiv@quotient+3)^0,f,c
  8834  004044  3615               	rlcf	(___lodiv@quotient+4)^0,f,c
  8835  004046  3616               	rlcf	(___lodiv@quotient+5)^0,f,c
  8836  004048  3617               	rlcf	(___lodiv@quotient+6)^0,f,c
  8837  00404A  3618               	rlcf	(___lodiv@quotient+7)^0,f,c
  8838  00404C  5009               	movf	___lodiv@divisor^0,w,c
  8839  00404E  5C01               	subwf	___lodiv@dividend^0,w,c
  8840  004050  500A               	movf	(___lodiv@divisor+1)^0,w,c
  8841  004052  5802               	subwfb	(___lodiv@dividend+1)^0,w,c
  8842  004054  500B               	movf	(___lodiv@divisor+2)^0,w,c
  8843  004056  5803               	subwfb	(___lodiv@dividend+2)^0,w,c
  8844  004058  500C               	movf	(___lodiv@divisor+3)^0,w,c
  8845  00405A  5804               	subwfb	(___lodiv@dividend+3)^0,w,c
  8846  00405C  500D               	movf	(___lodiv@divisor+4)^0,w,c
  8847  00405E  5805               	subwfb	(___lodiv@dividend+4)^0,w,c
  8848  004060  500E               	movf	(___lodiv@divisor+5)^0,w,c
  8849  004062  5806               	subwfb	(___lodiv@dividend+5)^0,w,c
  8850  004064  500F               	movf	(___lodiv@divisor+6)^0,w,c
  8851  004066  5807               	subwfb	(___lodiv@dividend+6)^0,w,c
  8852  004068  5010               	movf	(___lodiv@divisor+7)^0,w,c
  8853  00406A  5808               	subwfb	(___lodiv@dividend+7)^0,w,c
  8854  00406C  A0D8               	btfss	status,0,c
  8855  00406E  EF3B  F020         	goto	i2u311_41
  8856  004072  EF3D  F020         	goto	i2u311_40
  8857  004076                     i2u311_41:
  8858  004076  EF4E  F020         	goto	i2l3218
  8859  00407A                     i2u311_40:
  8860  00407A  5009               	movf	___lodiv@divisor^0,w,c
  8861  00407C  5E01               	subwf	___lodiv@dividend^0,f,c
  8862  00407E  500A               	movf	(___lodiv@divisor+1)^0,w,c
  8863  004080  5A02               	subwfb	(___lodiv@dividend+1)^0,f,c
  8864  004082  500B               	movf	(___lodiv@divisor+2)^0,w,c
  8865  004084  5A03               	subwfb	(___lodiv@dividend+2)^0,f,c
  8866  004086  500C               	movf	(___lodiv@divisor+3)^0,w,c
  8867  004088  5A04               	subwfb	(___lodiv@dividend+3)^0,f,c
  8868  00408A  500D               	movf	(___lodiv@divisor+4)^0,w,c
  8869  00408C  5A05               	subwfb	(___lodiv@dividend+4)^0,f,c
  8870  00408E  500E               	movf	(___lodiv@divisor+5)^0,w,c
  8871  004090  5A06               	subwfb	(___lodiv@dividend+5)^0,f,c
  8872  004092  500F               	movf	(___lodiv@divisor+6)^0,w,c
  8873  004094  5A07               	subwfb	(___lodiv@dividend+6)^0,f,c
  8874  004096  5010               	movf	(___lodiv@divisor+7)^0,w,c
  8875  004098  5A08               	subwfb	(___lodiv@dividend+7)^0,f,c
  8876  00409A  8011               	bsf	___lodiv@quotient^0,0,c
  8877  00409C                     i2l3218:
  8878  00409C  90D8               	bcf	status,0,c
  8879  00409E  3210               	rrcf	(___lodiv@divisor+7)^0,f,c
  8880  0040A0  320F               	rrcf	(___lodiv@divisor+6)^0,f,c
  8881  0040A2  320E               	rrcf	(___lodiv@divisor+5)^0,f,c
  8882  0040A4  320D               	rrcf	(___lodiv@divisor+4)^0,f,c
  8883  0040A6  320C               	rrcf	(___lodiv@divisor+3)^0,f,c
  8884  0040A8  320B               	rrcf	(___lodiv@divisor+2)^0,f,c
  8885  0040AA  320A               	rrcf	(___lodiv@divisor+1)^0,f,c
  8886  0040AC  3209               	rrcf	___lodiv@divisor^0,f,c
  8887  0040AE  2E19               	decfsz	___lodiv@counter^0,f,c
  8888  0040B0  EF1D  F020         	goto	i2l3210
  8889  0040B4                     i2l770:
  8890  0040B4  C011  F001         	movff	___lodiv@quotient,?___lodiv
  8891  0040B8  C012  F002         	movff	___lodiv@quotient+1,?___lodiv+1
  8892  0040BC  C013  F003         	movff	___lodiv@quotient+2,?___lodiv+2
  8893  0040C0  C014  F004         	movff	___lodiv@quotient+3,?___lodiv+3
  8894  0040C4  C015  F005         	movff	___lodiv@quotient+4,?___lodiv+4
  8895  0040C8  C016  F006         	movff	___lodiv@quotient+5,?___lodiv+5
  8896  0040CC  C017  F007         	movff	___lodiv@quotient+6,?___lodiv+6
  8897  0040D0  C018  F008         	movff	___lodiv@quotient+7,?___lodiv+7
  8898  0040D4  0012               	return		;funcret
  8899  0040D6                     __end_of___lodiv:
  8900                           	callstack 0
  8901                           
  8902 ;; *************** function _strncmp *****************
  8903 ;; Defined at:
  8904 ;;		line 3 in file "/opt/microchip/xc8/v2.30/pic/sources/c99/common/strncmp.c"
  8905 ;; Parameters:    Size  Location     Type
  8906 ;;  _l              2    0[COMRAM] PTR const unsigned char 
  8907 ;;		 -> STR_7(5), 
  8908 ;;  _r              2    2[COMRAM] PTR const unsigned char 
  8909 ;;		 -> STR_104(3), STR_100(3), STR_95(3), STR_91(3), 
  8910 ;;		 -> STR_86(4), STR_82(4), STR_77(3), STR_72(3), 
  8911 ;;		 -> STR_67(4), STR_62(3), STR_57(3), STR_52(4), 
  8912 ;;		 -> STR_47(3), STR_42(3), STR_37(4), STR_32(3), 
  8913 ;;		 -> STR_28(3), STR_23(3), STR_19(3), STR_14(4), 
  8914 ;;		 -> STR_10(4), 
  8915 ;;  n               2    4[COMRAM] unsigned int 
  8916 ;; Auto vars:     Size  Location     Type
  8917 ;;  r               2    9[COMRAM] PTR const unsigned char 
  8918 ;;		 -> STR_104(3), STR_100(3), STR_95(3), STR_91(3), 
  8919 ;;		 -> STR_86(4), STR_82(4), STR_77(3), STR_72(3), 
  8920 ;;		 -> STR_67(4), STR_62(3), STR_57(3), STR_52(4), 
  8921 ;;		 -> STR_47(3), STR_42(3), STR_37(4), STR_32(3), 
  8922 ;;		 -> STR_28(3), STR_23(3), STR_19(3), STR_14(4), 
  8923 ;;		 -> STR_10(4), 
  8924 ;;  l               2    7[COMRAM] PTR const unsigned char 
  8925 ;;		 -> STR_7(5), 
  8926 ;; Return value:  Size  Location     Type
  8927 ;;                  2    0[COMRAM] int 
  8928 ;; Registers used:
  8929 ;;		wreg, status,2, status,0, tblptrl, tblptrh, tblptru
  8930 ;; Tracked objects:
  8931 ;;		On entry : 0/0
  8932 ;;		On exit  : 0/0
  8933 ;;		Unchanged: 0/0
  8934 ;; Data sizes:     COMRAM   BANK0   BANK1   BANK2   BANK3   BANK4   BANK5   BANK6   BANK7   BANK8   BANK9  BANK10  BANK1
      +1  BANK12  BANK13  BANK14  BANK15
  8935 ;;      Params:         6       0       0       0       0       0       0       0       0       0       0       0       
      +0       0       0       0       0
  8936 ;;      Locals:         4       0       0       0       0       0       0       0       0       0       0       0       
      +0       0       0       0       0
  8937 ;;      Temps:          1       0       0       0       0       0       0       0       0       0       0       0       
      +0       0       0       0       0
  8938 ;;      Totals:        11       0       0       0       0       0       0       0       0       0       0       0       
      +0       0       0       0       0
  8939 ;;Total ram usage:       11 bytes
  8940 ;; Hardware stack levels used:    1
  8941 ;; This function calls:
  8942 ;;		Nothing
  8943 ;; This function is called by:
  8944 ;;		_vfpfcnvrt
  8945 ;; This function uses a non-reentrant model
  8946 ;;
  8947                           
  8948                           	psect	text31
  8949  003DFC                     __ptext31:
  8950                           	callstack 0
  8951  003DFC                     _strncmp:
  8952                           	callstack 20
  8953  003DFC  C001  F008         	movff	strncmp@_l,strncmp@l
  8954  003E00  C002  F009         	movff	strncmp@_l+1,strncmp@l+1
  8955  003E04  C003  F00A         	movff	strncmp@_r,strncmp@r
  8956  003E08  C004  F00B         	movff	strncmp@_r+1,strncmp@r+1
  8957  003E0C  0605               	decf	strncmp@n^0,f,c
  8958  003E0E  A0D8               	btfss	status,0,c
  8959  003E10  0606               	decf	(strncmp@n+1)^0,f,c
  8960  003E12  2805               	incf	strncmp@n^0,w,c
  8961  003E14  E106               	bnz	i2u401_41
  8962  003E16  2806               	incf	(strncmp@n+1)^0,w,c
  8963  003E18  A4D8               	btfss	status,2,c
  8964  003E1A  EF11  F01F         	goto	i2u401_41
  8965  003E1E  EF13  F01F         	goto	i2u401_40
  8966  003E22                     i2u401_41:
  8967  003E22  EF20  F01F         	goto	i2l3630
  8968  003E26                     i2u401_40:
  8969  003E26  0E00               	movlw	0
  8970  003E28  6E02               	movwf	(?_strncmp+1)^0,c
  8971  003E2A  0E00               	movlw	0
  8972  003E2C  6E01               	movwf	?_strncmp^0,c
  8973  003E2E  EF78  F01F         	goto	i2l1384
  8974  003E32                     i2l3628:
  8975  003E32  4A08               	infsnz	strncmp@l^0,f,c
  8976  003E34  2A09               	incf	(strncmp@l+1)^0,f,c
  8977  003E36  4A0A               	infsnz	strncmp@r^0,f,c
  8978  003E38  2A0B               	incf	(strncmp@r+1)^0,f,c
  8979  003E3A  0605               	decf	strncmp@n^0,f,c
  8980  003E3C  A0D8               	btfss	status,0,c
  8981  003E3E  0606               	decf	(strncmp@n+1)^0,f,c
  8982  003E40                     i2l3630:
  8983  003E40  C008  FFF6         	movff	strncmp@l,tblptrl
  8984  003E44  C009  FFF7         	movff	strncmp@l+1,tblptrh
  8985  003E48                     	if	0	;tblptru may be non-zero
  8986  003E48                     	endif
  8987  003E48                     	if	1	;Program memory is > 0xFFFF, there are 3 active tblptr bytes
  8988  003E48  0E00               	movlw	low (__mediumconst shr (0+16))
  8989  003E4A  6EF8               	movwf	tblptru,c
  8990  003E4C                     	endif
  8991  003E4C  0008               	tblrd		*
  8992  003E4E  50F5               	movf	tablat,w,c
  8993  003E50  0900               	iorlw	0
  8994  003E52  B4D8               	btfsc	status,2,c
  8995  003E54  EF2E  F01F         	goto	i2u402_41
  8996  003E58  EF30  F01F         	goto	i2u402_40
  8997  003E5C                     i2u402_41:
  8998  003E5C  EF62  F01F         	goto	i2l3638
  8999  003E60                     i2u402_40:
  9000  003E60  C00A  FFF6         	movff	strncmp@r,tblptrl
  9001  003E64  C00B  FFF7         	movff	strncmp@r+1,tblptrh
  9002  003E68                     	if	0	;tblptru may be non-zero
  9003  003E68                     	endif
  9004  003E68                     	if	1	;Program memory is > 0xFFFF, there are 3 active tblptr bytes
  9005  003E68  0E00               	movlw	low (__mediumconst shr (0+16))
  9006  003E6A  6EF8               	movwf	tblptru,c
  9007  003E6C                     	endif
  9008  003E6C  0008               	tblrd		*
  9009  003E6E  50F5               	movf	tablat,w,c
  9010  003E70  0900               	iorlw	0
  9011  003E72  B4D8               	btfsc	status,2,c
  9012  003E74  EF3E  F01F         	goto	i2u403_41
  9013  003E78  EF40  F01F         	goto	i2u403_40
  9014  003E7C                     i2u403_41:
  9015  003E7C  EF62  F01F         	goto	i2l3638
  9016  003E80                     i2u403_40:
  9017  003E80  5005               	movf	strncmp@n^0,w,c
  9018  003E82  1006               	iorwf	(strncmp@n+1)^0,w,c
  9019  003E84  B4D8               	btfsc	status,2,c
  9020  003E86  EF47  F01F         	goto	i2u404_41
  9021  003E8A  EF49  F01F         	goto	i2u404_40
  9022  003E8E                     i2u404_41:
  9023  003E8E  EF62  F01F         	goto	i2l3638
  9024  003E92                     i2u404_40:
  9025  003E92  C008  FFF6         	movff	strncmp@l,tblptrl
  9026  003E96  C009  FFF7         	movff	strncmp@l+1,tblptrh
  9027  003E9A                     	if	0	;tblptru may be non-zero
  9028  003E9A                     	endif
  9029  003E9A                     	if	1	;Program memory is > 0xFFFF, there are 3 active tblptr bytes
  9030  003E9A  0E00               	movlw	low (__mediumconst shr (0+16))
  9031  003E9C  6EF8               	movwf	tblptru,c
  9032  003E9E                     	endif
  9033  003E9E  0008               	tblrd		*
  9034  003EA0  CFF5 F007          	movff	tablat,??_strncmp
  9035  003EA4  C00A  FFF6         	movff	strncmp@r,tblptrl
  9036  003EA8  C00B  FFF7         	movff	strncmp@r+1,tblptrh
  9037  003EAC                     	if	0	;tblptru may be non-zero
  9038  003EAC                     	endif
  9039  003EAC                     	if	1	;Program memory is > 0xFFFF, there are 3 active tblptr bytes
  9040  003EAC  0E00               	movlw	low (__mediumconst shr (0+16))
  9041  003EAE  6EF8               	movwf	tblptru,c
  9042  003EB0                     	endif
  9043  003EB0  0008               	tblrd		*
  9044  003EB2  50F5               	movf	tablat,w,c
  9045  003EB4  1807               	xorwf	??_strncmp^0,w,c
  9046  003EB6  B4D8               	btfsc	status,2,c
  9047  003EB8  EF60  F01F         	goto	i2u405_41
  9048  003EBC  EF62  F01F         	goto	i2u405_40
  9049  003EC0                     i2u405_41:
  9050  003EC0  EF19  F01F         	goto	i2l3628
  9051  003EC4                     i2u405_40:
  9052  003EC4                     i2l3638:
  9053  003EC4  C008  FFF6         	movff	strncmp@l,tblptrl
  9054  003EC8  C009  FFF7         	movff	strncmp@l+1,tblptrh
  9055  003ECC                     	if	0	;tblptru may be non-zero
  9056  003ECC                     	endif
  9057  003ECC                     	if	1	;Program memory is > 0xFFFF, there are 3 active tblptr bytes
  9058  003ECC  0E00               	movlw	low (__mediumconst shr (0+16))
  9059  003ECE  6EF8               	movwf	tblptru,c
  9060  003ED0                     	endif
  9061  003ED0  0008               	tblrd		*
  9062  003ED2  CFF5 F007          	movff	tablat,??_strncmp
  9063  003ED6  C00A  FFF6         	movff	strncmp@r,tblptrl
  9064  003EDA  C00B  FFF7         	movff	strncmp@r+1,tblptrh
  9065  003EDE                     	if	0	;tblptru may be non-zero
  9066  003EDE                     	endif
  9067  003EDE                     	if	1	;Program memory is > 0xFFFF, there are 3 active tblptr bytes
  9068  003EDE  0E00               	movlw	low (__mediumconst shr (0+16))
  9069  003EE0  6EF8               	movwf	tblptru,c
  9070  003EE2                     	endif
  9071  003EE2  0008               	tblrd		*
  9072  003EE4  50F5               	movf	tablat,w,c
  9073  003EE6  5C07               	subwf	??_strncmp^0,w,c
  9074  003EE8  6E01               	movwf	?_strncmp^0,c
  9075  003EEA  6A02               	clrf	(?_strncmp+1)^0,c
  9076  003EEC  A0D8               	btfss	status,0,c
  9077  003EEE  0602               	decf	(?_strncmp+1)^0,f,c
  9078  003EF0                     i2l1384:
  9079  003EF0  0012               	return		;funcret
  9080  003EF2                     __end_of_strncmp:
  9081                           	callstack 0
  9082                           
  9083 ;; *************** function _stoa *****************
  9084 ;; Defined at:
  9085 ;;		line 568 in file "/opt/microchip/xc8/v2.30/pic/sources/c99/common/doprnt.c"
  9086 ;; Parameters:    Size  Location     Type
  9087 ;;  fp              2    9[COMRAM] PTR struct _IO_FILE
  9088 ;;		 -> vsnprintf@f(6), 
  9089 ;;  s               2   11[COMRAM] PTR unsigned char 
  9090 ;;		 -> ?_snprintf(2), 
  9091 ;; Auto vars:     Size  Location     Type
  9092 ;;  nuls            7   14[COMRAM] unsigned char [7]
  9093 ;;  l               2   29[COMRAM] int 
  9094 ;;  p               2   27[COMRAM] int 
  9095 ;;  cp              2   25[COMRAM] PTR unsigned char 
  9096 ;;		 -> stoa@nuls(7), ?_snprintf(2), 
  9097 ;;  w               2   23[COMRAM] int 
  9098 ;;  i               2   21[COMRAM] int 
  9099 ;; Return value:  Size  Location     Type
  9100 ;;                  2    9[COMRAM] int 
  9101 ;; Registers used:
  9102 ;;		wreg, fsr1l, fsr1h, fsr2l, fsr2h, status,2, status,0, cstack
  9103 ;; Tracked objects:
  9104 ;;		On entry : 0/0
  9105 ;;		On exit  : 0/0
  9106 ;;		Unchanged: 0/0
  9107 ;; Data sizes:     COMRAM   BANK0   BANK1   BANK2   BANK3   BANK4   BANK5   BANK6   BANK7   BANK8   BANK9  BANK10  BANK1
      +1  BANK12  BANK13  BANK14  BANK15
  9108 ;;      Params:         4       0       0       0       0       0       0       0       0       0       0       0       
      +0       0       0       0       0
  9109 ;;      Locals:        17       0       0       0       0       0       0       0       0       0       0       0       
      +0       0       0       0       0
  9110 ;;      Temps:          1       0       0       0       0       0       0       0       0       0       0       0       
      +0       0       0       0       0
  9111 ;;      Totals:        22       0       0       0       0       0       0       0       0       0       0       0       
      +0       0       0       0       0
  9112 ;;Total ram usage:       22 bytes
  9113 ;; Hardware stack levels used:    1
  9114 ;; Hardware stack levels required when called:    2
  9115 ;; This function calls:
  9116 ;;		_fputc
  9117 ;;		_strlen
  9118 ;; This function is called by:
  9119 ;;		_vfpfcnvrt
  9120 ;; This function uses a non-reentrant model
  9121 ;;
  9122                           
  9123                           	psect	text32
  9124  0038DC                     __ptext32:
  9125                           	callstack 0
  9126  0038DC                     _stoa:
  9127                           	callstack 18
  9128  0038DC                     
  9129                           ;/opt/microchip/xc8/v2.30/pic/sources/c99/common/doprnt.c: 568: static int stoa(FILE *fp
      +                          , char *s);/opt/microchip/xc8/v2.30/pic/sources/c99/common/doprnt.c: 569: {;/opt/microch
      +                          ip/xc8/v2.30/pic/sources/c99/common/doprnt.c: 570:     char *cp, nuls[] = "(null)";
  9130  0038DC  EE21  F0D3         	lfsr	2,stoa@F1154
  9131  0038E0  EE10  F00F         	lfsr	1,stoa@nuls
  9132  0038E4  0E06               	movlw	6
  9133  0038E6                     i2u361_41:
  9134  0038E6  CFDB FFE3          	movff	plusw2,plusw1
  9135  0038EA  06E8               	decf	wreg,f,c
  9136  0038EC  E2FC               	bc	i2u361_41
  9137  0038EE                     
  9138                           ;/opt/microchip/xc8/v2.30/pic/sources/c99/common/doprnt.c: 571:     int i, l, p, w;;/opt
      +                          /microchip/xc8/v2.30/pic/sources/c99/common/doprnt.c: 574:     cp = s;
  9139  0038EE  C00C  F01A         	movff	stoa@s,stoa@cp
  9140  0038F2  C00D  F01B         	movff	stoa@s+1,stoa@cp+1
  9141  0038F6                     
  9142                           ;/opt/microchip/xc8/v2.30/pic/sources/c99/common/doprnt.c: 575:     if (!cp) {
  9143  0038F6  501A               	movf	stoa@cp^0,w,c
  9144  0038F8  101B               	iorwf	(stoa@cp+1)^0,w,c
  9145  0038FA  A4D8               	btfss	status,2,c
  9146  0038FC  EF82  F01C         	goto	i2u362_41
  9147  003900  EF84  F01C         	goto	i2u362_40
  9148  003904                     i2u362_41:
  9149  003904  EF88  F01C         	goto	i2l3444
  9150  003908                     i2u362_40:
  9151  003908                     
  9152                           ;/opt/microchip/xc8/v2.30/pic/sources/c99/common/doprnt.c: 576:         cp = nuls;
  9153  003908  0E0F               	movlw	low stoa@nuls
  9154  00390A  6E1A               	movwf	stoa@cp^0,c
  9155  00390C  0E00               	movlw	high stoa@nuls
  9156  00390E  6E1B               	movwf	(stoa@cp+1)^0,c
  9157  003910                     i2l3444:
  9158                           
  9159                           ;/opt/microchip/xc8/v2.30/pic/sources/c99/common/doprnt.c: 580:     l = (int)strlen(cp);
  9160  003910  C01A  F001         	movff	stoa@cp,strlen@s
  9161  003914  C01B  F002         	movff	stoa@cp+1,strlen@s+1
  9162  003918  ECED  F026         	call	_strlen	;wreg free
  9163  00391C  C001  F01E         	movff	?_strlen,stoa@l
  9164  003920  C002  F01F         	movff	?_strlen+1,stoa@l+1
  9165  003924                     
  9166                           ;/opt/microchip/xc8/v2.30/pic/sources/c99/common/doprnt.c: 581:     p = prec;
  9167  003924  C0E0  F01C         	movff	_prec,stoa@p
  9168  003928  C0E1  F01D         	movff	_prec+1,stoa@p+1
  9169  00392C                     
  9170                           ;/opt/microchip/xc8/v2.30/pic/sources/c99/common/doprnt.c: 582:     l = (!(p < 0) && (p 
      +                          < l)) ? p : l;
  9171  00392C  BE1D               	btfsc	(stoa@p+1)^0,7,c
  9172  00392E  EF9B  F01C         	goto	i2u363_41
  9173  003932  EF9D  F01C         	goto	i2u363_40
  9174  003936                     i2u363_41:
  9175  003936  EFB2  F01C         	goto	i2l1136
  9176  00393A                     i2u363_40:
  9177  00393A  501E               	movf	stoa@l^0,w,c
  9178  00393C  5C1C               	subwf	stoa@p^0,w,c
  9179  00393E  501D               	movf	(stoa@p+1)^0,w,c
  9180  003940  0A80               	xorlw	128
  9181  003942  6E0E               	movwf	??_stoa^0,c
  9182  003944  501F               	movf	(stoa@l+1)^0,w,c
  9183  003946  0A80               	xorlw	128
  9184  003948  580E               	subwfb	??_stoa^0,w,c
  9185  00394A  A0D8               	btfss	status,0,c
  9186  00394C  EFAA  F01C         	goto	i2u364_41
  9187  003950  EFAC  F01C         	goto	i2u364_40
  9188  003954                     i2u364_41:
  9189  003954  EFAE  F01C         	goto	i2l1134
  9190  003958                     i2u364_40:
  9191  003958  EFB2  F01C         	goto	i2l1136
  9192  00395C                     i2l1134:
  9193  00395C  C01C  F01E         	movff	stoa@p,stoa@l
  9194  003960  C01D  F01F         	movff	stoa@p+1,stoa@l+1
  9195  003964                     i2l1136:
  9196                           
  9197                           ;/opt/microchip/xc8/v2.30/pic/sources/c99/common/doprnt.c: 583:     p = l;
  9198  003964  C01E  F01C         	movff	stoa@l,stoa@p
  9199  003968  C01F  F01D         	movff	stoa@l+1,stoa@p+1
  9200                           
  9201                           ;/opt/microchip/xc8/v2.30/pic/sources/c99/common/doprnt.c: 584:     w = width;
  9202  00396C  C0DE  F018         	movff	_width,stoa@w
  9203  003970  C0DF  F019         	movff	_width+1,stoa@w+1
  9204                           
  9205                           ;/opt/microchip/xc8/v2.30/pic/sources/c99/common/doprnt.c: 587:     if (!(flags & (1 << 
      +                          0))) {
  9206  003974  0100               	movlb	0	; () banked
  9207  003976  B1E2               	btfsc	_flags& (0+255),0,b
  9208  003978  EFC0  F01C         	goto	i2u365_41
  9209  00397C  EFC2  F01C         	goto	i2u365_40
  9210  003980                     i2u365_41:
  9211  003980  EFDF  F01C         	goto	i2l3460
  9212  003984                     i2u365_40:
  9213  003984  EFD0  F01C         	goto	i2l3458
  9214  003988                     i2l3454:
  9215                           
  9216                           ;/opt/microchip/xc8/v2.30/pic/sources/c99/common/doprnt.c: 589:             fputc(' ', f
      +                          p);
  9217  003988  0E00               	movlw	0
  9218  00398A  6E02               	movwf	(fputc@c+1)^0,c
  9219  00398C  0E20               	movlw	32
  9220  00398E  6E01               	movwf	fputc@c^0,c
  9221  003990  C00A  F003         	movff	stoa@fp,fputc@fp
  9222  003994  C00B  F004         	movff	stoa@fp+1,fputc@fp+1
  9223  003998  ECA5  F021         	call	_fputc	;wreg free
  9224  00399C                     
  9225                           ;/opt/microchip/xc8/v2.30/pic/sources/c99/common/doprnt.c: 590:             ++l;
  9226  00399C  4A1E               	infsnz	stoa@l^0,f,c
  9227  00399E  2A1F               	incf	(stoa@l+1)^0,f,c
  9228  0039A0                     i2l3458:
  9229                           
  9230                           ;/opt/microchip/xc8/v2.30/pic/sources/c99/common/doprnt.c: 588:         while (l < w) {
  9231  0039A0  5018               	movf	stoa@w^0,w,c
  9232  0039A2  5C1E               	subwf	stoa@l^0,w,c
  9233  0039A4  501F               	movf	(stoa@l+1)^0,w,c
  9234  0039A6  0A80               	xorlw	128
  9235  0039A8  6E0E               	movwf	??_stoa^0,c
  9236  0039AA  5019               	movf	(stoa@w+1)^0,w,c
  9237  0039AC  0A80               	xorlw	128
  9238  0039AE  580E               	subwfb	??_stoa^0,w,c
  9239  0039B0  A0D8               	btfss	status,0,c
  9240  0039B2  EFDD  F01C         	goto	i2u366_41
  9241  0039B6  EFDF  F01C         	goto	i2u366_40
  9242  0039BA                     i2u366_41:
  9243  0039BA  EFC4  F01C         	goto	i2l3454
  9244  0039BE                     i2u366_40:
  9245  0039BE                     i2l3460:
  9246                           
  9247                           ;/opt/microchip/xc8/v2.30/pic/sources/c99/common/doprnt.c: 595:     i = 0;
  9248  0039BE  0E00               	movlw	0
  9249  0039C0  6E17               	movwf	(stoa@i+1)^0,c
  9250  0039C2  0E00               	movlw	0
  9251  0039C4  6E16               	movwf	stoa@i^0,c
  9252                           
  9253                           ;/opt/microchip/xc8/v2.30/pic/sources/c99/common/doprnt.c: 596:     while (i < p) {
  9254  0039C6  EFF8  F01C         	goto	i2l3468
  9255  0039CA                     i2l3462:
  9256                           
  9257                           ;/opt/microchip/xc8/v2.30/pic/sources/c99/common/doprnt.c: 597:         fputc(*cp, fp);
  9258  0039CA  C01A  FFD9         	movff	stoa@cp,fsr2l
  9259  0039CE  C01B  FFDA         	movff	stoa@cp+1,fsr2h
  9260  0039D2  50DF               	movf	indf2,w,c
  9261  0039D4  6E0E               	movwf	??_stoa^0,c
  9262  0039D6  500E               	movf	??_stoa^0,w,c
  9263  0039D8  6E01               	movwf	fputc@c^0,c
  9264  0039DA  6A02               	clrf	(fputc@c+1)^0,c
  9265  0039DC  C00A  F003         	movff	stoa@fp,fputc@fp
  9266  0039E0  C00B  F004         	movff	stoa@fp+1,fputc@fp+1
  9267  0039E4  ECA5  F021         	call	_fputc	;wreg free
  9268  0039E8                     
  9269                           ;/opt/microchip/xc8/v2.30/pic/sources/c99/common/doprnt.c: 598:         ++cp;
  9270  0039E8  4A1A               	infsnz	stoa@cp^0,f,c
  9271  0039EA  2A1B               	incf	(stoa@cp+1)^0,f,c
  9272  0039EC                     
  9273                           ;/opt/microchip/xc8/v2.30/pic/sources/c99/common/doprnt.c: 599:         ++i;
  9274  0039EC  4A16               	infsnz	stoa@i^0,f,c
  9275  0039EE  2A17               	incf	(stoa@i+1)^0,f,c
  9276  0039F0                     i2l3468:
  9277                           
  9278                           ;/opt/microchip/xc8/v2.30/pic/sources/c99/common/doprnt.c: 596:     while (i < p) {
  9279  0039F0  501C               	movf	stoa@p^0,w,c
  9280  0039F2  5C16               	subwf	stoa@i^0,w,c
  9281  0039F4  5017               	movf	(stoa@i+1)^0,w,c
  9282  0039F6  0A80               	xorlw	128
  9283  0039F8  6E0E               	movwf	??_stoa^0,c
  9284  0039FA  501D               	movf	(stoa@p+1)^0,w,c
  9285  0039FC  0A80               	xorlw	128
  9286  0039FE  580E               	subwfb	??_stoa^0,w,c
  9287  003A00  A0D8               	btfss	status,0,c
  9288  003A02  EF05  F01D         	goto	i2u367_41
  9289  003A06  EF07  F01D         	goto	i2u367_40
  9290  003A0A                     i2u367_41:
  9291  003A0A  EFE5  F01C         	goto	i2l3462
  9292  003A0E                     i2u367_40:
  9293  003A0E                     
  9294                           ;/opt/microchip/xc8/v2.30/pic/sources/c99/common/doprnt.c: 603:     if (flags & (1 << 0)
      +                          ) {
  9295  003A0E  0100               	movlb	0	; () banked
  9296  003A10  A1E2               	btfss	_flags& (0+255),0,b
  9297  003A12  EF0D  F01D         	goto	i2u368_41
  9298  003A16  EF0F  F01D         	goto	i2u368_40
  9299  003A1A                     i2u368_41:
  9300  003A1A  EF2C  F01D         	goto	i2l1146
  9301  003A1E                     i2u368_40:
  9302  003A1E  EF1D  F01D         	goto	i2l3476
  9303  003A22                     i2l3472:
  9304                           
  9305                           ;/opt/microchip/xc8/v2.30/pic/sources/c99/common/doprnt.c: 605:             fputc(' ', f
      +                          p);
  9306  003A22  0E00               	movlw	0
  9307  003A24  6E02               	movwf	(fputc@c+1)^0,c
  9308  003A26  0E20               	movlw	32
  9309  003A28  6E01               	movwf	fputc@c^0,c
  9310  003A2A  C00A  F003         	movff	stoa@fp,fputc@fp
  9311  003A2E  C00B  F004         	movff	stoa@fp+1,fputc@fp+1
  9312  003A32  ECA5  F021         	call	_fputc	;wreg free
  9313  003A36                     
  9314                           ;/opt/microchip/xc8/v2.30/pic/sources/c99/common/doprnt.c: 606:             ++l;
  9315  003A36  4A1E               	infsnz	stoa@l^0,f,c
  9316  003A38  2A1F               	incf	(stoa@l+1)^0,f,c
  9317  003A3A                     i2l3476:
  9318                           
  9319                           ;/opt/microchip/xc8/v2.30/pic/sources/c99/common/doprnt.c: 604:         while (l < w) {
  9320  003A3A  5018               	movf	stoa@w^0,w,c
  9321  003A3C  5C1E               	subwf	stoa@l^0,w,c
  9322  003A3E  501F               	movf	(stoa@l+1)^0,w,c
  9323  003A40  0A80               	xorlw	128
  9324  003A42  6E0E               	movwf	??_stoa^0,c
  9325  003A44  5019               	movf	(stoa@w+1)^0,w,c
  9326  003A46  0A80               	xorlw	128
  9327  003A48  580E               	subwfb	??_stoa^0,w,c
  9328  003A4A  A0D8               	btfss	status,0,c
  9329  003A4C  EF2A  F01D         	goto	i2u369_41
  9330  003A50  EF2C  F01D         	goto	i2u369_40
  9331  003A54                     i2u369_41:
  9332  003A54  EF11  F01D         	goto	i2l3472
  9333  003A58                     i2u369_40:
  9334  003A58                     i2l1146:
  9335                           
  9336                           ;/opt/microchip/xc8/v2.30/pic/sources/c99/common/doprnt.c: 610:     return l;
  9337  003A58  C01E  F00A         	movff	stoa@l,?_stoa
  9338  003A5C  C01F  F00B         	movff	stoa@l+1,?_stoa+1
  9339  003A60  0012               	return		;funcret
  9340  003A62                     __end_of_stoa:
  9341                           	callstack 0
  9342                           
  9343 ;; *************** function _otoa *****************
  9344 ;; Defined at:
  9345 ;;		line 529 in file "/opt/microchip/xc8/v2.30/pic/sources/c99/common/doprnt.c"
  9346 ;; Parameters:    Size  Location     Type
  9347 ;;  fp              2   27[COMRAM] PTR struct _IO_FILE
  9348 ;;		 -> vsnprintf@f(6), 
  9349 ;;  d               8   29[COMRAM] unsigned long long 
  9350 ;; Auto vars:     Size  Location     Type
  9351 ;;  n               8   51[COMRAM] unsigned long long 
  9352 ;;  i               2   59[COMRAM] int 
  9353 ;;  w               2   49[COMRAM] int 
  9354 ;;  t               2   47[COMRAM] int 
  9355 ;;  p               2   45[COMRAM] int 
  9356 ;; Return value:  Size  Location     Type
  9357 ;;                  2   27[COMRAM] int 
  9358 ;; Registers used:
  9359 ;;		wreg, fsr1l, fsr1h, fsr2l, fsr2h, status,2, status,0, cstack
  9360 ;; Tracked objects:
  9361 ;;		On entry : 0/0
  9362 ;;		On exit  : 0/0
  9363 ;;		Unchanged: 0/0
  9364 ;; Data sizes:     COMRAM   BANK0   BANK1   BANK2   BANK3   BANK4   BANK5   BANK6   BANK7   BANK8   BANK9  BANK10  BANK1
      +1  BANK12  BANK13  BANK14  BANK15
  9365 ;;      Params:        10       0       0       0       0       0       0       0       0       0       0       0       
      +0       0       0       0       0
  9366 ;;      Locals:        16       0       0       0       0       0       0       0       0       0       0       0       
      +0       0       0       0       0
  9367 ;;      Temps:          8       0       0       0       0       0       0       0       0       0       0       0       
      +0       0       0       0       0
  9368 ;;      Totals:        34       0       0       0       0       0       0       0       0       0       0       0       
      +0       0       0       0       0
  9369 ;;Total ram usage:       34 bytes
  9370 ;; Hardware stack levels used:    1
  9371 ;; Hardware stack levels required when called:    4
  9372 ;; This function calls:
  9373 ;;		_pad
  9374 ;; This function is called by:
  9375 ;;		_vfpfcnvrt
  9376 ;; This function uses a non-reentrant model
  9377 ;;
  9378                           
  9379                           	psect	text33
  9380  0033C0                     __ptext33:
  9381                           	callstack 0
  9382  0033C0                     _otoa:
  9383                           	callstack 16
  9384  0033C0                     
  9385                           ;/opt/microchip/xc8/v2.30/pic/sources/c99/common/doprnt.c: 529: static int otoa(FILE *fp
      +                          , unsigned long long d);/opt/microchip/xc8/v2.30/pic/sources/c99/common/doprnt.c: 530: {
      +                          ;/opt/microchip/xc8/v2.30/pic/sources/c99/common/doprnt.c: 531:     int i, p, t, w;;/opt
      +                          /microchip/xc8/v2.30/pic/sources/c99/common/doprnt.c: 532:     unsigned long long n;;/op
      +                          t/microchip/xc8/v2.30/pic/sources/c99/common/doprnt.c: 535:     if (!(prec < 0)) {
  9386  0033C0  0100               	movlb	0	; () banked
  9387  0033C2  BFE1               	btfsc	(_prec+1)& (0+255),7,b
  9388  0033C4  EFE6  F019         	goto	i2u351_41
  9389  0033C8  EFE8  F019         	goto	i2u351_40
  9390  0033CC                     i2u351_41:
  9391  0033CC  EFE9  F019         	goto	i2l3392
  9392  0033D0                     i2u351_40:
  9393  0033D0                     
  9394                           ; BSR set to: 0
  9395                           ;/opt/microchip/xc8/v2.30/pic/sources/c99/common/doprnt.c: 536:         flags &= ~(1 << 
      +                          1);
  9396  0033D0  93E2               	bcf	_flags& (0+255),1,b
  9397  0033D2                     i2l3392:
  9398                           
  9399                           ; BSR set to: 0
  9400                           ;/opt/microchip/xc8/v2.30/pic/sources/c99/common/doprnt.c: 538:     p = (0 < prec) ? pre
      +                          c : 1;
  9401  0033D2  BFE1               	btfsc	(_prec+1)& (0+255),7,b
  9402  0033D4  EFF6  F019         	goto	i2u352_40
  9403  0033D8  51E1               	movf	(_prec+1)& (0+255),w,b
  9404  0033DA  E106               	bnz	i2u352_41
  9405  0033DC  05E0               	decf	_prec& (0+255),w,b
  9406  0033DE  B0D8               	btfsc	status,0,c
  9407  0033E0  EFF4  F019         	goto	i2u352_41
  9408  0033E4  EFF6  F019         	goto	i2u352_40
  9409  0033E8                     i2u352_41:
  9410  0033E8  EFFC  F019         	goto	i2l1116
  9411  0033EC                     i2u352_40:
  9412  0033EC                     
  9413                           ; BSR set to: 0
  9414  0033EC  0E00               	movlw	0
  9415  0033EE  6E2F               	movwf	(otoa@p+1)^0,c
  9416  0033F0  0E01               	movlw	1
  9417  0033F2  6E2E               	movwf	otoa@p^0,c
  9418  0033F4  EF00  F01A         	goto	i2l1118
  9419  0033F8                     i2l1116:
  9420                           
  9421                           ; BSR set to: 0
  9422  0033F8  C0E0  F02E         	movff	_prec,otoa@p
  9423  0033FC  C0E1  F02F         	movff	_prec+1,otoa@p+1
  9424  003400                     i2l1118:
  9425                           
  9426                           ; BSR set to: 0
  9427                           ;/opt/microchip/xc8/v2.30/pic/sources/c99/common/doprnt.c: 539:     w = width;
  9428  003400  C0DE  F032         	movff	_width,otoa@w
  9429  003404  C0DF  F033         	movff	_width+1,otoa@w+1
  9430                           
  9431                           ;/opt/microchip/xc8/v2.30/pic/sources/c99/common/doprnt.c: 542:     n = d;
  9432  003408  C01E  F034         	movff	otoa@d,otoa@n
  9433  00340C  C01F  F035         	movff	otoa@d+1,otoa@n+1
  9434  003410  C020  F036         	movff	otoa@d+2,otoa@n+2
  9435  003414  C021  F037         	movff	otoa@d+3,otoa@n+3
  9436  003418  C022  F038         	movff	otoa@d+4,otoa@n+4
  9437  00341C  C023  F039         	movff	otoa@d+5,otoa@n+5
  9438  003420  C024  F03A         	movff	otoa@d+6,otoa@n+6
  9439  003424  C025  F03B         	movff	otoa@d+7,otoa@n+7
  9440  003428                     
  9441                           ; BSR set to: 0
  9442                           ;/opt/microchip/xc8/v2.30/pic/sources/c99/common/doprnt.c: 543:     i = sizeof(dbuf) - 1
      +                          ;
  9443  003428  0E00               	movlw	0
  9444  00342A  6E3D               	movwf	(otoa@i+1)^0,c
  9445  00342C  0E1F               	movlw	31
  9446  00342E  6E3C               	movwf	otoa@i^0,c
  9447  003430                     
  9448                           ; BSR set to: 0
  9449                           ;/opt/microchip/xc8/v2.30/pic/sources/c99/common/doprnt.c: 544:     dbuf[i] = '\0';
  9450  003430  0E00               	movlw	0
  9451  003432  0101               	movlb	1	; () banked
  9452  003434  6FB2               	movwf	(_dbuf+31)& (0+255),b
  9453  003436                     
  9454                           ; BSR set to: 1
  9455                           ;/opt/microchip/xc8/v2.30/pic/sources/c99/common/doprnt.c: 545:     t = 0;
  9456  003436  0E00               	movlw	0
  9457  003438  6E31               	movwf	(otoa@t+1)^0,c
  9458  00343A  0E00               	movlw	0
  9459  00343C  6E30               	movwf	otoa@t^0,c
  9460                           
  9461                           ;/opt/microchip/xc8/v2.30/pic/sources/c99/common/doprnt.c: 546:     while (!(i < 1) && (
      +                          n || (0 < p) || ((0 < w) && (flags & (1 << 1))))) {
  9462  00343E  EF66  F01A         	goto	i2l3414
  9463  003442                     i2l3402:
  9464                           
  9465                           ;/opt/microchip/xc8/v2.30/pic/sources/c99/common/doprnt.c: 547:         --i;
  9466  003442  063C               	decf	otoa@i^0,f,c
  9467  003444  A0D8               	btfss	status,0,c
  9468  003446  063D               	decf	(otoa@i+1)^0,f,c
  9469  003448                     
  9470                           ;/opt/microchip/xc8/v2.30/pic/sources/c99/common/doprnt.c: 548:         t = n & 07;
  9471  003448  0E07               	movlw	7
  9472  00344A  1434               	andwf	otoa@n^0,w,c
  9473  00344C  6E30               	movwf	otoa@t^0,c
  9474  00344E  6A31               	clrf	(otoa@t+1)^0,c
  9475  003450                     
  9476                           ;/opt/microchip/xc8/v2.30/pic/sources/c99/common/doprnt.c: 549:         dbuf[i] = (char)
      +                          ((int)'0' + t);
  9477  003450  0E93               	movlw	low _dbuf
  9478  003452  243C               	addwf	otoa@i^0,w,c
  9479  003454  6ED9               	movwf	fsr2l,c
  9480  003456  0E01               	movlw	high _dbuf
  9481  003458  203D               	addwfc	(otoa@i+1)^0,w,c
  9482  00345A  6EDA               	movwf	fsr2h,c
  9483  00345C  5030               	movf	otoa@t^0,w,c
  9484  00345E  0F30               	addlw	48
  9485  003460  6EDF               	movwf	indf2,c
  9486  003462                     
  9487                           ;/opt/microchip/xc8/v2.30/pic/sources/c99/common/doprnt.c: 550:         --p;
  9488  003462  062E               	decf	otoa@p^0,f,c
  9489  003464  A0D8               	btfss	status,0,c
  9490  003466  062F               	decf	(otoa@p+1)^0,f,c
  9491  003468                     
  9492                           ;/opt/microchip/xc8/v2.30/pic/sources/c99/common/doprnt.c: 551:         --w;
  9493  003468  0632               	decf	otoa@w^0,f,c
  9494  00346A  A0D8               	btfss	status,0,c
  9495  00346C  0633               	decf	(otoa@w+1)^0,f,c
  9496  00346E                     
  9497                           ;/opt/microchip/xc8/v2.30/pic/sources/c99/common/doprnt.c: 552:         n = n >> 3;
  9498  00346E  C034  F026         	movff	otoa@n,??_otoa
  9499  003472  C035  F027         	movff	otoa@n+1,??_otoa+1
  9500  003476  C036  F028         	movff	otoa@n+2,??_otoa+2
  9501  00347A  C037  F029         	movff	otoa@n+3,??_otoa+3
  9502  00347E  C038  F02A         	movff	otoa@n+4,??_otoa+4
  9503  003482  C039  F02B         	movff	otoa@n+5,??_otoa+5
  9504  003486  C03A  F02C         	movff	otoa@n+6,??_otoa+6
  9505  00348A  C03B  F02D         	movff	otoa@n+7,??_otoa+7
  9506  00348E  0E04               	movlw	4
  9507  003490  EF53  F01A         	goto	i2u353_40
  9508  003494                     i2u353_45:
  9509  003494  90D8               	bcf	status,0,c
  9510  003496  322D               	rrcf	(??_otoa+7)^0,f,c
  9511  003498  322C               	rrcf	(??_otoa+6)^0,f,c
  9512  00349A  322B               	rrcf	(??_otoa+5)^0,f,c
  9513  00349C  322A               	rrcf	(??_otoa+4)^0,f,c
  9514  00349E  3229               	rrcf	(??_otoa+3)^0,f,c
  9515  0034A0  3228               	rrcf	(??_otoa+2)^0,f,c
  9516  0034A2  3227               	rrcf	(??_otoa+1)^0,f,c
  9517  0034A4  3226               	rrcf	??_otoa^0,f,c
  9518  0034A6                     i2u353_40:
  9519  0034A6  2EE8               	decfsz	wreg,f,c
  9520  0034A8  EF4A  F01A         	goto	i2u353_45
  9521  0034AC  C026  F034         	movff	??_otoa,otoa@n
  9522  0034B0  C027  F035         	movff	??_otoa+1,otoa@n+1
  9523  0034B4  C028  F036         	movff	??_otoa+2,otoa@n+2
  9524  0034B8  C029  F037         	movff	??_otoa+3,otoa@n+3
  9525  0034BC  C02A  F038         	movff	??_otoa+4,otoa@n+4
  9526  0034C0  C02B  F039         	movff	??_otoa+5,otoa@n+5
  9527  0034C4  C02C  F03A         	movff	??_otoa+6,otoa@n+6
  9528  0034C8  C02D  F03B         	movff	??_otoa+7,otoa@n+7
  9529  0034CC                     i2l3414:
  9530                           
  9531                           ;/opt/microchip/xc8/v2.30/pic/sources/c99/common/doprnt.c: 546:     while (!(i < 1) && (
      +                          n || (0 < p) || ((0 < w) && (flags & (1 << 1))))) {
  9532  0034CC  BE3D               	btfsc	(otoa@i+1)^0,7,c
  9533  0034CE  EF71  F01A         	goto	i2u354_41
  9534  0034D2  503D               	movf	(otoa@i+1)^0,w,c
  9535  0034D4  E108               	bnz	i2u354_40
  9536  0034D6  043C               	decf	otoa@i^0,w,c
  9537  0034D8  A0D8               	btfss	status,0,c
  9538  0034DA  EF71  F01A         	goto	i2u354_41
  9539  0034DE  EF73  F01A         	goto	i2u354_40
  9540  0034E2                     i2u354_41:
  9541  0034E2  EFA4  F01A         	goto	i2l1125
  9542  0034E6                     i2u354_40:
  9543  0034E6  5034               	movf	otoa@n^0,w,c
  9544  0034E8  1035               	iorwf	(otoa@n+1)^0,w,c
  9545  0034EA  1036               	iorwf	(otoa@n+2)^0,w,c
  9546  0034EC  1037               	iorwf	(otoa@n+3)^0,w,c
  9547  0034EE  1038               	iorwf	(otoa@n+4)^0,w,c
  9548  0034F0  1039               	iorwf	(otoa@n+5)^0,w,c
  9549  0034F2  103A               	iorwf	(otoa@n+6)^0,w,c
  9550  0034F4  103B               	iorwf	(otoa@n+7)^0,w,c
  9551  0034F6  A4D8               	btfss	status,2,c
  9552  0034F8  EF80  F01A         	goto	i2u355_41
  9553  0034FC  EF82  F01A         	goto	i2u355_40
  9554  003500                     i2u355_41:
  9555  003500  EF21  F01A         	goto	i2l3402
  9556  003504                     i2u355_40:
  9557  003504  BE2F               	btfsc	(otoa@p+1)^0,7,c
  9558  003506  EF8F  F01A         	goto	i2u356_40
  9559  00350A  502F               	movf	(otoa@p+1)^0,w,c
  9560  00350C  E106               	bnz	i2u356_41
  9561  00350E  042E               	decf	otoa@p^0,w,c
  9562  003510  B0D8               	btfsc	status,0,c
  9563  003512  EF8D  F01A         	goto	i2u356_41
  9564  003516  EF8F  F01A         	goto	i2u356_40
  9565  00351A                     i2u356_41:
  9566  00351A  EF21  F01A         	goto	i2l3402
  9567  00351E                     i2u356_40:
  9568  00351E  BE33               	btfsc	(otoa@w+1)^0,7,c
  9569  003520  EF9A  F01A         	goto	i2u357_41
  9570  003524  5033               	movf	(otoa@w+1)^0,w,c
  9571  003526  E108               	bnz	i2u357_40
  9572  003528  0432               	decf	otoa@w^0,w,c
  9573  00352A  A0D8               	btfss	status,0,c
  9574  00352C  EF9A  F01A         	goto	i2u357_41
  9575  003530  EF9C  F01A         	goto	i2u357_40
  9576  003534                     i2u357_41:
  9577  003534  EFA4  F01A         	goto	i2l1125
  9578  003538                     i2u357_40:
  9579  003538  0100               	movlb	0	; () banked
  9580  00353A  B3E2               	btfsc	_flags& (0+255),1,b
  9581  00353C  EFA2  F01A         	goto	i2u358_41
  9582  003540  EFA4  F01A         	goto	i2u358_40
  9583  003544                     i2u358_41:
  9584  003544  EF21  F01A         	goto	i2l3402
  9585  003548                     i2u358_40:
  9586  003548                     i2l1125:
  9587                           
  9588                           ;/opt/microchip/xc8/v2.30/pic/sources/c99/common/doprnt.c: 556:     if ((flags & (1 << 4
      +                          )) && t) {
  9589  003548  0100               	movlb	0	; () banked
  9590  00354A  A9E2               	btfss	_flags& (0+255),4,b
  9591  00354C  EFAA  F01A         	goto	i2u359_41
  9592  003550  EFAC  F01A         	goto	i2u359_40
  9593  003554                     i2u359_41:
  9594  003554  EFC3  F01A         	goto	i2l3432
  9595  003558                     i2u359_40:
  9596  003558                     
  9597                           ; BSR set to: 0
  9598  003558  5030               	movf	otoa@t^0,w,c
  9599  00355A  1031               	iorwf	(otoa@t+1)^0,w,c
  9600  00355C  B4D8               	btfsc	status,2,c
  9601  00355E  EFB3  F01A         	goto	i2u360_41
  9602  003562  EFB5  F01A         	goto	i2u360_40
  9603  003566                     i2u360_41:
  9604  003566  EFC3  F01A         	goto	i2l3432
  9605  00356A                     i2u360_40:
  9606  00356A                     
  9607                           ; BSR set to: 0
  9608                           ;/opt/microchip/xc8/v2.30/pic/sources/c99/common/doprnt.c: 557:         --i;
  9609  00356A  063C               	decf	otoa@i^0,f,c
  9610  00356C  A0D8               	btfss	status,0,c
  9611  00356E  063D               	decf	(otoa@i+1)^0,f,c
  9612  003570                     
  9613                           ; BSR set to: 0
  9614                           ;/opt/microchip/xc8/v2.30/pic/sources/c99/common/doprnt.c: 558:         dbuf[i] = '0';
  9615  003570  0E93               	movlw	low _dbuf
  9616  003572  243C               	addwf	otoa@i^0,w,c
  9617  003574  6ED9               	movwf	fsr2l,c
  9618  003576  0E01               	movlw	high _dbuf
  9619  003578  203D               	addwfc	(otoa@i+1)^0,w,c
  9620  00357A  6EDA               	movwf	fsr2h,c
  9621  00357C  0E30               	movlw	48
  9622  00357E  6EDF               	movwf	indf2,c
  9623  003580                     
  9624                           ; BSR set to: 0
  9625                           ;/opt/microchip/xc8/v2.30/pic/sources/c99/common/doprnt.c: 559:         --w;
  9626  003580  0632               	decf	otoa@w^0,f,c
  9627  003582  A0D8               	btfss	status,0,c
  9628  003584  0633               	decf	(otoa@w+1)^0,f,c
  9629  003586                     i2l3432:
  9630                           
  9631                           ; BSR set to: 0
  9632                           ;/opt/microchip/xc8/v2.30/pic/sources/c99/common/doprnt.c: 563:     return pad(fp, &dbuf
      +                          [i], w);
  9633  003586  C01C  F011         	movff	otoa@fp,pad@fp
  9634  00358A  C01D  F012         	movff	otoa@fp+1,pad@fp+1
  9635  00358E  0E93               	movlw	low _dbuf
  9636  003590  243C               	addwf	otoa@i^0,w,c
  9637  003592  6E13               	movwf	pad@buf^0,c
  9638  003594  0E01               	movlw	high _dbuf
  9639  003596  203D               	addwfc	(otoa@i+1)^0,w,c
  9640  003598  6E14               	movwf	(pad@buf+1)^0,c
  9641  00359A  C032  F015         	movff	otoa@w,pad@p
  9642  00359E  C033  F016         	movff	otoa@w+1,pad@p+1
  9643  0035A2  EC0A  F022         	call	_pad	;wreg free
  9644  0035A6  C011  F01C         	movff	?_pad,?_otoa
  9645  0035AA  C012  F01D         	movff	?_pad+1,?_otoa+1
  9646  0035AE  0012               	return		;funcret
  9647  0035B0                     __end_of_otoa:
  9648                           	callstack 0
  9649                           
  9650 ;; *************** function _dtoa *****************
  9651 ;; Defined at:
  9652 ;;		line 287 in file "/opt/microchip/xc8/v2.30/pic/sources/c99/common/doprnt.c"
  9653 ;; Parameters:    Size  Location     Type
  9654 ;;  fp              2   27[COMRAM] PTR struct _IO_FILE
  9655 ;;		 -> vsnprintf@f(6), 
  9656 ;;  d               8   29[COMRAM] long long 
  9657 ;; Auto vars:     Size  Location     Type
  9658 ;;  n               8   53[COMRAM] long long 
  9659 ;;  i               2   61[COMRAM] int 
  9660 ;;  s               2   51[COMRAM] int 
  9661 ;;  w               2   49[COMRAM] int 
  9662 ;;  p               2   47[COMRAM] int 
  9663 ;; Return value:  Size  Location     Type
  9664 ;;                  2   27[COMRAM] int 
  9665 ;; Registers used:
  9666 ;;		wreg, fsr1l, fsr1h, fsr2l, fsr2h, status,2, status,0, cstack
  9667 ;; Tracked objects:
  9668 ;;		On entry : 0/0
  9669 ;;		On exit  : 0/0
  9670 ;;		Unchanged: 0/0
  9671 ;; Data sizes:     COMRAM   BANK0   BANK1   BANK2   BANK3   BANK4   BANK5   BANK6   BANK7   BANK8   BANK9  BANK10  BANK1
      +1  BANK12  BANK13  BANK14  BANK15
  9672 ;;      Params:        10       0       0       0       0       0       0       0       0       0       0       0       
      +0       0       0       0       0
  9673 ;;      Locals:        18       0       0       0       0       0       0       0       0       0       0       0       
      +0       0       0       0       0
  9674 ;;      Temps:          8       0       0       0       0       0       0       0       0       0       0       0       
      +0       0       0       0       0
  9675 ;;      Totals:        36       0       0       0       0       0       0       0       0       0       0       0       
      +0       0       0       0       0
  9676 ;;Total ram usage:       36 bytes
  9677 ;; Hardware stack levels used:    1
  9678 ;; Hardware stack levels required when called:    4
  9679 ;; This function calls:
  9680 ;;		___aodiv
  9681 ;;		___aomod
  9682 ;;		_abs
  9683 ;;		_pad
  9684 ;; This function is called by:
  9685 ;;		_vfpfcnvrt
  9686 ;; This function uses a non-reentrant model
  9687 ;;
  9688                           
  9689                           	psect	text34
  9690  0029DE                     __ptext34:
  9691                           	callstack 0
  9692  0029DE                     _dtoa:
  9693                           	callstack 16
  9694  0029DE                     
  9695                           ;/opt/microchip/xc8/v2.30/pic/sources/c99/common/doprnt.c: 287: static int dtoa(FILE *fp
      +                          , long long d);/opt/microchip/xc8/v2.30/pic/sources/c99/common/doprnt.c: 288: {;/opt/mic
      +                          rochip/xc8/v2.30/pic/sources/c99/common/doprnt.c: 289:     int i, p, s, w;;/opt/microchi
      +                          p/xc8/v2.30/pic/sources/c99/common/doprnt.c: 290:     long long n;;/opt/microchip/xc8/v2
      +                          .30/pic/sources/c99/common/doprnt.c: 293:     n = d;
  9696  0029DE  C01E  F036         	movff	dtoa@d,dtoa@n
  9697  0029E2  C01F  F037         	movff	dtoa@d+1,dtoa@n+1
  9698  0029E6  C020  F038         	movff	dtoa@d+2,dtoa@n+2
  9699  0029EA  C021  F039         	movff	dtoa@d+3,dtoa@n+3
  9700  0029EE  C022  F03A         	movff	dtoa@d+4,dtoa@n+4
  9701  0029F2  C023  F03B         	movff	dtoa@d+5,dtoa@n+5
  9702  0029F6  C024  F03C         	movff	dtoa@d+6,dtoa@n+6
  9703  0029FA  C025  F03D         	movff	dtoa@d+7,dtoa@n+7
  9704  0029FE                     
  9705                           ;/opt/microchip/xc8/v2.30/pic/sources/c99/common/doprnt.c: 294:     s = n < 0 ? 1 : 0;
  9706  0029FE  BE3D               	btfsc	(dtoa@n+7)^0,7,c
  9707  002A00  EF04  F015         	goto	i2u336_41
  9708  002A04  EF07  F015         	goto	i2u336_40
  9709  002A08                     i2u336_41:
  9710  002A08  0E01               	movlw	1
  9711  002A0A  EF08  F015         	goto	i2u337_40
  9712  002A0E                     i2u336_40:
  9713  002A0E  0E00               	movlw	0
  9714  002A10                     i2u337_40:
  9715  002A10  6E34               	movwf	dtoa@s^0,c
  9716  002A12  6A35               	clrf	(dtoa@s+1)^0,c
  9717                           
  9718                           ;/opt/microchip/xc8/v2.30/pic/sources/c99/common/doprnt.c: 295:     if (s) {
  9719  002A14  5034               	movf	dtoa@s^0,w,c
  9720  002A16  1035               	iorwf	(dtoa@s+1)^0,w,c
  9721  002A18  B4D8               	btfsc	status,2,c
  9722  002A1A  EF11  F015         	goto	i2u338_41
  9723  002A1E  EF13  F015         	goto	i2u338_40
  9724  002A22                     i2u338_41:
  9725  002A22  EF23  F015         	goto	i2l3332
  9726  002A26                     i2u338_40:
  9727  002A26                     
  9728                           ;/opt/microchip/xc8/v2.30/pic/sources/c99/common/doprnt.c: 296:         n = -n;
  9729  002A26  1E3D               	comf	(dtoa@n+7)^0,f,c
  9730  002A28  1E3C               	comf	(dtoa@n+6)^0,f,c
  9731  002A2A  1E3B               	comf	(dtoa@n+5)^0,f,c
  9732  002A2C  1E3A               	comf	(dtoa@n+4)^0,f,c
  9733  002A2E  1E39               	comf	(dtoa@n+3)^0,f,c
  9734  002A30  1E38               	comf	(dtoa@n+2)^0,f,c
  9735  002A32  1E37               	comf	(dtoa@n+1)^0,f,c
  9736  002A34  6C36               	negf	dtoa@n^0,c
  9737  002A36  0E00               	movlw	0
  9738  002A38  2237               	addwfc	(dtoa@n+1)^0,f,c
  9739  002A3A  2238               	addwfc	(dtoa@n+2)^0,f,c
  9740  002A3C  2239               	addwfc	(dtoa@n+3)^0,f,c
  9741  002A3E  223A               	addwfc	(dtoa@n+4)^0,f,c
  9742  002A40  223B               	addwfc	(dtoa@n+5)^0,f,c
  9743  002A42  223C               	addwfc	(dtoa@n+6)^0,f,c
  9744  002A44  223D               	addwfc	(dtoa@n+7)^0,f,c
  9745  002A46                     i2l3332:
  9746                           
  9747                           ;/opt/microchip/xc8/v2.30/pic/sources/c99/common/doprnt.c: 300:     if (!(prec < 0)) {
  9748  002A46  0100               	movlb	0	; () banked
  9749  002A48  BFE1               	btfsc	(_prec+1)& (0+255),7,b
  9750  002A4A  EF29  F015         	goto	i2u339_41
  9751  002A4E  EF2B  F015         	goto	i2u339_40
  9752  002A52                     i2u339_41:
  9753  002A52  EF2C  F015         	goto	i2l3336
  9754  002A56                     i2u339_40:
  9755  002A56                     
  9756                           ; BSR set to: 0
  9757                           ;/opt/microchip/xc8/v2.30/pic/sources/c99/common/doprnt.c: 301:         flags &= ~(1 << 
      +                          1);
  9758  002A56  93E2               	bcf	_flags& (0+255),1,b
  9759  002A58                     i2l3336:
  9760                           
  9761                           ; BSR set to: 0
  9762                           ;/opt/microchip/xc8/v2.30/pic/sources/c99/common/doprnt.c: 303:     p = (0 < prec) ? pre
      +                          c : 1;
  9763  002A58  BFE1               	btfsc	(_prec+1)& (0+255),7,b
  9764  002A5A  EF39  F015         	goto	i2u340_40
  9765  002A5E  51E1               	movf	(_prec+1)& (0+255),w,b
  9766  002A60  E106               	bnz	i2u340_41
  9767  002A62  05E0               	decf	_prec& (0+255),w,b
  9768  002A64  B0D8               	btfsc	status,0,c
  9769  002A66  EF37  F015         	goto	i2u340_41
  9770  002A6A  EF39  F015         	goto	i2u340_40
  9771  002A6E                     i2u340_41:
  9772  002A6E  EF3F  F015         	goto	i2l1091
  9773  002A72                     i2u340_40:
  9774  002A72                     
  9775                           ; BSR set to: 0
  9776  002A72  0E00               	movlw	0
  9777  002A74  6E31               	movwf	(dtoa@p+1)^0,c
  9778  002A76  0E01               	movlw	1
  9779  002A78  6E30               	movwf	dtoa@p^0,c
  9780  002A7A  EF43  F015         	goto	i2l1093
  9781  002A7E                     i2l1091:
  9782                           
  9783                           ; BSR set to: 0
  9784  002A7E  C0E0  F030         	movff	_prec,dtoa@p
  9785  002A82  C0E1  F031         	movff	_prec+1,dtoa@p+1
  9786  002A86                     i2l1093:
  9787                           
  9788                           ; BSR set to: 0
  9789                           ;/opt/microchip/xc8/v2.30/pic/sources/c99/common/doprnt.c: 304:     w = width;
  9790  002A86  C0DE  F032         	movff	_width,dtoa@w
  9791  002A8A  C0DF  F033         	movff	_width+1,dtoa@w+1
  9792  002A8E                     
  9793                           ; BSR set to: 0
  9794                           ;/opt/microchip/xc8/v2.30/pic/sources/c99/common/doprnt.c: 305:     if (s || (flags & (1
      +                           << 2))) {
  9795  002A8E  5034               	movf	dtoa@s^0,w,c
  9796  002A90  1035               	iorwf	(dtoa@s+1)^0,w,c
  9797  002A92  A4D8               	btfss	status,2,c
  9798  002A94  EF4E  F015         	goto	i2u341_41
  9799  002A98  EF50  F015         	goto	i2u341_40
  9800  002A9C                     i2u341_41:
  9801  002A9C  EF57  F015         	goto	i2l3344
  9802  002AA0                     i2u341_40:
  9803  002AA0                     
  9804                           ; BSR set to: 0
  9805  002AA0  A5E2               	btfss	_flags& (0+255),2,b
  9806  002AA2  EF55  F015         	goto	i2u342_41
  9807  002AA6  EF57  F015         	goto	i2u342_40
  9808  002AAA                     i2u342_41:
  9809  002AAA  EF5A  F015         	goto	i2l3346
  9810  002AAE                     i2u342_40:
  9811  002AAE                     i2l3344:
  9812                           
  9813                           ; BSR set to: 0
  9814                           ;/opt/microchip/xc8/v2.30/pic/sources/c99/common/doprnt.c: 306:         --w;
  9815  002AAE  0632               	decf	dtoa@w^0,f,c
  9816  002AB0  A0D8               	btfss	status,0,c
  9817  002AB2  0633               	decf	(dtoa@w+1)^0,f,c
  9818  002AB4                     i2l3346:
  9819                           
  9820                           ; BSR set to: 0
  9821                           ;/opt/microchip/xc8/v2.30/pic/sources/c99/common/doprnt.c: 310:     i = sizeof(dbuf) - 1
      +                          ;
  9822  002AB4  0E00               	movlw	0
  9823  002AB6  6E3F               	movwf	(dtoa@i+1)^0,c
  9824  002AB8  0E1F               	movlw	31
  9825  002ABA  6E3E               	movwf	dtoa@i^0,c
  9826  002ABC                     
  9827                           ; BSR set to: 0
  9828                           ;/opt/microchip/xc8/v2.30/pic/sources/c99/common/doprnt.c: 311:     dbuf[i] = '\0';
  9829  002ABC  0E00               	movlw	0
  9830  002ABE  0101               	movlb	1	; () banked
  9831  002AC0  6FB2               	movwf	(_dbuf+31)& (0+255),b
  9832                           
  9833                           ;/opt/microchip/xc8/v2.30/pic/sources/c99/common/doprnt.c: 312:     while (!(i < 1) && (
      +                          n || (0 < p) || ((0 < w) && (flags & (1 << 1))))) {
  9834  002AC2  EFDF  F015         	goto	i2l3360
  9835  002AC6                     i2l3350:
  9836                           
  9837                           ;/opt/microchip/xc8/v2.30/pic/sources/c99/common/doprnt.c: 313:         --i;
  9838  002AC6  063E               	decf	dtoa@i^0,f,c
  9839  002AC8  A0D8               	btfss	status,0,c
  9840  002ACA  063F               	decf	(dtoa@i+1)^0,f,c
  9841  002ACC                     
  9842                           ;/opt/microchip/xc8/v2.30/pic/sources/c99/common/doprnt.c: 314:         dbuf[i] = (char)
      +                          ((int)'0' + abs(n % 10));
  9843  002ACC  0E93               	movlw	low _dbuf
  9844  002ACE  243E               	addwf	dtoa@i^0,w,c
  9845  002AD0  6ED9               	movwf	fsr2l,c
  9846  002AD2  0E01               	movlw	high _dbuf
  9847  002AD4  203F               	addwfc	(dtoa@i+1)^0,w,c
  9848  002AD6  6EDA               	movwf	fsr2h,c
  9849  002AD8  C036  F001         	movff	dtoa@n,___aomod@dividend
  9850  002ADC  C037  F002         	movff	dtoa@n+1,___aomod@dividend+1
  9851  002AE0  C038  F003         	movff	dtoa@n+2,___aomod@dividend+2
  9852  002AE4  C039  F004         	movff	dtoa@n+3,___aomod@dividend+3
  9853  002AE8  C03A  F005         	movff	dtoa@n+4,___aomod@dividend+4
  9854  002AEC  C03B  F006         	movff	dtoa@n+5,___aomod@dividend+5
  9855  002AF0  C03C  F007         	movff	dtoa@n+6,___aomod@dividend+6
  9856  002AF4  C03D  F008         	movff	dtoa@n+7,___aomod@dividend+7
  9857  002AF8  0E0A               	movlw	10
  9858  002AFA  6E09               	movwf	___aomod@divisor^0,c
  9859  002AFC  0E00               	movlw	0
  9860  002AFE  6E0A               	movwf	(___aomod@divisor+1)^0,c
  9861  002B00  0E00               	movlw	0
  9862  002B02  6E0B               	movwf	(___aomod@divisor+2)^0,c
  9863  002B04  0E00               	movlw	0
  9864  002B06  6E0C               	movwf	(___aomod@divisor+3)^0,c
  9865  002B08  0E00               	movlw	0
  9866  002B0A  6E0D               	movwf	(___aomod@divisor+4)^0,c
  9867  002B0C  0E00               	movlw	0
  9868  002B0E  6E0E               	movwf	(___aomod@divisor+5)^0,c
  9869  002B10  0E00               	movlw	0
  9870  002B12  6E0F               	movwf	(___aomod@divisor+6)^0,c
  9871  002B14  0E00               	movlw	0
  9872  002B16  6E10               	movwf	(___aomod@divisor+7)^0,c
  9873  002B18  EC31  F01D         	call	___aomod	;wreg free
  9874  002B1C  C001  F026         	movff	?___aomod,??_dtoa
  9875  002B20  C002  F027         	movff	?___aomod+1,??_dtoa+1
  9876  002B24  C003  F028         	movff	?___aomod+2,??_dtoa+2
  9877  002B28  C004  F029         	movff	?___aomod+3,??_dtoa+3
  9878  002B2C  C005  F02A         	movff	?___aomod+4,??_dtoa+4
  9879  002B30  C006  F02B         	movff	?___aomod+5,??_dtoa+5
  9880  002B34  C007  F02C         	movff	?___aomod+6,??_dtoa+6
  9881  002B38  C008  F02D         	movff	?___aomod+7,??_dtoa+7
  9882  002B3C  C026  F013         	movff	??_dtoa,abs@a
  9883  002B40  C028  F014         	movff	??_dtoa+2,abs@a+1
  9884  002B44  EC1E  F026         	call	_abs	;wreg free
  9885  002B48  5013               	movf	?_abs^0,w,c
  9886  002B4A  0F30               	addlw	48
  9887  002B4C  6EDF               	movwf	indf2,c
  9888  002B4E                     
  9889                           ;/opt/microchip/xc8/v2.30/pic/sources/c99/common/doprnt.c: 315:         --p;
  9890  002B4E  0630               	decf	dtoa@p^0,f,c
  9891  002B50  A0D8               	btfss	status,0,c
  9892  002B52  0631               	decf	(dtoa@p+1)^0,f,c
  9893  002B54                     
  9894                           ;/opt/microchip/xc8/v2.30/pic/sources/c99/common/doprnt.c: 316:         --w;
  9895  002B54  0632               	decf	dtoa@w^0,f,c
  9896  002B56  A0D8               	btfss	status,0,c
  9897  002B58  0633               	decf	(dtoa@w+1)^0,f,c
  9898  002B5A                     
  9899                           ;/opt/microchip/xc8/v2.30/pic/sources/c99/common/doprnt.c: 317:         n = n / 10;
  9900  002B5A  C036  F001         	movff	dtoa@n,___aodiv@dividend
  9901  002B5E  C037  F002         	movff	dtoa@n+1,___aodiv@dividend+1
  9902  002B62  C038  F003         	movff	dtoa@n+2,___aodiv@dividend+2
  9903  002B66  C039  F004         	movff	dtoa@n+3,___aodiv@dividend+3
  9904  002B6A  C03A  F005         	movff	dtoa@n+4,___aodiv@dividend+4
  9905  002B6E  C03B  F006         	movff	dtoa@n+5,___aodiv@dividend+5
  9906  002B72  C03C  F007         	movff	dtoa@n+6,___aodiv@dividend+6
  9907  002B76  C03D  F008         	movff	dtoa@n+7,___aodiv@dividend+7
  9908  002B7A  0E0A               	movlw	10
  9909  002B7C  6E09               	movwf	___aodiv@divisor^0,c
  9910  002B7E  0E00               	movlw	0
  9911  002B80  6E0A               	movwf	(___aodiv@divisor+1)^0,c
  9912  002B82  0E00               	movlw	0
  9913  002B84  6E0B               	movwf	(___aodiv@divisor+2)^0,c
  9914  002B86  0E00               	movlw	0
  9915  002B88  6E0C               	movwf	(___aodiv@divisor+3)^0,c
  9916  002B8A  0E00               	movlw	0
  9917  002B8C  6E0D               	movwf	(___aodiv@divisor+4)^0,c
  9918  002B8E  0E00               	movlw	0
  9919  002B90  6E0E               	movwf	(___aodiv@divisor+5)^0,c
  9920  002B92  0E00               	movlw	0
  9921  002B94  6E0F               	movwf	(___aodiv@divisor+6)^0,c
  9922  002B96  0E00               	movlw	0
  9923  002B98  6E10               	movwf	(___aodiv@divisor+7)^0,c
  9924  002B9A  ECAA  F01B         	call	___aodiv	;wreg free
  9925  002B9E  C001  F036         	movff	?___aodiv,dtoa@n
  9926  002BA2  C002  F037         	movff	?___aodiv+1,dtoa@n+1
  9927  002BA6  C003  F038         	movff	?___aodiv+2,dtoa@n+2
  9928  002BAA  C004  F039         	movff	?___aodiv+3,dtoa@n+3
  9929  002BAE  C005  F03A         	movff	?___aodiv+4,dtoa@n+4
  9930  002BB2  C006  F03B         	movff	?___aodiv+5,dtoa@n+5
  9931  002BB6  C007  F03C         	movff	?___aodiv+6,dtoa@n+6
  9932  002BBA  C008  F03D         	movff	?___aodiv+7,dtoa@n+7
  9933  002BBE                     i2l3360:
  9934                           
  9935                           ;/opt/microchip/xc8/v2.30/pic/sources/c99/common/doprnt.c: 312:     while (!(i < 1) && (
      +                          n || (0 < p) || ((0 < w) && (flags & (1 << 1))))) {
  9936  002BBE  BE3F               	btfsc	(dtoa@i+1)^0,7,c
  9937  002BC0  EFEA  F015         	goto	i2u343_41
  9938  002BC4  503F               	movf	(dtoa@i+1)^0,w,c
  9939  002BC6  E108               	bnz	i2u343_40
  9940  002BC8  043E               	decf	dtoa@i^0,w,c
  9941  002BCA  A0D8               	btfss	status,0,c
  9942  002BCC  EFEA  F015         	goto	i2u343_41
  9943  002BD0  EFEC  F015         	goto	i2u343_40
  9944  002BD4                     i2u343_41:
  9945  002BD4  EF1D  F016         	goto	i2l3370
  9946  002BD8                     i2u343_40:
  9947  002BD8  5036               	movf	dtoa@n^0,w,c
  9948  002BDA  1037               	iorwf	(dtoa@n+1)^0,w,c
  9949  002BDC  1038               	iorwf	(dtoa@n+2)^0,w,c
  9950  002BDE  1039               	iorwf	(dtoa@n+3)^0,w,c
  9951  002BE0  103A               	iorwf	(dtoa@n+4)^0,w,c
  9952  002BE2  103B               	iorwf	(dtoa@n+5)^0,w,c
  9953  002BE4  103C               	iorwf	(dtoa@n+6)^0,w,c
  9954  002BE6  103D               	iorwf	(dtoa@n+7)^0,w,c
  9955  002BE8  A4D8               	btfss	status,2,c
  9956  002BEA  EFF9  F015         	goto	i2u344_41
  9957  002BEE  EFFB  F015         	goto	i2u344_40
  9958  002BF2                     i2u344_41:
  9959  002BF2  EF63  F015         	goto	i2l3350
  9960  002BF6                     i2u344_40:
  9961  002BF6  BE31               	btfsc	(dtoa@p+1)^0,7,c
  9962  002BF8  EF08  F016         	goto	i2u345_40
  9963  002BFC  5031               	movf	(dtoa@p+1)^0,w,c
  9964  002BFE  E106               	bnz	i2u345_41
  9965  002C00  0430               	decf	dtoa@p^0,w,c
  9966  002C02  B0D8               	btfsc	status,0,c
  9967  002C04  EF06  F016         	goto	i2u345_41
  9968  002C08  EF08  F016         	goto	i2u345_40
  9969  002C0C                     i2u345_41:
  9970  002C0C  EF63  F015         	goto	i2l3350
  9971  002C10                     i2u345_40:
  9972  002C10  BE33               	btfsc	(dtoa@w+1)^0,7,c
  9973  002C12  EF13  F016         	goto	i2u346_41
  9974  002C16  5033               	movf	(dtoa@w+1)^0,w,c
  9975  002C18  E108               	bnz	i2u346_40
  9976  002C1A  0432               	decf	dtoa@w^0,w,c
  9977  002C1C  A0D8               	btfss	status,0,c
  9978  002C1E  EF13  F016         	goto	i2u346_41
  9979  002C22  EF15  F016         	goto	i2u346_40
  9980  002C26                     i2u346_41:
  9981  002C26  EF1D  F016         	goto	i2l3370
  9982  002C2A                     i2u346_40:
  9983  002C2A  0100               	movlb	0	; () banked
  9984  002C2C  B3E2               	btfsc	_flags& (0+255),1,b
  9985  002C2E  EF1B  F016         	goto	i2u347_41
  9986  002C32  EF1D  F016         	goto	i2u347_40
  9987  002C36                     i2u347_41:
  9988  002C36  EF63  F015         	goto	i2l3350
  9989  002C3A                     i2u347_40:
  9990  002C3A                     i2l3370:
  9991                           
  9992                           ;/opt/microchip/xc8/v2.30/pic/sources/c99/common/doprnt.c: 321:     if (s || (flags & (1
      +                           << 2))) {
  9993  002C3A  5034               	movf	dtoa@s^0,w,c
  9994  002C3C  1035               	iorwf	(dtoa@s+1)^0,w,c
  9995  002C3E  A4D8               	btfss	status,2,c
  9996  002C40  EF24  F016         	goto	i2u348_41
  9997  002C44  EF26  F016         	goto	i2u348_40
  9998  002C48                     i2u348_41:
  9999  002C48  EF2E  F016         	goto	i2l3374
 10000  002C4C                     i2u348_40:
 10001  002C4C  0100               	movlb	0	; () banked
 10002  002C4E  A5E2               	btfss	_flags& (0+255),2,b
 10003  002C50  EF2C  F016         	goto	i2u349_41
 10004  002C54  EF2E  F016         	goto	i2u349_40
 10005  002C58                     i2u349_41:
 10006  002C58  EF4C  F016         	goto	i2l3384
 10007  002C5C                     i2u349_40:
 10008  002C5C                     i2l3374:
 10009                           
 10010                           ;/opt/microchip/xc8/v2.30/pic/sources/c99/common/doprnt.c: 322:         --i;
 10011  002C5C  063E               	decf	dtoa@i^0,f,c
 10012  002C5E  A0D8               	btfss	status,0,c
 10013  002C60  063F               	decf	(dtoa@i+1)^0,f,c
 10014  002C62                     
 10015                           ;/opt/microchip/xc8/v2.30/pic/sources/c99/common/doprnt.c: 323:         dbuf[i] = s ? '-
      +                          ' : '+';
 10016  002C62  5034               	movf	dtoa@s^0,w,c
 10017  002C64  1035               	iorwf	(dtoa@s+1)^0,w,c
 10018  002C66  A4D8               	btfss	status,2,c
 10019  002C68  EF38  F016         	goto	i2u350_41
 10020  002C6C  EF3A  F016         	goto	i2u350_40
 10021  002C70                     i2u350_41:
 10022  002C70  EF40  F016         	goto	i2l3380
 10023  002C74                     i2u350_40:
 10024  002C74  0E00               	movlw	0
 10025  002C76  6E2F               	movwf	(_dtoa$1738+1)^0,c
 10026  002C78  0E2B               	movlw	43
 10027  002C7A  6E2E               	movwf	_dtoa$1738^0,c
 10028  002C7C  EF44  F016         	goto	i2l3382
 10029  002C80                     i2l3380:
 10030  002C80  0E00               	movlw	0
 10031  002C82  6E2F               	movwf	(_dtoa$1738+1)^0,c
 10032  002C84  0E2D               	movlw	45
 10033  002C86  6E2E               	movwf	_dtoa$1738^0,c
 10034  002C88                     i2l3382:
 10035  002C88  0E93               	movlw	low _dbuf
 10036  002C8A  243E               	addwf	dtoa@i^0,w,c
 10037  002C8C  6ED9               	movwf	fsr2l,c
 10038  002C8E  0E01               	movlw	high _dbuf
 10039  002C90  203F               	addwfc	(dtoa@i+1)^0,w,c
 10040  002C92  6EDA               	movwf	fsr2h,c
 10041  002C94  C02E  FFDF         	movff	_dtoa$1738,indf2
 10042  002C98                     i2l3384:
 10043                           
 10044                           ;/opt/microchip/xc8/v2.30/pic/sources/c99/common/doprnt.c: 327:     return pad(fp, &dbuf
      +                          [i], w);
 10045  002C98  C01C  F011         	movff	dtoa@fp,pad@fp
 10046  002C9C  C01D  F012         	movff	dtoa@fp+1,pad@fp+1
 10047  002CA0  0E93               	movlw	low _dbuf
 10048  002CA2  243E               	addwf	dtoa@i^0,w,c
 10049  002CA4  6E13               	movwf	pad@buf^0,c
 10050  002CA6  0E01               	movlw	high _dbuf
 10051  002CA8  203F               	addwfc	(dtoa@i+1)^0,w,c
 10052  002CAA  6E14               	movwf	(pad@buf+1)^0,c
 10053  002CAC  C032  F015         	movff	dtoa@w,pad@p
 10054  002CB0  C033  F016         	movff	dtoa@w+1,pad@p+1
 10055  002CB4  EC0A  F022         	call	_pad	;wreg free
 10056  002CB8  C011  F01C         	movff	?_pad,?_dtoa
 10057  002CBC  C012  F01D         	movff	?_pad+1,?_dtoa+1
 10058  002CC0  0012               	return		;funcret
 10059  002CC2                     __end_of_dtoa:
 10060                           	callstack 0
 10061                           
 10062 ;; *************** function _pad *****************
 10063 ;; Defined at:
 10064 ;;		line 72 in file "/opt/microchip/xc8/v2.30/pic/sources/c99/common/doprnt.c"
 10065 ;; Parameters:    Size  Location     Type
 10066 ;;  fp              2   16[COMRAM] PTR struct _IO_FILE
 10067 ;;		 -> vsnprintf@f(6), 
 10068 ;;  buf             2   18[COMRAM] PTR unsigned char 
 10069 ;;		 -> dbuf(32), 
 10070 ;;  p               2   20[COMRAM] int 
 10071 ;; Auto vars:     Size  Location     Type
 10072 ;;  w               2   25[COMRAM] int 
 10073 ;;  i               2   23[COMRAM] int 
 10074 ;; Return value:  Size  Location     Type
 10075 ;;                  2   16[COMRAM] int 
 10076 ;; Registers used:
 10077 ;;		wreg, fsr1l, fsr1h, fsr2l, fsr2h, status,2, status,0, cstack
 10078 ;; Tracked objects:
 10079 ;;		On entry : 0/0
 10080 ;;		On exit  : 0/0
 10081 ;;		Unchanged: 0/0
 10082 ;; Data sizes:     COMRAM   BANK0   BANK1   BANK2   BANK3   BANK4   BANK5   BANK6   BANK7   BANK8   BANK9  BANK10  BANK1
      +1  BANK12  BANK13  BANK14  BANK15
 10083 ;;      Params:         6       0       0       0       0       0       0       0       0       0       0       0       
      +0       0       0       0       0
 10084 ;;      Locals:         4       0       0       0       0       0       0       0       0       0       0       0       
      +0       0       0       0       0
 10085 ;;      Temps:          1       0       0       0       0       0       0       0       0       0       0       0       
      +0       0       0       0       0
 10086 ;;      Totals:        11       0       0       0       0       0       0       0       0       0       0       0       
      +0       0       0       0       0
 10087 ;;Total ram usage:       11 bytes
 10088 ;; Hardware stack levels used:    1
 10089 ;; Hardware stack levels required when called:    3
 10090 ;; This function calls:
 10091 ;;		_fputc
 10092 ;;		_fputs
 10093 ;;		_strlen
 10094 ;; This function is called by:
 10095 ;;		_dtoa
 10096 ;;		_otoa
 10097 ;;		_utoa
 10098 ;;		_xtoa
 10099 ;; This function uses a non-reentrant model
 10100 ;;
 10101                           
 10102                           	psect	text35
 10103  004414                     __ptext35:
 10104                           	callstack 0
 10105  004414                     _pad:
 10106                           	callstack 16
 10107  004414                     
 10108                           ;/opt/microchip/xc8/v2.30/pic/sources/c99/common/doprnt.c: 72: static int pad(FILE *fp, 
      +                          char *buf, int p);/opt/microchip/xc8/v2.30/pic/sources/c99/common/doprnt.c: 73: {;/opt/m
      +                          icrochip/xc8/v2.30/pic/sources/c99/common/doprnt.c: 74:     int i, w;;/opt/microchip/xc8
      +                          /v2.30/pic/sources/c99/common/doprnt.c: 77:     if (flags & (1 << 0)) {
 10109  004414  0100               	movlb	0	; () banked
 10110  004416  A1E2               	btfss	_flags& (0+255),0,b
 10111  004418  EF10  F022         	goto	i2u315_41
 10112  00441C  EF12  F022         	goto	i2u315_40
 10113  004420                     i2u315_41:
 10114  004420  EF1C  F022         	goto	i2l3242
 10115  004424                     i2u315_40:
 10116  004424                     
 10117                           ; BSR set to: 0
 10118                           ;/opt/microchip/xc8/v2.30/pic/sources/c99/common/doprnt.c: 78:         fputs((const char
      +                           *)buf, fp);
 10119  004424  C013  F00A         	movff	pad@buf,fputs@s
 10120  004428  C014  F00B         	movff	pad@buf+1,fputs@s+1
 10121  00442C  C011  F00C         	movff	pad@fp,fputs@fp
 10122  004430  C012  F00D         	movff	pad@fp+1,fputs@fp+1
 10123  004434  ECFC  F025         	call	_fputs	;wreg free
 10124  004438                     i2l3242:
 10125                           
 10126                           ;/opt/microchip/xc8/v2.30/pic/sources/c99/common/doprnt.c: 82:     w = (p < 0) ? 0 : p;
 10127  004438  BE16               	btfsc	(pad@p+1)^0,7,c
 10128  00443A  EF21  F022         	goto	i2u316_41
 10129  00443E  EF23  F022         	goto	i2u316_40
 10130  004442                     i2u316_41:
 10131  004442  EF29  F022         	goto	i2l3246
 10132  004446                     i2u316_40:
 10133  004446  C015  F01A         	movff	pad@p,pad@w
 10134  00444A  C016  F01B         	movff	pad@p+1,pad@w+1
 10135  00444E  EF2D  F022         	goto	i2l1064
 10136  004452                     i2l3246:
 10137  004452  0E00               	movlw	0
 10138  004454  6E1B               	movwf	(pad@w+1)^0,c
 10139  004456  0E00               	movlw	0
 10140  004458  6E1A               	movwf	pad@w^0,c
 10141  00445A                     i2l1064:
 10142                           
 10143                           ;/opt/microchip/xc8/v2.30/pic/sources/c99/common/doprnt.c: 83:     i = 0;
 10144  00445A  0E00               	movlw	0
 10145  00445C  6E19               	movwf	(pad@i+1)^0,c
 10146  00445E  0E00               	movlw	0
 10147  004460  6E18               	movwf	pad@i^0,c
 10148                           
 10149                           ;/opt/microchip/xc8/v2.30/pic/sources/c99/common/doprnt.c: 84:     while (i < w) {
 10150  004462  EF3F  F022         	goto	i2l3252
 10151  004466                     i2l3248:
 10152                           
 10153                           ;/opt/microchip/xc8/v2.30/pic/sources/c99/common/doprnt.c: 85:         fputc(' ', fp);
 10154  004466  0E00               	movlw	0
 10155  004468  6E02               	movwf	(fputc@c+1)^0,c
 10156  00446A  0E20               	movlw	32
 10157  00446C  6E01               	movwf	fputc@c^0,c
 10158  00446E  C011  F003         	movff	pad@fp,fputc@fp
 10159  004472  C012  F004         	movff	pad@fp+1,fputc@fp+1
 10160  004476  ECA5  F021         	call	_fputc	;wreg free
 10161  00447A                     
 10162                           ;/opt/microchip/xc8/v2.30/pic/sources/c99/common/doprnt.c: 86:         ++i;
 10163  00447A  4A18               	infsnz	pad@i^0,f,c
 10164  00447C  2A19               	incf	(pad@i+1)^0,f,c
 10165  00447E                     i2l3252:
 10166                           
 10167                           ;/opt/microchip/xc8/v2.30/pic/sources/c99/common/doprnt.c: 84:     while (i < w) {
 10168  00447E  501A               	movf	pad@w^0,w,c
 10169  004480  5C18               	subwf	pad@i^0,w,c
 10170  004482  5019               	movf	(pad@i+1)^0,w,c
 10171  004484  0A80               	xorlw	128
 10172  004486  6E17               	movwf	??_pad^0,c
 10173  004488  501B               	movf	(pad@w+1)^0,w,c
 10174  00448A  0A80               	xorlw	128
 10175  00448C  5817               	subwfb	??_pad^0,w,c
 10176  00448E  A0D8               	btfss	status,0,c
 10177  004490  EF4C  F022         	goto	i2u317_41
 10178  004494  EF4E  F022         	goto	i2u317_40
 10179  004498                     i2u317_41:
 10180  004498  EF33  F022         	goto	i2l3248
 10181  00449C                     i2u317_40:
 10182  00449C                     
 10183                           ;/opt/microchip/xc8/v2.30/pic/sources/c99/common/doprnt.c: 90:     if (!(flags & (1 << 0
      +                          ))) {
 10184  00449C  0100               	movlb	0	; () banked
 10185  00449E  B1E2               	btfsc	_flags& (0+255),0,b
 10186  0044A0  EF54  F022         	goto	i2u318_41
 10187  0044A4  EF56  F022         	goto	i2u318_40
 10188  0044A8                     i2u318_41:
 10189  0044A8  EF60  F022         	goto	i2l3256
 10190  0044AC                     i2u318_40:
 10191  0044AC                     
 10192                           ; BSR set to: 0
 10193                           ;/opt/microchip/xc8/v2.30/pic/sources/c99/common/doprnt.c: 91:         fputs((const char
      +                           *)buf, fp);
 10194  0044AC  C013  F00A         	movff	pad@buf,fputs@s
 10195  0044B0  C014  F00B         	movff	pad@buf+1,fputs@s+1
 10196  0044B4  C011  F00C         	movff	pad@fp,fputs@fp
 10197  0044B8  C012  F00D         	movff	pad@fp+1,fputs@fp+1
 10198  0044BC  ECFC  F025         	call	_fputs	;wreg free
 10199  0044C0                     i2l3256:
 10200                           
 10201                           ;/opt/microchip/xc8/v2.30/pic/sources/c99/common/doprnt.c: 94:     return (int)(strlen(b
      +                          uf) + (size_t)w);
 10202  0044C0  C013  F001         	movff	pad@buf,strlen@s
 10203  0044C4  C014  F002         	movff	pad@buf+1,strlen@s+1
 10204  0044C8  ECED  F026         	call	_strlen	;wreg free
 10205  0044CC  501A               	movf	pad@w^0,w,c
 10206  0044CE  2401               	addwf	?_strlen^0,w,c
 10207  0044D0  6E11               	movwf	?_pad^0,c
 10208  0044D2  501B               	movf	(pad@w+1)^0,w,c
 10209  0044D4  2002               	addwfc	(?_strlen+1)^0,w,c
 10210  0044D6  6E12               	movwf	(?_pad+1)^0,c
 10211  0044D8  0012               	return		;funcret
 10212  0044DA                     __end_of_pad:
 10213                           	callstack 0
 10214                           
 10215 ;; *************** function _strlen *****************
 10216 ;; Defined at:
 10217 ;;		line 5 in file "/opt/microchip/xc8/v2.30/pic/sources/c99/common/strlen.c"
 10218 ;; Parameters:    Size  Location     Type
 10219 ;;  s               2    0[COMRAM] PTR const unsigned char 
 10220 ;;		 -> stoa@nuls(7), dbuf(32), ?_snprintf(2), 
 10221 ;; Auto vars:     Size  Location     Type
 10222 ;;  a               2    2[COMRAM] PTR const unsigned char 
 10223 ;;		 -> stoa@nuls(7), dbuf(32), ?_snprintf(2), 
 10224 ;; Return value:  Size  Location     Type
 10225 ;;                  2    0[COMRAM] unsigned int 
 10226 ;; Registers used:
 10227 ;;		wreg, fsr2l, fsr2h, status,2, status,0
 10228 ;; Tracked objects:
 10229 ;;		On entry : 0/0
 10230 ;;		On exit  : 0/0
 10231 ;;		Unchanged: 0/0
 10232 ;; Data sizes:     COMRAM   BANK0   BANK1   BANK2   BANK3   BANK4   BANK5   BANK6   BANK7   BANK8   BANK9  BANK10  BANK1
      +1  BANK12  BANK13  BANK14  BANK15
 10233 ;;      Params:         2       0       0       0       0       0       0       0       0       0       0       0       
      +0       0       0       0       0
 10234 ;;      Locals:         2       0       0       0       0       0       0       0       0       0       0       0       
      +0       0       0       0       0
 10235 ;;      Temps:          0       0       0       0       0       0       0       0       0       0       0       0       
      +0       0       0       0       0
 10236 ;;      Totals:         4       0       0       0       0       0       0       0       0       0       0       0       
      +0       0       0       0       0
 10237 ;;Total ram usage:        4 bytes
 10238 ;; Hardware stack levels used:    1
 10239 ;; This function calls:
 10240 ;;		Nothing
 10241 ;; This function is called by:
 10242 ;;		_pad
 10243 ;;		_stoa
 10244 ;; This function uses a non-reentrant model
 10245 ;;
 10246                           
 10247                           	psect	text36
 10248  004DDA                     __ptext36:
 10249                           	callstack 0
 10250  004DDA                     _strlen:
 10251                           	callstack 18
 10252  004DDA  C001  F003         	movff	strlen@s,strlen@a
 10253  004DDE  C002  F004         	movff	strlen@s+1,strlen@a+1
 10254  004DE2  EFF5  F026         	goto	i2l3104
 10255  004DE6                     i2l3102:
 10256  004DE6  4A01               	infsnz	strlen@s^0,f,c
 10257  004DE8  2A02               	incf	(strlen@s+1)^0,f,c
 10258  004DEA                     i2l3104:
 10259  004DEA  C001  FFD9         	movff	strlen@s,fsr2l
 10260  004DEE  C002  FFDA         	movff	strlen@s+1,fsr2h
 10261  004DF2  50DF               	movf	indf2,w,c
 10262  004DF4  A4D8               	btfss	status,2,c
 10263  004DF6  EFFF  F026         	goto	i2u292_41
 10264  004DFA  EF01  F027         	goto	i2u292_40
 10265  004DFE                     i2u292_41:
 10266  004DFE  EFF3  F026         	goto	i2l3102
 10267  004E02                     i2u292_40:
 10268  004E02  5003               	movf	strlen@a^0,w,c
 10269  004E04  5C01               	subwf	strlen@s^0,w,c
 10270  004E06  6E01               	movwf	?_strlen^0,c
 10271  004E08  5004               	movf	(strlen@a+1)^0,w,c
 10272  004E0A  5802               	subwfb	(strlen@s+1)^0,w,c
 10273  004E0C  6E02               	movwf	(?_strlen+1)^0,c
 10274  004E0E  0012               	return		;funcret
 10275  004E10                     __end_of_strlen:
 10276                           	callstack 0
 10277                           
 10278 ;; *************** function _fputs *****************
 10279 ;; Defined at:
 10280 ;;		line 8 in file "/opt/microchip/xc8/v2.30/pic/sources/c99/common/nf_fputs.c"
 10281 ;; Parameters:    Size  Location     Type
 10282 ;;  s               2    9[COMRAM] PTR const unsigned char 
 10283 ;;		 -> dbuf(32), 
 10284 ;;  fp              2   11[COMRAM] PTR struct _IO_FILE
 10285 ;;		 -> vsnprintf@f(6), 
 10286 ;; Auto vars:     Size  Location     Type
 10287 ;;  i               2   14[COMRAM] int 
 10288 ;;  c               1   13[COMRAM] unsigned char 
 10289 ;; Return value:  Size  Location     Type
 10290 ;;                  2    9[COMRAM] int 
 10291 ;; Registers used:
 10292 ;;		wreg, fsr1l, fsr1h, fsr2l, fsr2h, status,2, status,0, cstack
 10293 ;; Tracked objects:
 10294 ;;		On entry : 0/0
 10295 ;;		On exit  : 0/0
 10296 ;;		Unchanged: 0/0
 10297 ;; Data sizes:     COMRAM   BANK0   BANK1   BANK2   BANK3   BANK4   BANK5   BANK6   BANK7   BANK8   BANK9  BANK10  BANK1
      +1  BANK12  BANK13  BANK14  BANK15
 10298 ;;      Params:         4       0       0       0       0       0       0       0       0       0       0       0       
      +0       0       0       0       0
 10299 ;;      Locals:         3       0       0       0       0       0       0       0       0       0       0       0       
      +0       0       0       0       0
 10300 ;;      Temps:          0       0       0       0       0       0       0       0       0       0       0       0       
      +0       0       0       0       0
 10301 ;;      Totals:         7       0       0       0       0       0       0       0       0       0       0       0       
      +0       0       0       0       0
 10302 ;;Total ram usage:        7 bytes
 10303 ;; Hardware stack levels used:    1
 10304 ;; Hardware stack levels required when called:    2
 10305 ;; This function calls:
 10306 ;;		_fputc
 10307 ;; This function is called by:
 10308 ;;		_pad
 10309 ;; This function uses a non-reentrant model
 10310 ;;
 10311                           
 10312                           	psect	text37
 10313  004BF8                     __ptext37:
 10314                           	callstack 0
 10315  004BF8                     _fputs:
 10316                           	callstack 16
 10317  004BF8  0E00               	movlw	0
 10318  004BFA  6E10               	movwf	(fputs@i+1)^0,c
 10319  004BFC  0E00               	movlw	0
 10320  004BFE  6E0F               	movwf	fputs@i^0,c
 10321  004C00  EF0D  F026         	goto	i2l3098
 10322  004C04                     i2l3094:
 10323  004C04  C00E  F001         	movff	fputs@c,fputc@c
 10324  004C08  6A02               	clrf	(fputc@c+1)^0,c
 10325  004C0A  C00C  F003         	movff	fputs@fp,fputc@fp
 10326  004C0E  C00D  F004         	movff	fputs@fp+1,fputc@fp+1
 10327  004C12  ECA5  F021         	call	_fputc	;wreg free
 10328  004C16  4A0F               	infsnz	fputs@i^0,f,c
 10329  004C18  2A10               	incf	(fputs@i+1)^0,f,c
 10330  004C1A                     i2l3098:
 10331  004C1A  500F               	movf	fputs@i^0,w,c
 10332  004C1C  240A               	addwf	fputs@s^0,w,c
 10333  004C1E  6ED9               	movwf	fsr2l,c
 10334  004C20  5010               	movf	(fputs@i+1)^0,w,c
 10335  004C22  200B               	addwfc	(fputs@s+1)^0,w,c
 10336  004C24  6EDA               	movwf	fsr2h,c
 10337  004C26  50DF               	movf	indf2,w,c
 10338  004C28  6E0E               	movwf	fputs@c^0,c
 10339  004C2A  500E               	movf	fputs@c^0,w,c
 10340  004C2C  A4D8               	btfss	status,2,c
 10341  004C2E  EF1B  F026         	goto	i2u291_41
 10342  004C32  EF1D  F026         	goto	i2u291_40
 10343  004C36                     i2u291_41:
 10344  004C36  EF02  F026         	goto	i2l3094
 10345  004C3A                     i2u291_40:
 10346  004C3A  0012               	return		;funcret
 10347  004C3C                     __end_of_fputs:
 10348                           	callstack 0
 10349                           
 10350 ;; *************** function _abs *****************
 10351 ;; Defined at:
 10352 ;;		line 1 in file "/opt/microchip/xc8/v2.30/pic/sources/c99/common/abs.c"
 10353 ;; Parameters:    Size  Location     Type
 10354 ;;  a               2   18[COMRAM] int 
 10355 ;; Auto vars:     Size  Location     Type
 10356 ;;		None
 10357 ;; Return value:  Size  Location     Type
 10358 ;;                  2   18[COMRAM] int 
 10359 ;; Registers used:
 10360 ;;		wreg, status,2, status,0
 10361 ;; Tracked objects:
 10362 ;;		On entry : 0/0
 10363 ;;		On exit  : 0/0
 10364 ;;		Unchanged: 0/0
 10365 ;; Data sizes:     COMRAM   BANK0   BANK1   BANK2   BANK3   BANK4   BANK5   BANK6   BANK7   BANK8   BANK9  BANK10  BANK1
      +1  BANK12  BANK13  BANK14  BANK15
 10366 ;;      Params:         2       0       0       0       0       0       0       0       0       0       0       0       
      +0       0       0       0       0
 10367 ;;      Locals:         0       0       0       0       0       0       0       0       0       0       0       0       
      +0       0       0       0       0
 10368 ;;      Temps:          2       0       0       0       0       0       0       0       0       0       0       0       
      +0       0       0       0       0
 10369 ;;      Totals:         4       0       0       0       0       0       0       0       0       0       0       0       
      +0       0       0       0       0
 10370 ;;Total ram usage:        4 bytes
 10371 ;; Hardware stack levels used:    1
 10372 ;; This function calls:
 10373 ;;		Nothing
 10374 ;; This function is called by:
 10375 ;;		_dtoa
 10376 ;; This function uses a non-reentrant model
 10377 ;;
 10378                           
 10379                           	psect	text38
 10380  004C3C                     __ptext38:
 10381                           	callstack 0
 10382  004C3C                     _abs:
 10383                           	callstack 19
 10384  004C3C  BE14               	btfsc	(abs@a+1)^0,7,c
 10385  004C3E  EF2B  F026         	goto	i2u319_40
 10386  004C42  5014               	movf	(abs@a+1)^0,w,c
 10387  004C44  E106               	bnz	i2u319_41
 10388  004C46  0413               	decf	abs@a^0,w,c
 10389  004C48  B0D8               	btfsc	status,0,c
 10390  004C4A  EF29  F026         	goto	i2u319_41
 10391  004C4E  EF2B  F026         	goto	i2u319_40
 10392  004C52                     i2u319_41:
 10393  004C52  EF39  F026         	goto	i2l1281
 10394  004C56                     i2u319_40:
 10395  004C56  C013  F015         	movff	abs@a,??_abs
 10396  004C5A  C014  F016         	movff	abs@a+1,??_abs+1
 10397  004C5E  1E15               	comf	??_abs^0,f,c
 10398  004C60  1E16               	comf	(??_abs+1)^0,f,c
 10399  004C62  4A15               	infsnz	??_abs^0,f,c
 10400  004C64  2A16               	incf	(??_abs+1)^0,f,c
 10401  004C66  C015  F013         	movff	??_abs,?_abs
 10402  004C6A  C016  F014         	movff	??_abs+1,?_abs+1
 10403  004C6E  EF3D  F026         	goto	i2l1284
 10404  004C72                     i2l1281:
 10405  004C72  C013  F013         	movff	abs@a,?_abs
 10406  004C76  C014  F014         	movff	abs@a+1,?_abs+1
 10407  004C7A                     i2l1284:
 10408  004C7A  0012               	return		;funcret
 10409  004C7C                     __end_of_abs:
 10410                           	callstack 0
 10411                           
 10412 ;; *************** function ___aomod *****************
 10413 ;; Defined at:
 10414 ;;		line 9 in file "/opt/microchip/xc8/v2.30/pic/sources/c99/common/aomod.c"
 10415 ;; Parameters:    Size  Location     Type
 10416 ;;  dividend        8    0[COMRAM] long long 
 10417 ;;  divisor         8    8[COMRAM] long long 
 10418 ;; Auto vars:     Size  Location     Type
 10419 ;;  sign            1   17[COMRAM] unsigned char 
 10420 ;;  counter         1   16[COMRAM] unsigned char 
 10421 ;; Return value:  Size  Location     Type
 10422 ;;                  8    0[COMRAM] long long 
 10423 ;; Registers used:
 10424 ;;		wreg, status,2, status,0
 10425 ;; Tracked objects:
 10426 ;;		On entry : 0/0
 10427 ;;		On exit  : 0/0
 10428 ;;		Unchanged: 0/0
 10429 ;; Data sizes:     COMRAM   BANK0   BANK1   BANK2   BANK3   BANK4   BANK5   BANK6   BANK7   BANK8   BANK9  BANK10  BANK1
      +1  BANK12  BANK13  BANK14  BANK15
 10430 ;;      Params:        16       0       0       0       0       0       0       0       0       0       0       0       
      +0       0       0       0       0
 10431 ;;      Locals:         2       0       0       0       0       0       0       0       0       0       0       0       
      +0       0       0       0       0
 10432 ;;      Temps:          0       0       0       0       0       0       0       0       0       0       0       0       
      +0       0       0       0       0
 10433 ;;      Totals:        18       0       0       0       0       0       0       0       0       0       0       0       
      +0       0       0       0       0
 10434 ;;Total ram usage:       18 bytes
 10435 ;; Hardware stack levels used:    1
 10436 ;; This function calls:
 10437 ;;		Nothing
 10438 ;; This function is called by:
 10439 ;;		_dtoa
 10440 ;; This function uses a non-reentrant model
 10441 ;;
 10442                           
 10443                           	psect	text39
 10444  003A62                     __ptext39:
 10445                           	callstack 0
 10446  003A62                     ___aomod:
 10447                           	callstack 19
 10448  003A62  0E00               	movlw	0
 10449  003A64  6E12               	movwf	___aomod@sign^0,c
 10450  003A66  BE08               	btfsc	(___aomod@dividend+7)^0,7,c
 10451  003A68  EF3A  F01D         	goto	i2u302_40
 10452  003A6C  EF38  F01D         	goto	i2u302_41
 10453  003A70                     i2u302_41:
 10454  003A70  EF4C  F01D         	goto	i2l3172
 10455  003A74                     i2u302_40:
 10456  003A74  1E08               	comf	(___aomod@dividend+7)^0,f,c
 10457  003A76  1E07               	comf	(___aomod@dividend+6)^0,f,c
 10458  003A78  1E06               	comf	(___aomod@dividend+5)^0,f,c
 10459  003A7A  1E05               	comf	(___aomod@dividend+4)^0,f,c
 10460  003A7C  1E04               	comf	(___aomod@dividend+3)^0,f,c
 10461  003A7E  1E03               	comf	(___aomod@dividend+2)^0,f,c
 10462  003A80  1E02               	comf	(___aomod@dividend+1)^0,f,c
 10463  003A82  6C01               	negf	___aomod@dividend^0,c
 10464  003A84  0E00               	movlw	0
 10465  003A86  2202               	addwfc	(___aomod@dividend+1)^0,f,c
 10466  003A88  2203               	addwfc	(___aomod@dividend+2)^0,f,c
 10467  003A8A  2204               	addwfc	(___aomod@dividend+3)^0,f,c
 10468  003A8C  2205               	addwfc	(___aomod@dividend+4)^0,f,c
 10469  003A8E  2206               	addwfc	(___aomod@dividend+5)^0,f,c
 10470  003A90  2207               	addwfc	(___aomod@dividend+6)^0,f,c
 10471  003A92  2208               	addwfc	(___aomod@dividend+7)^0,f,c
 10472  003A94  0E01               	movlw	1
 10473  003A96  6E12               	movwf	___aomod@sign^0,c
 10474  003A98                     i2l3172:
 10475  003A98  BE10               	btfsc	(___aomod@divisor+7)^0,7,c
 10476  003A9A  EF53  F01D         	goto	i2u303_40
 10477  003A9E  EF51  F01D         	goto	i2u303_41
 10478  003AA2                     i2u303_41:
 10479  003AA2  EF63  F01D         	goto	i2l3176
 10480  003AA6                     i2u303_40:
 10481  003AA6  1E10               	comf	(___aomod@divisor+7)^0,f,c
 10482  003AA8  1E0F               	comf	(___aomod@divisor+6)^0,f,c
 10483  003AAA  1E0E               	comf	(___aomod@divisor+5)^0,f,c
 10484  003AAC  1E0D               	comf	(___aomod@divisor+4)^0,f,c
 10485  003AAE  1E0C               	comf	(___aomod@divisor+3)^0,f,c
 10486  003AB0  1E0B               	comf	(___aomod@divisor+2)^0,f,c
 10487  003AB2  1E0A               	comf	(___aomod@divisor+1)^0,f,c
 10488  003AB4  6C09               	negf	___aomod@divisor^0,c
 10489  003AB6  0E00               	movlw	0
 10490  003AB8  220A               	addwfc	(___aomod@divisor+1)^0,f,c
 10491  003ABA  220B               	addwfc	(___aomod@divisor+2)^0,f,c
 10492  003ABC  220C               	addwfc	(___aomod@divisor+3)^0,f,c
 10493  003ABE  220D               	addwfc	(___aomod@divisor+4)^0,f,c
 10494  003AC0  220E               	addwfc	(___aomod@divisor+5)^0,f,c
 10495  003AC2  220F               	addwfc	(___aomod@divisor+6)^0,f,c
 10496  003AC4  2210               	addwfc	(___aomod@divisor+7)^0,f,c
 10497  003AC6                     i2l3176:
 10498  003AC6  5009               	movf	___aomod@divisor^0,w,c
 10499  003AC8  100A               	iorwf	(___aomod@divisor+1)^0,w,c
 10500  003ACA  100B               	iorwf	(___aomod@divisor+2)^0,w,c
 10501  003ACC  100C               	iorwf	(___aomod@divisor+3)^0,w,c
 10502  003ACE  100D               	iorwf	(___aomod@divisor+4)^0,w,c
 10503  003AD0  100E               	iorwf	(___aomod@divisor+5)^0,w,c
 10504  003AD2  100F               	iorwf	(___aomod@divisor+6)^0,w,c
 10505  003AD4  1010               	iorwf	(___aomod@divisor+7)^0,w,c
 10506  003AD6  B4D8               	btfsc	status,2,c
 10507  003AD8  EF70  F01D         	goto	i2u304_41
 10508  003ADC  EF72  F01D         	goto	i2u304_40
 10509  003AE0                     i2u304_41:
 10510  003AE0  EFBA  F01D         	goto	i2l3192
 10511  003AE4                     i2u304_40:
 10512  003AE4  0E01               	movlw	1
 10513  003AE6  6E11               	movwf	___aomod@counter^0,c
 10514  003AE8  EF80  F01D         	goto	i2l3182
 10515  003AEC                     i2l3180:
 10516  003AEC  90D8               	bcf	status,0,c
 10517  003AEE  3609               	rlcf	___aomod@divisor^0,f,c
 10518  003AF0  360A               	rlcf	(___aomod@divisor+1)^0,f,c
 10519  003AF2  360B               	rlcf	(___aomod@divisor+2)^0,f,c
 10520  003AF4  360C               	rlcf	(___aomod@divisor+3)^0,f,c
 10521  003AF6  360D               	rlcf	(___aomod@divisor+4)^0,f,c
 10522  003AF8  360E               	rlcf	(___aomod@divisor+5)^0,f,c
 10523  003AFA  360F               	rlcf	(___aomod@divisor+6)^0,f,c
 10524  003AFC  3610               	rlcf	(___aomod@divisor+7)^0,f,c
 10525  003AFE  2A11               	incf	___aomod@counter^0,f,c
 10526  003B00                     i2l3182:
 10527  003B00  AE10               	btfss	(___aomod@divisor+7)^0,7,c
 10528  003B02  EF85  F01D         	goto	i2u305_41
 10529  003B06  EF87  F01D         	goto	i2u305_40
 10530  003B0A                     i2u305_41:
 10531  003B0A  EF76  F01D         	goto	i2l3180
 10532  003B0E                     i2u305_40:
 10533  003B0E                     i2l3184:
 10534  003B0E  5009               	movf	___aomod@divisor^0,w,c
 10535  003B10  5C01               	subwf	___aomod@dividend^0,w,c
 10536  003B12  500A               	movf	(___aomod@divisor+1)^0,w,c
 10537  003B14  5802               	subwfb	(___aomod@dividend+1)^0,w,c
 10538  003B16  500B               	movf	(___aomod@divisor+2)^0,w,c
 10539  003B18  5803               	subwfb	(___aomod@dividend+2)^0,w,c
 10540  003B1A  500C               	movf	(___aomod@divisor+3)^0,w,c
 10541  003B1C  5804               	subwfb	(___aomod@dividend+3)^0,w,c
 10542  003B1E  500D               	movf	(___aomod@divisor+4)^0,w,c
 10543  003B20  5805               	subwfb	(___aomod@dividend+4)^0,w,c
 10544  003B22  500E               	movf	(___aomod@divisor+5)^0,w,c
 10545  003B24  5806               	subwfb	(___aomod@dividend+5)^0,w,c
 10546  003B26  500F               	movf	(___aomod@divisor+6)^0,w,c
 10547  003B28  5807               	subwfb	(___aomod@dividend+6)^0,w,c
 10548  003B2A  5010               	movf	(___aomod@divisor+7)^0,w,c
 10549  003B2C  5808               	subwfb	(___aomod@dividend+7)^0,w,c
 10550  003B2E  A0D8               	btfss	status,0,c
 10551  003B30  EF9C  F01D         	goto	i2u306_41
 10552  003B34  EF9E  F01D         	goto	i2u306_40
 10553  003B38                     i2u306_41:
 10554  003B38  EFAE  F01D         	goto	i2l3188
 10555  003B3C                     i2u306_40:
 10556  003B3C  5009               	movf	___aomod@divisor^0,w,c
 10557  003B3E  5E01               	subwf	___aomod@dividend^0,f,c
 10558  003B40  500A               	movf	(___aomod@divisor+1)^0,w,c
 10559  003B42  5A02               	subwfb	(___aomod@dividend+1)^0,f,c
 10560  003B44  500B               	movf	(___aomod@divisor+2)^0,w,c
 10561  003B46  5A03               	subwfb	(___aomod@dividend+2)^0,f,c
 10562  003B48  500C               	movf	(___aomod@divisor+3)^0,w,c
 10563  003B4A  5A04               	subwfb	(___aomod@dividend+3)^0,f,c
 10564  003B4C  500D               	movf	(___aomod@divisor+4)^0,w,c
 10565  003B4E  5A05               	subwfb	(___aomod@dividend+4)^0,f,c
 10566  003B50  500E               	movf	(___aomod@divisor+5)^0,w,c
 10567  003B52  5A06               	subwfb	(___aomod@dividend+5)^0,f,c
 10568  003B54  500F               	movf	(___aomod@divisor+6)^0,w,c
 10569  003B56  5A07               	subwfb	(___aomod@dividend+6)^0,f,c
 10570  003B58  5010               	movf	(___aomod@divisor+7)^0,w,c
 10571  003B5A  5A08               	subwfb	(___aomod@dividend+7)^0,f,c
 10572  003B5C                     i2l3188:
 10573  003B5C  90D8               	bcf	status,0,c
 10574  003B5E  3210               	rrcf	(___aomod@divisor+7)^0,f,c
 10575  003B60  320F               	rrcf	(___aomod@divisor+6)^0,f,c
 10576  003B62  320E               	rrcf	(___aomod@divisor+5)^0,f,c
 10577  003B64  320D               	rrcf	(___aomod@divisor+4)^0,f,c
 10578  003B66  320C               	rrcf	(___aomod@divisor+3)^0,f,c
 10579  003B68  320B               	rrcf	(___aomod@divisor+2)^0,f,c
 10580  003B6A  320A               	rrcf	(___aomod@divisor+1)^0,f,c
 10581  003B6C  3209               	rrcf	___aomod@divisor^0,f,c
 10582  003B6E  2E11               	decfsz	___aomod@counter^0,f,c
 10583  003B70  EF87  F01D         	goto	i2l3184
 10584  003B74                     i2l3192:
 10585  003B74  5012               	movf	___aomod@sign^0,w,c
 10586  003B76  B4D8               	btfsc	status,2,c
 10587  003B78  EFC0  F01D         	goto	i2u307_41
 10588  003B7C  EFC2  F01D         	goto	i2u307_40
 10589  003B80                     i2u307_41:
 10590  003B80  EFD2  F01D         	goto	i2l3196
 10591  003B84                     i2u307_40:
 10592  003B84  1E08               	comf	(___aomod@dividend+7)^0,f,c
 10593  003B86  1E07               	comf	(___aomod@dividend+6)^0,f,c
 10594  003B88  1E06               	comf	(___aomod@dividend+5)^0,f,c
 10595  003B8A  1E05               	comf	(___aomod@dividend+4)^0,f,c
 10596  003B8C  1E04               	comf	(___aomod@dividend+3)^0,f,c
 10597  003B8E  1E03               	comf	(___aomod@dividend+2)^0,f,c
 10598  003B90  1E02               	comf	(___aomod@dividend+1)^0,f,c
 10599  003B92  6C01               	negf	___aomod@dividend^0,c
 10600  003B94  0E00               	movlw	0
 10601  003B96  2202               	addwfc	(___aomod@dividend+1)^0,f,c
 10602  003B98  2203               	addwfc	(___aomod@dividend+2)^0,f,c
 10603  003B9A  2204               	addwfc	(___aomod@dividend+3)^0,f,c
 10604  003B9C  2205               	addwfc	(___aomod@dividend+4)^0,f,c
 10605  003B9E  2206               	addwfc	(___aomod@dividend+5)^0,f,c
 10606  003BA0  2207               	addwfc	(___aomod@dividend+6)^0,f,c
 10607  003BA2  2208               	addwfc	(___aomod@dividend+7)^0,f,c
 10608  003BA4                     i2l3196:
 10609  003BA4  C001  F001         	movff	___aomod@dividend,?___aomod
 10610  003BA8  C002  F002         	movff	___aomod@dividend+1,?___aomod+1
 10611  003BAC  C003  F003         	movff	___aomod@dividend+2,?___aomod+2
 10612  003BB0  C004  F004         	movff	___aomod@dividend+3,?___aomod+3
 10613  003BB4  C005  F005         	movff	___aomod@dividend+4,?___aomod+4
 10614  003BB8  C006  F006         	movff	___aomod@dividend+5,?___aomod+5
 10615  003BBC  C007  F007         	movff	___aomod@dividend+6,?___aomod+6
 10616  003BC0  C008  F008         	movff	___aomod@dividend+7,?___aomod+7
 10617  003BC4  0012               	return		;funcret
 10618  003BC6                     __end_of___aomod:
 10619                           	callstack 0
 10620                           
 10621 ;; *************** function ___aodiv *****************
 10622 ;; Defined at:
 10623 ;;		line 9 in file "/opt/microchip/xc8/v2.30/pic/sources/c99/common/aodiv.c"
 10624 ;; Parameters:    Size  Location     Type
 10625 ;;  dividend        8    0[COMRAM] long long 
 10626 ;;  divisor         8    8[COMRAM] long long 
 10627 ;; Auto vars:     Size  Location     Type
 10628 ;;  quotient        8   18[COMRAM] long long 
 10629 ;;  sign            1   17[COMRAM] unsigned char 
 10630 ;;  counter         1   16[COMRAM] unsigned char 
 10631 ;; Return value:  Size  Location     Type
 10632 ;;                  8    0[COMRAM] long long 
 10633 ;; Registers used:
 10634 ;;		wreg, fsr2l, fsr2h, status,2, status,0
 10635 ;; Tracked objects:
 10636 ;;		On entry : 0/0
 10637 ;;		On exit  : 0/0
 10638 ;;		Unchanged: 0/0
 10639 ;; Data sizes:     COMRAM   BANK0   BANK1   BANK2   BANK3   BANK4   BANK5   BANK6   BANK7   BANK8   BANK9  BANK10  BANK1
      +1  BANK12  BANK13  BANK14  BANK15
 10640 ;;      Params:        16       0       0       0       0       0       0       0       0       0       0       0       
      +0       0       0       0       0
 10641 ;;      Locals:        10       0       0       0       0       0       0       0       0       0       0       0       
      +0       0       0       0       0
 10642 ;;      Temps:          0       0       0       0       0       0       0       0       0       0       0       0       
      +0       0       0       0       0
 10643 ;;      Totals:        26       0       0       0       0       0       0       0       0       0       0       0       
      +0       0       0       0       0
 10644 ;;Total ram usage:       26 bytes
 10645 ;; Hardware stack levels used:    1
 10646 ;; This function calls:
 10647 ;;		Nothing
 10648 ;; This function is called by:
 10649 ;;		_dtoa
 10650 ;; This function uses a non-reentrant model
 10651 ;;
 10652                           
 10653                           	psect	text40
 10654  003754                     __ptext40:
 10655                           	callstack 0
 10656  003754                     ___aodiv:
 10657                           	callstack 19
 10658  003754  0E00               	movlw	0
 10659  003756  6E12               	movwf	___aodiv@sign^0,c
 10660  003758  BE10               	btfsc	(___aodiv@divisor+7)^0,7,c
 10661  00375A  EFB3  F01B         	goto	i2u295_40
 10662  00375E  EFB1  F01B         	goto	i2u295_41
 10663  003762                     i2u295_41:
 10664  003762  EFC5  F01B         	goto	i2l3128
 10665  003766                     i2u295_40:
 10666  003766  1E10               	comf	(___aodiv@divisor+7)^0,f,c
 10667  003768  1E0F               	comf	(___aodiv@divisor+6)^0,f,c
 10668  00376A  1E0E               	comf	(___aodiv@divisor+5)^0,f,c
 10669  00376C  1E0D               	comf	(___aodiv@divisor+4)^0,f,c
 10670  00376E  1E0C               	comf	(___aodiv@divisor+3)^0,f,c
 10671  003770  1E0B               	comf	(___aodiv@divisor+2)^0,f,c
 10672  003772  1E0A               	comf	(___aodiv@divisor+1)^0,f,c
 10673  003774  6C09               	negf	___aodiv@divisor^0,c
 10674  003776  0E00               	movlw	0
 10675  003778  220A               	addwfc	(___aodiv@divisor+1)^0,f,c
 10676  00377A  220B               	addwfc	(___aodiv@divisor+2)^0,f,c
 10677  00377C  220C               	addwfc	(___aodiv@divisor+3)^0,f,c
 10678  00377E  220D               	addwfc	(___aodiv@divisor+4)^0,f,c
 10679  003780  220E               	addwfc	(___aodiv@divisor+5)^0,f,c
 10680  003782  220F               	addwfc	(___aodiv@divisor+6)^0,f,c
 10681  003784  2210               	addwfc	(___aodiv@divisor+7)^0,f,c
 10682  003786  0E01               	movlw	1
 10683  003788  6E12               	movwf	___aodiv@sign^0,c
 10684  00378A                     i2l3128:
 10685  00378A  BE08               	btfsc	(___aodiv@dividend+7)^0,7,c
 10686  00378C  EFCC  F01B         	goto	i2u296_40
 10687  003790  EFCA  F01B         	goto	i2u296_41
 10688  003794                     i2u296_41:
 10689  003794  EFDE  F01B         	goto	i2l3134
 10690  003798                     i2u296_40:
 10691  003798  1E08               	comf	(___aodiv@dividend+7)^0,f,c
 10692  00379A  1E07               	comf	(___aodiv@dividend+6)^0,f,c
 10693  00379C  1E06               	comf	(___aodiv@dividend+5)^0,f,c
 10694  00379E  1E05               	comf	(___aodiv@dividend+4)^0,f,c
 10695  0037A0  1E04               	comf	(___aodiv@dividend+3)^0,f,c
 10696  0037A2  1E03               	comf	(___aodiv@dividend+2)^0,f,c
 10697  0037A4  1E02               	comf	(___aodiv@dividend+1)^0,f,c
 10698  0037A6  6C01               	negf	___aodiv@dividend^0,c
 10699  0037A8  0E00               	movlw	0
 10700  0037AA  2202               	addwfc	(___aodiv@dividend+1)^0,f,c
 10701  0037AC  2203               	addwfc	(___aodiv@dividend+2)^0,f,c
 10702  0037AE  2204               	addwfc	(___aodiv@dividend+3)^0,f,c
 10703  0037B0  2205               	addwfc	(___aodiv@dividend+4)^0,f,c
 10704  0037B2  2206               	addwfc	(___aodiv@dividend+5)^0,f,c
 10705  0037B4  2207               	addwfc	(___aodiv@dividend+6)^0,f,c
 10706  0037B6  2208               	addwfc	(___aodiv@dividend+7)^0,f,c
 10707  0037B8  0E01               	movlw	1
 10708  0037BA  1A12               	xorwf	___aodiv@sign^0,f,c
 10709  0037BC                     i2l3134:
 10710  0037BC  EE20  F013         	lfsr	2,___aodiv@quotient
 10711  0037C0  0E07               	movlw	7
 10712  0037C2                     i2u297_41:
 10713  0037C2  6ADE               	clrf	postinc2,c
 10714  0037C4  06E8               	decf	wreg,f,c
 10715  0037C6  E2FD               	bc	i2u297_41
 10716  0037C8  5009               	movf	___aodiv@divisor^0,w,c
 10717  0037CA  100A               	iorwf	(___aodiv@divisor+1)^0,w,c
 10718  0037CC  100B               	iorwf	(___aodiv@divisor+2)^0,w,c
 10719  0037CE  100C               	iorwf	(___aodiv@divisor+3)^0,w,c
 10720  0037D0  100D               	iorwf	(___aodiv@divisor+4)^0,w,c
 10721  0037D2  100E               	iorwf	(___aodiv@divisor+5)^0,w,c
 10722  0037D4  100F               	iorwf	(___aodiv@divisor+6)^0,w,c
 10723  0037D6  1010               	iorwf	(___aodiv@divisor+7)^0,w,c
 10724  0037D8  B4D8               	btfsc	status,2,c
 10725  0037DA  EFF1  F01B         	goto	i2u298_41
 10726  0037DE  EFF3  F01B         	goto	i2u298_40
 10727  0037E2                     i2u298_41:
 10728  0037E2  EF45  F01C         	goto	i2l3156
 10729  0037E6                     i2u298_40:
 10730  0037E6  0E01               	movlw	1
 10731  0037E8  6E11               	movwf	___aodiv@counter^0,c
 10732  0037EA  EF01  F01C         	goto	i2l3142
 10733  0037EE                     i2l3140:
 10734  0037EE  90D8               	bcf	status,0,c
 10735  0037F0  3609               	rlcf	___aodiv@divisor^0,f,c
 10736  0037F2  360A               	rlcf	(___aodiv@divisor+1)^0,f,c
 10737  0037F4  360B               	rlcf	(___aodiv@divisor+2)^0,f,c
 10738  0037F6  360C               	rlcf	(___aodiv@divisor+3)^0,f,c
 10739  0037F8  360D               	rlcf	(___aodiv@divisor+4)^0,f,c
 10740  0037FA  360E               	rlcf	(___aodiv@divisor+5)^0,f,c
 10741  0037FC  360F               	rlcf	(___aodiv@divisor+6)^0,f,c
 10742  0037FE  3610               	rlcf	(___aodiv@divisor+7)^0,f,c
 10743  003800  2A11               	incf	___aodiv@counter^0,f,c
 10744  003802                     i2l3142:
 10745  003802  AE10               	btfss	(___aodiv@divisor+7)^0,7,c
 10746  003804  EF06  F01C         	goto	i2u299_41
 10747  003808  EF08  F01C         	goto	i2u299_40
 10748  00380C                     i2u299_41:
 10749  00380C  EFF7  F01B         	goto	i2l3140
 10750  003810                     i2u299_40:
 10751  003810                     i2l3144:
 10752  003810  90D8               	bcf	status,0,c
 10753  003812  3613               	rlcf	___aodiv@quotient^0,f,c
 10754  003814  3614               	rlcf	(___aodiv@quotient+1)^0,f,c
 10755  003816  3615               	rlcf	(___aodiv@quotient+2)^0,f,c
 10756  003818  3616               	rlcf	(___aodiv@quotient+3)^0,f,c
 10757  00381A  3617               	rlcf	(___aodiv@quotient+4)^0,f,c
 10758  00381C  3618               	rlcf	(___aodiv@quotient+5)^0,f,c
 10759  00381E  3619               	rlcf	(___aodiv@quotient+6)^0,f,c
 10760  003820  361A               	rlcf	(___aodiv@quotient+7)^0,f,c
 10761  003822  5009               	movf	___aodiv@divisor^0,w,c
 10762  003824  5C01               	subwf	___aodiv@dividend^0,w,c
 10763  003826  500A               	movf	(___aodiv@divisor+1)^0,w,c
 10764  003828  5802               	subwfb	(___aodiv@dividend+1)^0,w,c
 10765  00382A  500B               	movf	(___aodiv@divisor+2)^0,w,c
 10766  00382C  5803               	subwfb	(___aodiv@dividend+2)^0,w,c
 10767  00382E  500C               	movf	(___aodiv@divisor+3)^0,w,c
 10768  003830  5804               	subwfb	(___aodiv@dividend+3)^0,w,c
 10769  003832  500D               	movf	(___aodiv@divisor+4)^0,w,c
 10770  003834  5805               	subwfb	(___aodiv@dividend+4)^0,w,c
 10771  003836  500E               	movf	(___aodiv@divisor+5)^0,w,c
 10772  003838  5806               	subwfb	(___aodiv@dividend+5)^0,w,c
 10773  00383A  500F               	movf	(___aodiv@divisor+6)^0,w,c
 10774  00383C  5807               	subwfb	(___aodiv@dividend+6)^0,w,c
 10775  00383E  5010               	movf	(___aodiv@divisor+7)^0,w,c
 10776  003840  5808               	subwfb	(___aodiv@dividend+7)^0,w,c
 10777  003842  A0D8               	btfss	status,0,c
 10778  003844  EF26  F01C         	goto	i2u300_41
 10779  003848  EF28  F01C         	goto	i2u300_40
 10780  00384C                     i2u300_41:
 10781  00384C  EF39  F01C         	goto	i2l3152
 10782  003850                     i2u300_40:
 10783  003850  5009               	movf	___aodiv@divisor^0,w,c
 10784  003852  5E01               	subwf	___aodiv@dividend^0,f,c
 10785  003854  500A               	movf	(___aodiv@divisor+1)^0,w,c
 10786  003856  5A02               	subwfb	(___aodiv@dividend+1)^0,f,c
 10787  003858  500B               	movf	(___aodiv@divisor+2)^0,w,c
 10788  00385A  5A03               	subwfb	(___aodiv@dividend+2)^0,f,c
 10789  00385C  500C               	movf	(___aodiv@divisor+3)^0,w,c
 10790  00385E  5A04               	subwfb	(___aodiv@dividend+3)^0,f,c
 10791  003860  500D               	movf	(___aodiv@divisor+4)^0,w,c
 10792  003862  5A05               	subwfb	(___aodiv@dividend+4)^0,f,c
 10793  003864  500E               	movf	(___aodiv@divisor+5)^0,w,c
 10794  003866  5A06               	subwfb	(___aodiv@dividend+5)^0,f,c
 10795  003868  500F               	movf	(___aodiv@divisor+6)^0,w,c
 10796  00386A  5A07               	subwfb	(___aodiv@dividend+6)^0,f,c
 10797  00386C  5010               	movf	(___aodiv@divisor+7)^0,w,c
 10798  00386E  5A08               	subwfb	(___aodiv@dividend+7)^0,f,c
 10799  003870  8013               	bsf	___aodiv@quotient^0,0,c
 10800  003872                     i2l3152:
 10801  003872  90D8               	bcf	status,0,c
 10802  003874  3210               	rrcf	(___aodiv@divisor+7)^0,f,c
 10803  003876  320F               	rrcf	(___aodiv@divisor+6)^0,f,c
 10804  003878  320E               	rrcf	(___aodiv@divisor+5)^0,f,c
 10805  00387A  320D               	rrcf	(___aodiv@divisor+4)^0,f,c
 10806  00387C  320C               	rrcf	(___aodiv@divisor+3)^0,f,c
 10807  00387E  320B               	rrcf	(___aodiv@divisor+2)^0,f,c
 10808  003880  320A               	rrcf	(___aodiv@divisor+1)^0,f,c
 10809  003882  3209               	rrcf	___aodiv@divisor^0,f,c
 10810  003884  2E11               	decfsz	___aodiv@counter^0,f,c
 10811  003886  EF08  F01C         	goto	i2l3144
 10812  00388A                     i2l3156:
 10813  00388A  5012               	movf	___aodiv@sign^0,w,c
 10814  00388C  B4D8               	btfsc	status,2,c
 10815  00388E  EF4B  F01C         	goto	i2u301_41
 10816  003892  EF4D  F01C         	goto	i2u301_40
 10817  003896                     i2u301_41:
 10818  003896  EF5D  F01C         	goto	i2l3160
 10819  00389A                     i2u301_40:
 10820  00389A  1E1A               	comf	(___aodiv@quotient+7)^0,f,c
 10821  00389C  1E19               	comf	(___aodiv@quotient+6)^0,f,c
 10822  00389E  1E18               	comf	(___aodiv@quotient+5)^0,f,c
 10823  0038A0  1E17               	comf	(___aodiv@quotient+4)^0,f,c
 10824  0038A2  1E16               	comf	(___aodiv@quotient+3)^0,f,c
 10825  0038A4  1E15               	comf	(___aodiv@quotient+2)^0,f,c
 10826  0038A6  1E14               	comf	(___aodiv@quotient+1)^0,f,c
 10827  0038A8  6C13               	negf	___aodiv@quotient^0,c
 10828  0038AA  0E00               	movlw	0
 10829  0038AC  2214               	addwfc	(___aodiv@quotient+1)^0,f,c
 10830  0038AE  2215               	addwfc	(___aodiv@quotient+2)^0,f,c
 10831  0038B0  2216               	addwfc	(___aodiv@quotient+3)^0,f,c
 10832  0038B2  2217               	addwfc	(___aodiv@quotient+4)^0,f,c
 10833  0038B4  2218               	addwfc	(___aodiv@quotient+5)^0,f,c
 10834  0038B6  2219               	addwfc	(___aodiv@quotient+6)^0,f,c
 10835  0038B8  221A               	addwfc	(___aodiv@quotient+7)^0,f,c
 10836  0038BA                     i2l3160:
 10837  0038BA  C013  F001         	movff	___aodiv@quotient,?___aodiv
 10838  0038BE  C014  F002         	movff	___aodiv@quotient+1,?___aodiv+1
 10839  0038C2  C015  F003         	movff	___aodiv@quotient+2,?___aodiv+2
 10840  0038C6  C016  F004         	movff	___aodiv@quotient+3,?___aodiv+3
 10841  0038CA  C017  F005         	movff	___aodiv@quotient+4,?___aodiv+4
 10842  0038CE  C018  F006         	movff	___aodiv@quotient+5,?___aodiv+5
 10843  0038D2  C019  F007         	movff	___aodiv@quotient+6,?___aodiv+6
 10844  0038D6  C01A  F008         	movff	___aodiv@quotient+7,?___aodiv+7
 10845  0038DA  0012               	return		;funcret
 10846  0038DC                     __end_of___aodiv:
 10847                           	callstack 0
 10848                           
 10849 ;; *************** function _ctoa *****************
 10850 ;; Defined at:
 10851 ;;		line 259 in file "/opt/microchip/xc8/v2.30/pic/sources/c99/common/doprnt.c"
 10852 ;; Parameters:    Size  Location     Type
 10853 ;;  fp              2    9[COMRAM] PTR struct _IO_FILE
 10854 ;;		 -> vsnprintf@f(6), 
 10855 ;;  c               1   11[COMRAM] unsigned char 
 10856 ;; Auto vars:     Size  Location     Type
 10857 ;;  w               2   15[COMRAM] int 
 10858 ;;  l               2   13[COMRAM] int 
 10859 ;; Return value:  Size  Location     Type
 10860 ;;                  2    9[COMRAM] int 
 10861 ;; Registers used:
 10862 ;;		wreg, fsr1l, fsr1h, fsr2l, fsr2h, status,2, status,0, cstack
 10863 ;; Tracked objects:
 10864 ;;		On entry : 0/0
 10865 ;;		On exit  : 0/0
 10866 ;;		Unchanged: 0/0
 10867 ;; Data sizes:     COMRAM   BANK0   BANK1   BANK2   BANK3   BANK4   BANK5   BANK6   BANK7   BANK8   BANK9  BANK10  BANK1
      +1  BANK12  BANK13  BANK14  BANK15
 10868 ;;      Params:         3       0       0       0       0       0       0       0       0       0       0       0       
      +0       0       0       0       0
 10869 ;;      Locals:         4       0       0       0       0       0       0       0       0       0       0       0       
      +0       0       0       0       0
 10870 ;;      Temps:          1       0       0       0       0       0       0       0       0       0       0       0       
      +0       0       0       0       0
 10871 ;;      Totals:         8       0       0       0       0       0       0       0       0       0       0       0       
      +0       0       0       0       0
 10872 ;;Total ram usage:        8 bytes
 10873 ;; Hardware stack levels used:    1
 10874 ;; Hardware stack levels required when called:    2
 10875 ;; This function calls:
 10876 ;;		_fputc
 10877 ;; This function is called by:
 10878 ;;		_vfpfcnvrt
 10879 ;; This function uses a non-reentrant model
 10880 ;;
 10881                           
 10882                           	psect	text41
 10883  0040D6                     __ptext41:
 10884                           	callstack 0
 10885  0040D6                     _ctoa:
 10886                           	callstack 18
 10887  0040D6                     
 10888                           ;/opt/microchip/xc8/v2.30/pic/sources/c99/common/doprnt.c: 259: static int ctoa(FILE *fp
      +                          , char c);/opt/microchip/xc8/v2.30/pic/sources/c99/common/doprnt.c: 260: {;/opt/microchi
      +                          p/xc8/v2.30/pic/sources/c99/common/doprnt.c: 261:     int l, w;;/opt/microchip/xc8/v2.30
      +                          /pic/sources/c99/common/doprnt.c: 264:     w = width ? width - 1 : width;
 10889  0040D6  0100               	movlb	0	; () banked
 10890  0040D8  51DE               	movf	_width& (0+255),w,b
 10891  0040DA  11DF               	iorwf	(_width+1)& (0+255),w,b
 10892  0040DC  A4D8               	btfss	status,2,c
 10893  0040DE  EF73  F020         	goto	i2u331_41
 10894  0040E2  EF75  F020         	goto	i2u331_40
 10895  0040E6                     i2u331_41:
 10896  0040E6  EF7B  F020         	goto	i2l3302
 10897  0040EA                     i2u331_40:
 10898  0040EA                     
 10899                           ; BSR set to: 0
 10900  0040EA  C0DE  F010         	movff	_width,ctoa@w
 10901  0040EE  C0DF  F011         	movff	_width+1,ctoa@w+1
 10902  0040F2  EF81  F020         	goto	i2l3304
 10903  0040F6                     i2l3302:
 10904                           
 10905                           ; BSR set to: 0
 10906  0040F6  0EFF               	movlw	255
 10907  0040F8  25DE               	addwf	_width& (0+255),w,b
 10908  0040FA  6E10               	movwf	ctoa@w^0,c
 10909  0040FC  0EFF               	movlw	255
 10910  0040FE  21DF               	addwfc	(_width+1)& (0+255),w,b
 10911  004100  6E11               	movwf	(ctoa@w+1)^0,c
 10912  004102                     i2l3304:
 10913                           
 10914                           ; BSR set to: 0
 10915                           ;/opt/microchip/xc8/v2.30/pic/sources/c99/common/doprnt.c: 267:     if (flags & (1 << 0)
      +                          ) {
 10916  004102  A1E2               	btfss	_flags& (0+255),0,b
 10917  004104  EF86  F020         	goto	i2u332_41
 10918  004108  EF88  F020         	goto	i2u332_40
 10919  00410C                     i2u332_41:
 10920  00410C  EF91  F020         	goto	i2l3308
 10921  004110                     i2u332_40:
 10922  004110                     
 10923                           ; BSR set to: 0
 10924                           ;/opt/microchip/xc8/v2.30/pic/sources/c99/common/doprnt.c: 268:         fputc(c, fp);
 10925  004110  C00C  F001         	movff	ctoa@c,fputc@c
 10926  004114  6A02               	clrf	(fputc@c+1)^0,c
 10927  004116  C00A  F003         	movff	ctoa@fp,fputc@fp
 10928  00411A  C00B  F004         	movff	ctoa@fp+1,fputc@fp+1
 10929  00411E  ECA5  F021         	call	_fputc	;wreg free
 10930  004122                     i2l3308:
 10931                           
 10932                           ;/opt/microchip/xc8/v2.30/pic/sources/c99/common/doprnt.c: 271:     w = (w < 0) ? 0 : w;
 10933  004122  BE11               	btfsc	(ctoa@w+1)^0,7,c
 10934  004124  EF96  F020         	goto	i2u333_41
 10935  004128  EF98  F020         	goto	i2u333_40
 10936  00412C                     i2u333_41:
 10937  00412C  EF9A  F020         	goto	i2l3312
 10938  004130                     i2u333_40:
 10939  004130  EF9E  F020         	goto	i2l1080
 10940  004134                     i2l3312:
 10941  004134  0E00               	movlw	0
 10942  004136  6E11               	movwf	(ctoa@w+1)^0,c
 10943  004138  0E00               	movlw	0
 10944  00413A  6E10               	movwf	ctoa@w^0,c
 10945  00413C                     i2l1080:
 10946                           
 10947                           ;/opt/microchip/xc8/v2.30/pic/sources/c99/common/doprnt.c: 272:     l = 0;
 10948  00413C  0E00               	movlw	0
 10949  00413E  6E0F               	movwf	(ctoa@l+1)^0,c
 10950  004140  0E00               	movlw	0
 10951  004142  6E0E               	movwf	ctoa@l^0,c
 10952                           
 10953                           ;/opt/microchip/xc8/v2.30/pic/sources/c99/common/doprnt.c: 273:     while (l < w) {
 10954  004144  EFB0  F020         	goto	i2l3318
 10955  004148                     i2l3314:
 10956                           
 10957                           ;/opt/microchip/xc8/v2.30/pic/sources/c99/common/doprnt.c: 274:         fputc(' ', fp);
 10958  004148  0E00               	movlw	0
 10959  00414A  6E02               	movwf	(fputc@c+1)^0,c
 10960  00414C  0E20               	movlw	32
 10961  00414E  6E01               	movwf	fputc@c^0,c
 10962  004150  C00A  F003         	movff	ctoa@fp,fputc@fp
 10963  004154  C00B  F004         	movff	ctoa@fp+1,fputc@fp+1
 10964  004158  ECA5  F021         	call	_fputc	;wreg free
 10965  00415C                     
 10966                           ;/opt/microchip/xc8/v2.30/pic/sources/c99/common/doprnt.c: 275:         ++l;
 10967  00415C  4A0E               	infsnz	ctoa@l^0,f,c
 10968  00415E  2A0F               	incf	(ctoa@l+1)^0,f,c
 10969  004160                     i2l3318:
 10970                           
 10971                           ;/opt/microchip/xc8/v2.30/pic/sources/c99/common/doprnt.c: 273:     while (l < w) {
 10972  004160  5010               	movf	ctoa@w^0,w,c
 10973  004162  5C0E               	subwf	ctoa@l^0,w,c
 10974  004164  500F               	movf	(ctoa@l+1)^0,w,c
 10975  004166  0A80               	xorlw	128
 10976  004168  6E0D               	movwf	??_ctoa^0,c
 10977  00416A  5011               	movf	(ctoa@w+1)^0,w,c
 10978  00416C  0A80               	xorlw	128
 10979  00416E  580D               	subwfb	??_ctoa^0,w,c
 10980  004170  A0D8               	btfss	status,0,c
 10981  004172  EFBD  F020         	goto	i2u334_41
 10982  004176  EFBF  F020         	goto	i2u334_40
 10983  00417A                     i2u334_41:
 10984  00417A  EFA4  F020         	goto	i2l3314
 10985  00417E                     i2u334_40:
 10986  00417E                     
 10987                           ;/opt/microchip/xc8/v2.30/pic/sources/c99/common/doprnt.c: 278:     if (!(flags & (1 << 
      +                          0))) {
 10988  00417E  0100               	movlb	0	; () banked
 10989  004180  B1E2               	btfsc	_flags& (0+255),0,b
 10990  004182  EFC5  F020         	goto	i2u335_41
 10991  004186  EFC7  F020         	goto	i2u335_40
 10992  00418A                     i2u335_41:
 10993  00418A  EFD0  F020         	goto	i2l3322
 10994  00418E                     i2u335_40:
 10995  00418E                     
 10996                           ; BSR set to: 0
 10997                           ;/opt/microchip/xc8/v2.30/pic/sources/c99/common/doprnt.c: 279:         fputc(c, fp);
 10998  00418E  C00C  F001         	movff	ctoa@c,fputc@c
 10999  004192  6A02               	clrf	(fputc@c+1)^0,c
 11000  004194  C00A  F003         	movff	ctoa@fp,fputc@fp
 11001  004198  C00B  F004         	movff	ctoa@fp+1,fputc@fp+1
 11002  00419C  ECA5  F021         	call	_fputc	;wreg free
 11003  0041A0                     i2l3322:
 11004                           
 11005                           ;/opt/microchip/xc8/v2.30/pic/sources/c99/common/doprnt.c: 282:     return l+1;
 11006  0041A0  0E01               	movlw	1
 11007  0041A2  240E               	addwf	ctoa@l^0,w,c
 11008  0041A4  6E0A               	movwf	?_ctoa^0,c
 11009  0041A6  0E00               	movlw	0
 11010  0041A8  200F               	addwfc	(ctoa@l+1)^0,w,c
 11011  0041AA  6E0B               	movwf	(?_ctoa+1)^0,c
 11012  0041AC  0012               	return		;funcret
 11013  0041AE                     __end_of_ctoa:
 11014                           	callstack 0
 11015                           
 11016 ;; *************** function _fputc *****************
 11017 ;; Defined at:
 11018 ;;		line 8 in file "/opt/microchip/xc8/v2.30/pic/sources/c99/common/nf_fputc.c"
 11019 ;; Parameters:    Size  Location     Type
 11020 ;;  c               2    0[COMRAM] int 
 11021 ;;  fp              2    2[COMRAM] PTR struct _IO_FILE
 11022 ;;		 -> vsnprintf@f(6), 
 11023 ;; Auto vars:     Size  Location     Type
 11024 ;;		None
 11025 ;; Return value:  Size  Location     Type
 11026 ;;                  2    0[COMRAM] int 
 11027 ;; Registers used:
 11028 ;;		wreg, fsr1l, fsr1h, fsr2l, fsr2h, status,2, status,0, cstack
 11029 ;; Tracked objects:
 11030 ;;		On entry : 0/0
 11031 ;;		On exit  : 0/0
 11032 ;;		Unchanged: 0/0
 11033 ;; Data sizes:     COMRAM   BANK0   BANK1   BANK2   BANK3   BANK4   BANK5   BANK6   BANK7   BANK8   BANK9  BANK10  BANK1
      +1  BANK12  BANK13  BANK14  BANK15
 11034 ;;      Params:         4       0       0       0       0       0       0       0       0       0       0       0       
      +0       0       0       0       0
 11035 ;;      Locals:         0       0       0       0       0       0       0       0       0       0       0       0       
      +0       0       0       0       0
 11036 ;;      Temps:          5       0       0       0       0       0       0       0       0       0       0       0       
      +0       0       0       0       0
 11037 ;;      Totals:         9       0       0       0       0       0       0       0       0       0       0       0       
      +0       0       0       0       0
 11038 ;;Total ram usage:        9 bytes
 11039 ;; Hardware stack levels used:    1
 11040 ;; Hardware stack levels required when called:    1
 11041 ;; This function calls:
 11042 ;;		_putch
 11043 ;; This function is called by:
 11044 ;;		_pad
 11045 ;;		_ctoa
 11046 ;;		_stoa
 11047 ;;		_vfpfcnvrt
 11048 ;;		_fputs
 11049 ;; This function uses a non-reentrant model
 11050 ;;
 11051                           
 11052                           	psect	text42
 11053  00434A                     __ptext42:
 11054                           	callstack 0
 11055  00434A                     _fputc:
 11056                           	callstack 16
 11057  00434A  5003               	movf	fputc@fp^0,w,c
 11058  00434C  1004               	iorwf	(fputc@fp+1)^0,w,c
 11059  00434E  B4D8               	btfsc	status,2,c
 11060  004350  EFAC  F021         	goto	i2u287_41
 11061  004354  EFAE  F021         	goto	i2u287_40
 11062  004358                     i2u287_41:
 11063  004358  EFB7  F021         	goto	i2l3082
 11064  00435C                     i2u287_40:
 11065  00435C  5003               	movf	fputc@fp^0,w,c
 11066  00435E  1004               	iorwf	(fputc@fp+1)^0,w,c
 11067  004360  A4D8               	btfss	status,2,c
 11068  004362  EFB5  F021         	goto	i2u288_41
 11069  004366  EFB7  F021         	goto	i2u288_40
 11070  00436A                     i2u288_41:
 11071  00436A  EFBC  F021         	goto	i2l3084
 11072  00436E                     i2u288_40:
 11073  00436E                     i2l3082:
 11074  00436E  5001               	movf	fputc@c^0,w,c
 11075  004370  EC65  F027         	call	_putch
 11076  004374  EF09  F022         	goto	i2l1355
 11077  004378                     i2l3084:
 11078  004378  EE20 F004          	lfsr	2,4
 11079  00437C  5003               	movf	fputc@fp^0,w,c
 11080  00437E  26D9               	addwf	fsr2l,f,c
 11081  004380  5004               	movf	(fputc@fp+1)^0,w,c
 11082  004382  22DA               	addwfc	fsr2h,f,c
 11083  004384  50DE               	movf	postinc2,w,c
 11084  004386  10DE               	iorwf	postinc2,w,c
 11085  004388  B4D8               	btfsc	status,2,c
 11086  00438A  EFC9  F021         	goto	i2u289_41
 11087  00438E  EFCB  F021         	goto	i2u289_40
 11088  004392                     i2u289_41:
 11089  004392  EFE6  F021         	goto	i2l3088
 11090  004396                     i2u289_40:
 11091  004396  EE20 F004          	lfsr	2,4
 11092  00439A  5003               	movf	fputc@fp^0,w,c
 11093  00439C  26D9               	addwf	fsr2l,f,c
 11094  00439E  5004               	movf	(fputc@fp+1)^0,w,c
 11095  0043A0  22DA               	addwfc	fsr2h,f,c
 11096  0043A2  EE10 F002          	lfsr	1,2
 11097  0043A6  5003               	movf	fputc@fp^0,w,c
 11098  0043A8  26E1               	addwf	fsr1l,f,c
 11099  0043AA  5004               	movf	(fputc@fp+1)^0,w,c
 11100  0043AC  22E2               	addwfc	fsr1h,f,c
 11101  0043AE  50DE               	movf	postinc2,w,c
 11102  0043B0  5CE6               	subwf	postinc1,w,c
 11103  0043B2  50E6               	movf	postinc1,w,c
 11104  0043B4  0A80               	xorlw	128
 11105  0043B6  6E09               	movwf	(??_fputc+4)^0,c
 11106  0043B8  50DE               	movf	postinc2,w,c
 11107  0043BA  0A80               	xorlw	128
 11108  0043BC  5809               	subwfb	(??_fputc+4)^0,w,c
 11109  0043BE  B0D8               	btfsc	status,0,c
 11110  0043C0  EFE4  F021         	goto	i2u290_41
 11111  0043C4  EFE6  F021         	goto	i2u290_40
 11112  0043C8                     i2u290_41:
 11113  0043C8  EF09  F022         	goto	i2l1355
 11114  0043CC                     i2u290_40:
 11115  0043CC                     i2l3088:
 11116  0043CC  EE20 F002          	lfsr	2,2
 11117  0043D0  5003               	movf	fputc@fp^0,w,c
 11118  0043D2  26D9               	addwf	fsr2l,f,c
 11119  0043D4  5004               	movf	(fputc@fp+1)^0,w,c
 11120  0043D6  22DA               	addwfc	fsr2h,f,c
 11121  0043D8  CFDE F005          	movff	postinc2,??_fputc
 11122  0043DC  CFDD F006          	movff	postdec2,??_fputc+1
 11123  0043E0  C003  FFD9         	movff	fputc@fp,fsr2l
 11124  0043E4  C004  FFDA         	movff	fputc@fp+1,fsr2h
 11125  0043E8  CFDE F007          	movff	postinc2,??_fputc+2
 11126  0043EC  CFDD F008          	movff	postdec2,??_fputc+3
 11127  0043F0  5005               	movf	??_fputc^0,w,c
 11128  0043F2  2407               	addwf	(??_fputc+2)^0,w,c
 11129  0043F4  6ED9               	movwf	fsr2l,c
 11130  0043F6  5006               	movf	(??_fputc+1)^0,w,c
 11131  0043F8  2008               	addwfc	(??_fputc+3)^0,w,c
 11132  0043FA  6EDA               	movwf	fsr2h,c
 11133  0043FC  C001  FFDF         	movff	fputc@c,indf2
 11134  004400  EE20 F002          	lfsr	2,2
 11135  004404  5003               	movf	fputc@fp^0,w,c
 11136  004406  26D9               	addwf	fsr2l,f,c
 11137  004408  5004               	movf	(fputc@fp+1)^0,w,c
 11138  00440A  22DA               	addwfc	fsr2h,f,c
 11139  00440C  2ADE               	incf	postinc2,f,c
 11140  00440E  0E00               	movlw	0
 11141  004410  22DD               	addwfc	postdec2,f,c
 11142  004412                     i2l1355:
 11143  004412  0012               	return		;funcret
 11144  004414                     __end_of_fputc:
 11145                           	callstack 0
 11146                           
 11147 ;; *************** function _putch *****************
 11148 ;; Defined at:
 11149 ;;		line 7 in file "/opt/microchip/xc8/v2.30/pic/sources/c99/common/putch.c"
 11150 ;; Parameters:    Size  Location     Type
 11151 ;;  c               1    wreg     unsigned char 
 11152 ;; Auto vars:     Size  Location     Type
 11153 ;;  c               1    0[COMRAM] unsigned char 
 11154 ;; Return value:  Size  Location     Type
 11155 ;;                  1    wreg      void 
 11156 ;; Registers used:
 11157 ;;		wreg
 11158 ;; Tracked objects:
 11159 ;;		On entry : 0/0
 11160 ;;		On exit  : 0/0
 11161 ;;		Unchanged: 0/0
 11162 ;; Data sizes:     COMRAM   BANK0   BANK1   BANK2   BANK3   BANK4   BANK5   BANK6   BANK7   BANK8   BANK9  BANK10  BANK1
      +1  BANK12  BANK13  BANK14  BANK15
 11163 ;;      Params:         0       0       0       0       0       0       0       0       0       0       0       0       
      +0       0       0       0       0
 11164 ;;      Locals:         0       0       0       0       0       0       0       0       0       0       0       0       
      +0       0       0       0       0
 11165 ;;      Temps:          0       0       0       0       0       0       0       0       0       0       0       0       
      +0       0       0       0       0
 11166 ;;      Totals:         0       0       0       0       0       0       0       0       0       0       0       0       
      +0       0       0       0       0
 11167 ;;Total ram usage:        0 bytes
 11168 ;; Hardware stack levels used:    1
 11169 ;; This function calls:
 11170 ;;		Nothing
 11171 ;; This function is called by:
 11172 ;;		_fputc
 11173 ;; This function uses a non-reentrant model
 11174 ;;
 11175                           
 11176                           	psect	text43
 11177  004ECA                     __ptext43:
 11178                           	callstack 0
 11179  004ECA                     _putch:
 11180                           	callstack 16
 11181  004ECA  0012               	return		;funcret
 11182  004ECC                     __end_of_putch:
 11183                           	callstack 0
 11184                           
 11185 ;; *************** function _atoi *****************
 11186 ;; Defined at:
 11187 ;;		line 4 in file "/opt/microchip/xc8/v2.30/pic/sources/c99/common/atoi.c"
 11188 ;; Parameters:    Size  Location     Type
 11189 ;;  s               2    7[COMRAM] PTR const unsigned char 
 11190 ;;		 -> STR_7(5), 
 11191 ;; Auto vars:     Size  Location     Type
 11192 ;;  n               2   20[COMRAM] int 
 11193 ;;  neg             2   13[COMRAM] int 
 11194 ;; Return value:  Size  Location     Type
 11195 ;;                  2    7[COMRAM] int 
 11196 ;; Registers used:
 11197 ;;		wreg, status,2, status,0, tblptrl, tblptrh, tblptru, prodl, prodh, cstack
 11198 ;; Tracked objects:
 11199 ;;		On entry : 0/0
 11200 ;;		On exit  : 0/0
 11201 ;;		Unchanged: 0/0
 11202 ;; Data sizes:     COMRAM   BANK0   BANK1   BANK2   BANK3   BANK4   BANK5   BANK6   BANK7   BANK8   BANK9  BANK10  BANK1
      +1  BANK12  BANK13  BANK14  BANK15
 11203 ;;      Params:         2       0       0       0       0       0       0       0       0       0       0       0       
      +0       0       0       0       0
 11204 ;;      Locals:         9       0       0       0       0       0       0       0       0       0       0       0       
      +0       0       0       0       0
 11205 ;;      Temps:          4       0       0       0       0       0       0       0       0       0       0       0       
      +0       0       0       0       0
 11206 ;;      Totals:        15       0       0       0       0       0       0       0       0       0       0       0       
      +0       0       0       0       0
 11207 ;;Total ram usage:       15 bytes
 11208 ;; Hardware stack levels used:    1
 11209 ;; Hardware stack levels required when called:    1
 11210 ;; This function calls:
 11211 ;;		___wmul
 11212 ;;		_isdigit
 11213 ;;		_isspace
 11214 ;; This function is called by:
 11215 ;;		_vfpfcnvrt
 11216 ;; This function uses a non-reentrant model
 11217 ;;
 11218                           
 11219                           	psect	text44
 11220  0035B0                     __ptext44:
 11221                           	callstack 0
 11222  0035B0                     _atoi:
 11223                           	callstack 19
 11224  0035B0  0E00               	movlw	0
 11225  0035B2  6E16               	movwf	(atoi@n+1)^0,c
 11226  0035B4  0E00               	movlw	0
 11227  0035B6  6E15               	movwf	atoi@n^0,c
 11228  0035B8  0E00               	movlw	0
 11229  0035BA  6E0F               	movwf	(atoi@neg+1)^0,c
 11230  0035BC  0E00               	movlw	0
 11231  0035BE  6E0E               	movwf	atoi@neg^0,c
 11232  0035C0  EFE4  F01A         	goto	i2l3584
 11233  0035C4                     i2l3582:
 11234  0035C4  4A08               	infsnz	atoi@s^0,f,c
 11235  0035C6  2A09               	incf	(atoi@s+1)^0,f,c
 11236  0035C8                     i2l3584:
 11237  0035C8  0E01               	movlw	1
 11238  0035CA  6E14               	movwf	_atoi$1916^0,c
 11239  0035CC  C008  FFF6         	movff	atoi@s,tblptrl
 11240  0035D0  C009  FFF7         	movff	atoi@s+1,tblptrh
 11241  0035D4                     	if	0	;tblptru may be non-zero
 11242  0035D4                     	endif
 11243  0035D4                     	if	1	;Program memory is > 0xFFFF, there are 3 active tblptr bytes
 11244  0035D4  0E00               	movlw	low (__mediumconst shr (0+16))
 11245  0035D6  6EF8               	movwf	tblptru,c
 11246  0035D8                     	endif
 11247  0035D8  0008               	tblrd		*
 11248  0035DA  50F5               	movf	tablat,w,c
 11249  0035DC  0A20               	xorlw	32
 11250  0035DE  B4D8               	btfsc	status,2,c
 11251  0035E0  EFF4  F01A         	goto	i2u394_41
 11252  0035E4  EFF6  F01A         	goto	i2u394_40
 11253  0035E8                     i2u394_41:
 11254  0035E8  EF15  F01B         	goto	i2l3592
 11255  0035EC                     i2u394_40:
 11256  0035EC  0EF7               	movlw	247
 11257  0035EE  6E0A               	movwf	??_atoi^0,c
 11258  0035F0  0EFF               	movlw	255
 11259  0035F2  6E0B               	movwf	(??_atoi+1)^0,c
 11260  0035F4  C008  FFF6         	movff	atoi@s,tblptrl
 11261  0035F8  C009  FFF7         	movff	atoi@s+1,tblptrh
 11262  0035FC                     	if	0	;tblptru may be non-zero
 11263  0035FC                     	endif
 11264  0035FC                     	if	1	;Program memory is > 0xFFFF, there are 3 active tblptr bytes
 11265  0035FC  0E00               	movlw	low (__mediumconst shr (0+16))
 11266  0035FE  6EF8               	movwf	tblptru,c
 11267  003600                     	endif
 11268  003600  0008               	tblrd		*
 11269  003602  50F5               	movf	tablat,w,c
 11270  003604  6E0C               	movwf	(??_atoi+2)^0,c
 11271  003606  6A0D               	clrf	(??_atoi+3)^0,c
 11272  003608  500A               	movf	??_atoi^0,w,c
 11273  00360A  260C               	addwf	(??_atoi+2)^0,f,c
 11274  00360C  500B               	movf	(??_atoi+1)^0,w,c
 11275  00360E  220D               	addwfc	(??_atoi+3)^0,f,c
 11276  003610  500D               	movf	(??_atoi+3)^0,w,c
 11277  003612  E109               	bnz	i2u395_40
 11278  003614  0E05               	movlw	5
 11279  003616  5C0C               	subwf	(??_atoi+2)^0,w,c
 11280  003618  A0D8               	btfss	status,0,c
 11281  00361A  EF11  F01B         	goto	i2u395_41
 11282  00361E  EF13  F01B         	goto	i2u395_40
 11283  003622                     i2u395_41:
 11284  003622  EF15  F01B         	goto	i2l3592
 11285  003626                     i2u395_40:
 11286  003626  0E00               	movlw	0
 11287  003628  6E14               	movwf	_atoi$1916^0,c
 11288  00362A                     i2l3592:
 11289  00362A  C014  F010         	movff	_atoi$1916,_atoi$1915
 11290  00362E  6A11               	clrf	(_atoi$1915+1)^0,c
 11291  003630  5010               	movf	_atoi$1915^0,w,c
 11292  003632  1011               	iorwf	(_atoi$1915+1)^0,w,c
 11293  003634  A4D8               	btfss	status,2,c
 11294  003636  EF1F  F01B         	goto	i2u396_41
 11295  00363A  EF21  F01B         	goto	i2u396_40
 11296  00363E                     i2u396_41:
 11297  00363E  EFE2  F01A         	goto	i2l3582
 11298  003642                     i2u396_40:
 11299  003642  EF2B  F01B         	goto	i2l3602
 11300  003646                     i2l3598:
 11301  003646  0E00               	movlw	0
 11302  003648  6E0F               	movwf	(atoi@neg+1)^0,c
 11303  00364A  0E01               	movlw	1
 11304  00364C  6E0E               	movwf	atoi@neg^0,c
 11305  00364E                     i2l3600:
 11306  00364E  4A08               	infsnz	atoi@s^0,f,c
 11307  003650  2A09               	incf	(atoi@s+1)^0,f,c
 11308  003652  EF64  F01B         	goto	i2l3608
 11309  003656                     i2l3602:
 11310  003656  C008  FFF6         	movff	atoi@s,tblptrl
 11311  00365A  C009  FFF7         	movff	atoi@s+1,tblptrh
 11312  00365E                     	if	0	;tblptru may be non-zero
 11313  00365E                     	endif
 11314  00365E                     	if	1	;Program memory is > 0xFFFF, there are 3 active tblptr bytes
 11315  00365E  0E00               	movlw	low (__mediumconst shr (0+16))
 11316  003660  6EF8               	movwf	tblptru,c
 11317  003662                     	endif
 11318  003662  0008               	tblrd		*
 11319  003664  50F5               	movf	tablat,w,c
 11320  003666  6E0A               	movwf	??_atoi^0,c
 11321  003668  6A0B               	clrf	(??_atoi+1)^0,c
 11322                           
 11323                           ; Switch on 2 bytes has been partitioned into a top level switch of size 1, and 1 sub-sw
      +                          itches
 11324                           ; Switch size 1, requested type "simple"
 11325                           ; Number of cases is 1, Range of values is 0 to 0
 11326                           ; switch strategies available:
 11327                           ; Name         Instructions Cycles
 11328                           ; simple_byte            4     3 (average)
 11329                           ;	Chosen strategy is simple_byte
 11330  00366A  500B               	movf	(??_atoi+1)^0,w,c
 11331  00366C  0A00               	xorlw	0	; case 0
 11332  00366E  B4D8               	btfsc	status,2,c
 11333  003670  EF3C  F01B         	goto	i2l4762
 11334  003674  EF64  F01B         	goto	i2l3608
 11335  003678                     i2l4762:
 11336                           
 11337                           ; Switch size 1, requested type "simple"
 11338                           ; Number of cases is 2, Range of values is 43 to 45
 11339                           ; switch strategies available:
 11340                           ; Name         Instructions Cycles
 11341                           ; simple_byte            7     4 (average)
 11342                           ;	Chosen strategy is simple_byte
 11343  003678  500A               	movf	??_atoi^0,w,c
 11344  00367A  0A2B               	xorlw	43	; case 43
 11345  00367C  B4D8               	btfsc	status,2,c
 11346  00367E  EF27  F01B         	goto	i2l3600
 11347  003682  0A06               	xorlw	6	; case 45
 11348  003684  B4D8               	btfsc	status,2,c
 11349  003686  EF23  F01B         	goto	i2l3598
 11350  00368A  EF64  F01B         	goto	i2l3608
 11351  00368E                     i2l3604:
 11352  00368E  C015  F001         	movff	atoi@n,___wmul@multiplier
 11353  003692  C016  F002         	movff	atoi@n+1,___wmul@multiplier+1
 11354  003696  0E00               	movlw	0
 11355  003698  6E04               	movwf	(___wmul@multiplicand+1)^0,c
 11356  00369A  0E0A               	movlw	10
 11357  00369C  6E03               	movwf	___wmul@multiplicand^0,c
 11358  00369E  EC52  F027         	call	___wmul	;wreg free
 11359  0036A2  C008  FFF6         	movff	atoi@s,tblptrl
 11360  0036A6  C009  FFF7         	movff	atoi@s+1,tblptrh
 11361  0036AA                     	if	0	;tblptru may be non-zero
 11362  0036AA                     	endif
 11363  0036AA                     	if	1	;Program memory is > 0xFFFF, there are 3 active tblptr bytes
 11364  0036AA  0E00               	movlw	low (__mediumconst shr (0+16))
 11365  0036AC  6EF8               	movwf	tblptru,c
 11366  0036AE                     	endif
 11367  0036AE  0008               	tblrd		*
 11368  0036B0  50F5               	movf	tablat,w,c
 11369  0036B2  5E01               	subwf	?___wmul^0,f,c
 11370  0036B4  0E00               	movlw	0
 11371  0036B6  5A02               	subwfb	(?___wmul+1)^0,f,c
 11372  0036B8  0E30               	movlw	48
 11373  0036BA  2401               	addwf	?___wmul^0,w,c
 11374  0036BC  6E15               	movwf	atoi@n^0,c
 11375  0036BE  0E00               	movlw	0
 11376  0036C0  2002               	addwfc	(?___wmul+1)^0,w,c
 11377  0036C2  6E16               	movwf	(atoi@n+1)^0,c
 11378  0036C4  EF27  F01B         	goto	i2l3600
 11379  0036C8                     i2l3608:
 11380  0036C8  0ED0               	movlw	208
 11381  0036CA  6E0A               	movwf	??_atoi^0,c
 11382  0036CC  0EFF               	movlw	255
 11383  0036CE  6E0B               	movwf	(??_atoi+1)^0,c
 11384  0036D0  C008  FFF6         	movff	atoi@s,tblptrl
 11385  0036D4  C009  FFF7         	movff	atoi@s+1,tblptrh
 11386  0036D8                     	if	0	;tblptru may be non-zero
 11387  0036D8                     	endif
 11388  0036D8                     	if	1	;Program memory is > 0xFFFF, there are 3 active tblptr bytes
 11389  0036D8  0E00               	movlw	low (__mediumconst shr (0+16))
 11390  0036DA  6EF8               	movwf	tblptru,c
 11391  0036DC                     	endif
 11392  0036DC  0008               	tblrd		*
 11393  0036DE  50F5               	movf	tablat,w,c
 11394  0036E0  6E0C               	movwf	(??_atoi+2)^0,c
 11395  0036E2  6A0D               	clrf	(??_atoi+3)^0,c
 11396  0036E4  500A               	movf	??_atoi^0,w,c
 11397  0036E6  260C               	addwf	(??_atoi+2)^0,f,c
 11398  0036E8  500B               	movf	(??_atoi+1)^0,w,c
 11399  0036EA  220D               	addwfc	(??_atoi+3)^0,f,c
 11400  0036EC  500D               	movf	(??_atoi+3)^0,w,c
 11401  0036EE  E10A               	bnz	i2u397_40
 11402  0036F0  0E0A               	movlw	10
 11403  0036F2  5C0C               	subwf	(??_atoi+2)^0,w,c
 11404  0036F4  A0D8               	btfss	status,0,c
 11405  0036F6  EF7F  F01B         	goto	i2u397_41
 11406  0036FA  EF82  F01B         	goto	i2u397_40
 11407  0036FE                     i2u397_41:
 11408  0036FE  0E01               	movlw	1
 11409  003700  EF83  F01B         	goto	i2u398_40
 11410  003704                     i2u397_40:
 11411  003704  0E00               	movlw	0
 11412  003706                     i2u398_40:
 11413  003706  6E12               	movwf	_atoi$1917^0,c
 11414  003708  6A13               	clrf	(_atoi$1917+1)^0,c
 11415  00370A  5012               	movf	_atoi$1917^0,w,c
 11416  00370C  1013               	iorwf	(_atoi$1917+1)^0,w,c
 11417  00370E  A4D8               	btfss	status,2,c
 11418  003710  EF8C  F01B         	goto	i2u399_41
 11419  003714  EF8E  F01B         	goto	i2u399_40
 11420  003718                     i2u399_41:
 11421  003718  EF47  F01B         	goto	i2l3604
 11422  00371C                     i2u399_40:
 11423  00371C  500E               	movf	atoi@neg^0,w,c
 11424  00371E  100F               	iorwf	(atoi@neg+1)^0,w,c
 11425  003720  A4D8               	btfss	status,2,c
 11426  003722  EF95  F01B         	goto	i2u400_41
 11427  003726  EF97  F01B         	goto	i2u400_40
 11428  00372A                     i2u400_41:
 11429  00372A  EFA5  F01B         	goto	i2l1312
 11430  00372E                     i2u400_40:
 11431  00372E  C015  F00A         	movff	atoi@n,??_atoi
 11432  003732  C016  F00B         	movff	atoi@n+1,??_atoi+1
 11433  003736  1E0A               	comf	??_atoi^0,f,c
 11434  003738  1E0B               	comf	(??_atoi+1)^0,f,c
 11435  00373A  4A0A               	infsnz	??_atoi^0,f,c
 11436  00373C  2A0B               	incf	(??_atoi+1)^0,f,c
 11437  00373E  C00A  F008         	movff	??_atoi,?_atoi
 11438  003742  C00B  F009         	movff	??_atoi+1,?_atoi+1
 11439  003746  EFA9  F01B         	goto	i2l1315
 11440  00374A                     i2l1312:
 11441  00374A  C015  F008         	movff	atoi@n,?_atoi
 11442  00374E  C016  F009         	movff	atoi@n+1,?_atoi+1
 11443  003752                     i2l1315:
 11444  003752  0012               	return		;funcret
 11445  003754                     __end_of_atoi:
 11446                           	callstack 0
 11447                           
 11448 ;; *************** function _isspace *****************
 11449 ;; Defined at:
 11450 ;;		line 5 in file "/opt/microchip/xc8/v2.30/pic/sources/c99/common/isspace.c"
 11451 ;; Parameters:    Size  Location     Type
 11452 ;;  c               2    0[COMRAM] int 
 11453 ;; Auto vars:     Size  Location     Type
 11454 ;;		None
 11455 ;; Return value:  Size  Location     Type
 11456 ;;                  2    0[COMRAM] int 
 11457 ;; Registers used:
 11458 ;;		wreg, status,2, status,0
 11459 ;; Tracked objects:
 11460 ;;		On entry : 0/0
 11461 ;;		On exit  : 0/0
 11462 ;;		Unchanged: 0/0
 11463 ;; Data sizes:     COMRAM   BANK0   BANK1   BANK2   BANK3   BANK4   BANK5   BANK6   BANK7   BANK8   BANK9  BANK10  BANK1
      +1  BANK12  BANK13  BANK14  BANK15
 11464 ;;      Params:         2       0       0       0       0       0       0       0       0       0       0       0       
      +0       0       0       0       0
 11465 ;;      Locals:         1       0       0       0       0       0       0       0       0       0       0       0       
      +0       0       0       0       0
 11466 ;;      Temps:          4       0       0       0       0       0       0       0       0       0       0       0       
      +0       0       0       0       0
 11467 ;;      Totals:         7       0       0       0       0       0       0       0       0       0       0       0       
      +0       0       0       0       0
 11468 ;;Total ram usage:        7 bytes
 11469 ;; Hardware stack levels used:    1
 11470 ;; This function calls:
 11471 ;;		Nothing
 11472 ;; This function is called by:
 11473 ;;		_atoi
 11474 ;; This function uses a non-reentrant model
 11475 ;;
 11476                           
 11477                           	psect	text45
 11478  004BA6                     __ptext45:
 11479                           	callstack 0
 11480  004BA6                     _isspace:
 11481                           	callstack 19
 11482  004BA6  0E01               	movlw	1
 11483  004BA8  6E07               	movwf	_isspace$1943^0,c
 11484  004BAA  0E20               	movlw	32
 11485  004BAC  1801               	xorwf	isspace@c^0,w,c
 11486  004BAE  1002               	iorwf	(isspace@c+1)^0,w,c
 11487  004BB0  B4D8               	btfsc	status,2,c
 11488  004BB2  EFDD  F025         	goto	i2u329_41
 11489  004BB6  EFDF  F025         	goto	i2u329_40
 11490  004BBA                     i2u329_41:
 11491  004BBA  EFF8  F025         	goto	i2l3294
 11492  004BBE                     i2u329_40:
 11493  004BBE  0EF7               	movlw	247
 11494  004BC0  6E03               	movwf	??_isspace^0,c
 11495  004BC2  0EFF               	movlw	255
 11496  004BC4  6E04               	movwf	(??_isspace+1)^0,c
 11497  004BC6  C001  F005         	movff	isspace@c,??_isspace+2
 11498  004BCA  C002  F006         	movff	isspace@c+1,??_isspace+3
 11499  004BCE  5003               	movf	??_isspace^0,w,c
 11500  004BD0  2605               	addwf	(??_isspace+2)^0,f,c
 11501  004BD2  5004               	movf	(??_isspace+1)^0,w,c
 11502  004BD4  2206               	addwfc	(??_isspace+3)^0,f,c
 11503  004BD6  5006               	movf	(??_isspace+3)^0,w,c
 11504  004BD8  E109               	bnz	i2u330_40
 11505  004BDA  0E05               	movlw	5
 11506  004BDC  5C05               	subwf	(??_isspace+2)^0,w,c
 11507  004BDE  A0D8               	btfss	status,0,c
 11508  004BE0  EFF4  F025         	goto	i2u330_41
 11509  004BE4  EFF6  F025         	goto	i2u330_40
 11510  004BE8                     i2u330_41:
 11511  004BE8  EFF8  F025         	goto	i2l3294
 11512  004BEC                     i2u330_40:
 11513  004BEC  0E00               	movlw	0
 11514  004BEE  6E07               	movwf	_isspace$1943^0,c
 11515  004BF0                     i2l3294:
 11516  004BF0  C007  F001         	movff	_isspace$1943,?_isspace
 11517  004BF4  6A02               	clrf	(?_isspace+1)^0,c
 11518  004BF6  0012               	return		;funcret
 11519  004BF8                     __end_of_isspace:
 11520                           	callstack 0
 11521                           
 11522 ;; *************** function _isdigit *****************
 11523 ;; Defined at:
 11524 ;;		line 5 in file "/opt/microchip/xc8/v2.30/pic/sources/c99/common/isdigit.c"
 11525 ;; Parameters:    Size  Location     Type
 11526 ;;  c               2    0[COMRAM] int 
 11527 ;; Auto vars:     Size  Location     Type
 11528 ;;		None
 11529 ;; Return value:  Size  Location     Type
 11530 ;;                  2    0[COMRAM] int 
 11531 ;; Registers used:
 11532 ;;		wreg, status,2, status,0
 11533 ;; Tracked objects:
 11534 ;;		On entry : 0/0
 11535 ;;		On exit  : 0/0
 11536 ;;		Unchanged: 0/0
 11537 ;; Data sizes:     COMRAM   BANK0   BANK1   BANK2   BANK3   BANK4   BANK5   BANK6   BANK7   BANK8   BANK9  BANK10  BANK1
      +1  BANK12  BANK13  BANK14  BANK15
 11538 ;;      Params:         2       0       0       0       0       0       0       0       0       0       0       0       
      +0       0       0       0       0
 11539 ;;      Locals:         0       0       0       0       0       0       0       0       0       0       0       0       
      +0       0       0       0       0
 11540 ;;      Temps:          4       0       0       0       0       0       0       0       0       0       0       0       
      +0       0       0       0       0
 11541 ;;      Totals:         6       0       0       0       0       0       0       0       0       0       0       0       
      +0       0       0       0       0
 11542 ;;Total ram usage:        6 bytes
 11543 ;; Hardware stack levels used:    1
 11544 ;; This function calls:
 11545 ;;		Nothing
 11546 ;; This function is called by:
 11547 ;;		_vfpfcnvrt
 11548 ;;		_atoi
 11549 ;; This function uses a non-reentrant model
 11550 ;;
 11551                           
 11552                           	psect	text46
 11553  004DA2                     __ptext46:
 11554                           	callstack 0
 11555  004DA2                     _isdigit:
 11556                           	callstack 20
 11557  004DA2  0ED0               	movlw	208
 11558  004DA4  6E03               	movwf	??_isdigit^0,c
 11559  004DA6  0EFF               	movlw	255
 11560  004DA8  6E04               	movwf	(??_isdigit+1)^0,c
 11561  004DAA  C001  F005         	movff	isdigit@c,??_isdigit+2
 11562  004DAE  C002  F006         	movff	isdigit@c+1,??_isdigit+3
 11563  004DB2  5003               	movf	??_isdigit^0,w,c
 11564  004DB4  2605               	addwf	(??_isdigit+2)^0,f,c
 11565  004DB6  5004               	movf	(??_isdigit+1)^0,w,c
 11566  004DB8  2206               	addwfc	(??_isdigit+3)^0,f,c
 11567  004DBA  5006               	movf	(??_isdigit+3)^0,w,c
 11568  004DBC  E10A               	bnz	i2u327_40
 11569  004DBE  0E0A               	movlw	10
 11570  004DC0  5C05               	subwf	(??_isdigit+2)^0,w,c
 11571  004DC2  A0D8               	btfss	status,0,c
 11572  004DC4  EFE6  F026         	goto	i2u327_41
 11573  004DC8  EFE9  F026         	goto	i2u327_40
 11574  004DCC                     i2u327_41:
 11575  004DCC  0E01               	movlw	1
 11576  004DCE  EFEA  F026         	goto	i2u328_40
 11577  004DD2                     i2u327_40:
 11578  004DD2  0E00               	movlw	0
 11579  004DD4                     i2u328_40:
 11580  004DD4  6E01               	movwf	?_isdigit^0,c
 11581  004DD6  6A02               	clrf	(?_isdigit+1)^0,c
 11582  004DD8  0012               	return		;funcret
 11583  004DDA                     __end_of_isdigit:
 11584                           	callstack 0
 11585                           
 11586 ;; *************** function ___wmul *****************
 11587 ;; Defined at:
 11588 ;;		line 15 in file "/opt/microchip/xc8/v2.30/pic/sources/c99/common/Umul16.c"
 11589 ;; Parameters:    Size  Location     Type
 11590 ;;  multiplier      2    0[COMRAM] unsigned int 
 11591 ;;  multiplicand    2    2[COMRAM] unsigned int 
 11592 ;; Auto vars:     Size  Location     Type
 11593 ;;  product         2    4[COMRAM] unsigned int 
 11594 ;; Return value:  Size  Location     Type
 11595 ;;                  2    0[COMRAM] unsigned int 
 11596 ;; Registers used:
 11597 ;;		wreg, status,2, status,0, prodl, prodh
 11598 ;; Tracked objects:
 11599 ;;		On entry : 0/0
 11600 ;;		On exit  : 0/0
 11601 ;;		Unchanged: 0/0
 11602 ;; Data sizes:     COMRAM   BANK0   BANK1   BANK2   BANK3   BANK4   BANK5   BANK6   BANK7   BANK8   BANK9  BANK10  BANK1
      +1  BANK12  BANK13  BANK14  BANK15
 11603 ;;      Params:         4       0       0       0       0       0       0       0       0       0       0       0       
      +0       0       0       0       0
 11604 ;;      Locals:         2       0       0       0       0       0       0       0       0       0       0       0       
      +0       0       0       0       0
 11605 ;;      Temps:          0       0       0       0       0       0       0       0       0       0       0       0       
      +0       0       0       0       0
 11606 ;;      Totals:         6       0       0       0       0       0       0       0       0       0       0       0       
      +0       0       0       0       0
 11607 ;;Total ram usage:        6 bytes
 11608 ;; Hardware stack levels used:    1
 11609 ;; This function calls:
 11610 ;;		Nothing
 11611 ;; This function is called by:
 11612 ;;		_atoi
 11613 ;; This function uses a non-reentrant model
 11614 ;;
 11615                           
 11616                           	psect	text47
 11617  004EA4                     __ptext47:
 11618                           	callstack 0
 11619  004EA4                     ___wmul:
 11620                           	callstack 19
 11621  004EA4  5001               	movf	___wmul@multiplier^0,w,c
 11622  004EA6  0203               	mulwf	___wmul@multiplicand^0,c
 11623  004EA8  CFF3 F005          	movff	prodl,___wmul@product
 11624  004EAC  CFF4 F006          	movff	prodh,___wmul@product+1
 11625  004EB0  5001               	movf	___wmul@multiplier^0,w,c
 11626  004EB2  0204               	mulwf	(___wmul@multiplicand+1)^0,c
 11627  004EB4  50F3               	movf	243,w,c
 11628  004EB6  2606               	addwf	(___wmul@product+1)^0,f,c
 11629  004EB8  5002               	movf	(___wmul@multiplier+1)^0,w,c
 11630  004EBA  0203               	mulwf	___wmul@multiplicand^0,c
 11631  004EBC  50F3               	movf	243,w,c
 11632  004EBE  2606               	addwf	(___wmul@product+1)^0,f,c
 11633  004EC0  C005  F001         	movff	___wmul@product,?___wmul
 11634  004EC4  C006  F002         	movff	___wmul@product+1,?___wmul+1
 11635  004EC8  0012               	return		;funcret
 11636  004ECA                     __end_of___wmul:
 11637                           	callstack 0
 11638                           
 11639 ;; *************** function _buffer_push *****************
 11640 ;; Defined at:
 11641 ;;		line 118 in file "main.c"
 11642 ;; Parameters:    Size  Location     Type
 11643 ;;  c               1    wreg     unsigned char 
 11644 ;;  buf_type        1    0[COMRAM] enum E5081
 11645 ;; Auto vars:     Size  Location     Type
 11646 ;;  c               1    1[COMRAM] unsigned char 
 11647 ;; Return value:  Size  Location     Type
 11648 ;;                  1    wreg      void 
 11649 ;; Registers used:
 11650 ;;		wreg, fsr2l, fsr2h, status,2, status,0
 11651 ;; Tracked objects:
 11652 ;;		On entry : 0/0
 11653 ;;		On exit  : 0/0
 11654 ;;		Unchanged: 0/0
 11655 ;; Data sizes:     COMRAM   BANK0   BANK1   BANK2   BANK3   BANK4   BANK5   BANK6   BANK7   BANK8   BANK9  BANK10  BANK1
      +1  BANK12  BANK13  BANK14  BANK15
 11656 ;;      Params:         1       0       0       0       0       0       0       0       0       0       0       0       
      +0       0       0       0       0
 11657 ;;      Locals:         1       0       0       0       0       0       0       0       0       0       0       0       
      +0       0       0       0       0
 11658 ;;      Temps:          0       0       0       0       0       0       0       0       0       0       0       0       
      +0       0       0       0       0
 11659 ;;      Totals:         2       0       0       0       0       0       0       0       0       0       0       0       
      +0       0       0       0       0
 11660 ;;Total ram usage:        2 bytes
 11661 ;; Hardware stack levels used:    1
 11662 ;; This function calls:
 11663 ;;		Nothing
 11664 ;; This function is called by:
 11665 ;;		_int_to_hex_and_push
 11666 ;;		_write_string_to_output_buffer
 11667 ;;		_set_message
 11668 ;;		_highPriorityISR
 11669 ;; This function uses a non-reentrant model
 11670 ;;
 11671                           
 11672                           	psect	text48
 11673  00486C                     __ptext48:
 11674                           	callstack 0
 11675  00486C                     _buffer_push:
 11676                           	callstack 24
 11677                           
 11678                           ;incstack = 0
 11679                           ;buffer_push@c stored from wreg
 11680  00486C  6E02               	movwf	buffer_push@c^0,c
 11681  00486E                     
 11682                           ;main.c: 121:     if(buf_type == INBUF){
 11683  00486E  0401               	decf	buffer_push@buf_type^0,w,c
 11684  004870  A4D8               	btfss	status,2,c
 11685  004872  EF3D  F024         	goto	i2u462_41
 11686  004876  EF3F  F024         	goto	i2u462_40
 11687  00487A                     i2u462_41:
 11688  00487A  EF5C  F024         	goto	i2l4038
 11689  00487E                     i2u462_40:
 11690  00487E                     
 11691                           ;main.c: 122:         input.buffer[input.head++] = c;
 11692  00487E  0E00               	movlw	low _input
 11693  004880  0101               	movlb	1	; () banked
 11694  004882  2580               	addwf	(_input+128)& (0+255),w,b
 11695  004884  6ED9               	movwf	fsr2l,c
 11696  004886  0E01               	movlw	high _input
 11697  004888  2181               	addwfc	(_input+129)& (0+255),w,b
 11698  00488A  6EDA               	movwf	fsr2h,c
 11699  00488C  C002  FFDF         	movff	buffer_push@c,indf2
 11700  004890                     
 11701                           ; BSR set to: 1
 11702  004890  4B80               	infsnz	(_input+128)& (0+255),f,b
 11703  004892  2B81               	incf	(_input+129)& (0+255),f,b
 11704  004894                     
 11705                           ; BSR set to: 1
 11706                           ;main.c: 123:         if(input.head == 128) input.head = 0;
 11707  004894  0E80               	movlw	128
 11708  004896  1980               	xorwf	(_input+128)& (0+255),w,b
 11709  004898  1181               	iorwf	(_input+129)& (0+255),w,b
 11710  00489A  A4D8               	btfss	status,2,c
 11711  00489C  EF52  F024         	goto	i2u463_41
 11712  0048A0  EF54  F024         	goto	i2u463_40
 11713  0048A4                     i2u463_41:
 11714  0048A4  EF5A  F024         	goto	i2l161
 11715  0048A8                     i2u463_40:
 11716  0048A8                     
 11717                           ; BSR set to: 1
 11718  0048A8  0E00               	movlw	0
 11719  0048AA  6F81               	movwf	(_input+129)& (0+255),b
 11720  0048AC  0E00               	movlw	0
 11721  0048AE  6F80               	movwf	(_input+128)& (0+255),b
 11722  0048B0  EF75  F024         	goto	i2l165
 11723  0048B4                     i2l161:
 11724                           
 11725                           ; BSR set to: 1
 11726                           ;main.c: 127:     }
 11727  0048B4  EF75  F024         	goto	i2l165
 11728  0048B8                     i2l4038:
 11729                           
 11730                           ;main.c: 129:         output.buffer[output.head++] = c;
 11731  0048B8  0E00               	movlw	low _output
 11732  0048BA  0102               	movlb	2	; () banked
 11733  0048BC  2580               	addwf	(_output+128)& (0+255),w,b
 11734  0048BE  6ED9               	movwf	fsr2l,c
 11735  0048C0  0E02               	movlw	high _output
 11736  0048C2  2181               	addwfc	(_output+129)& (0+255),w,b
 11737  0048C4  6EDA               	movwf	fsr2h,c
 11738  0048C6  C002  FFDF         	movff	buffer_push@c,indf2
 11739  0048CA                     
 11740                           ; BSR set to: 2
 11741  0048CA  4B80               	infsnz	(_output+128)& (0+255),f,b
 11742  0048CC  2B81               	incf	(_output+129)& (0+255),f,b
 11743  0048CE                     
 11744                           ; BSR set to: 2
 11745                           ;main.c: 130:         if(output.head == 128) output.head = 0;
 11746  0048CE  0E80               	movlw	128
 11747  0048D0  1980               	xorwf	(_output+128)& (0+255),w,b
 11748  0048D2  1181               	iorwf	(_output+129)& (0+255),w,b
 11749  0048D4  A4D8               	btfss	status,2,c
 11750  0048D6  EF6F  F024         	goto	i2u464_41
 11751  0048DA  EF71  F024         	goto	i2u464_40
 11752  0048DE                     i2u464_41:
 11753  0048DE  EF75  F024         	goto	i2l165
 11754  0048E2                     i2u464_40:
 11755  0048E2                     
 11756                           ; BSR set to: 2
 11757  0048E2  0E00               	movlw	0
 11758  0048E4  6F81               	movwf	(_output+129)& (0+255),b
 11759  0048E6  0E00               	movlw	0
 11760  0048E8  6F80               	movwf	(_output+128)& (0+255),b
 11761  0048EA                     i2l165:
 11762  0048EA  0012               	return		;funcret
 11763  0048EC                     __end_of_buffer_push:
 11764                           	callstack 0
 11765                           
 11766                           	psect	rparam
 11767  0000                     
 11768                           	psect	temp
 11769  00005E                     btemp:
 11770                           	callstack 0
 11771  00005E                     	ds	1
 11772  0000                     int$flags	set	btemp
 11773  0000                     wtemp8	set	btemp+1
 11774  0000                     ttemp5	set	btemp+1
 11775  0000                     ttemp6	set	btemp+4
 11776  0000                     ttemp7	set	btemp+8
 11777                           
 11778                           	psect	idloc
 11779                           
 11780                           ;Config register IDLOC0 @ 0x200000
 11781                           ;	unspecified, using default values
 11782  200000                     	org	2097152
 11783  200000  FF                 	db	255
 11784                           
 11785                           ;Config register IDLOC1 @ 0x200001
 11786                           ;	unspecified, using default values
 11787  200001                     	org	2097153
 11788  200001  FF                 	db	255
 11789                           
 11790                           ;Config register IDLOC2 @ 0x200002
 11791                           ;	unspecified, using default values
 11792  200002                     	org	2097154
 11793  200002  FF                 	db	255
 11794                           
 11795                           ;Config register IDLOC3 @ 0x200003
 11796                           ;	unspecified, using default values
 11797  200003                     	org	2097155
 11798  200003  FF                 	db	255
 11799                           
 11800                           ;Config register IDLOC4 @ 0x200004
 11801                           ;	unspecified, using default values
 11802  200004                     	org	2097156
 11803  200004  FF                 	db	255
 11804                           
 11805                           ;Config register IDLOC5 @ 0x200005
 11806                           ;	unspecified, using default values
 11807  200005                     	org	2097157
 11808  200005  FF                 	db	255
 11809                           
 11810                           ;Config register IDLOC6 @ 0x200006
 11811                           ;	unspecified, using default values
 11812  200006                     	org	2097158
 11813  200006  FF                 	db	255
 11814                           
 11815                           ;Config register IDLOC7 @ 0x200007
 11816                           ;	unspecified, using default values
 11817  200007                     	org	2097159
 11818  200007  FF                 	db	255
 11819                           
 11820                           	psect	config
 11821                           
 11822                           ; Padding undefined space
 11823  300000                     	org	3145728
 11824  300000  FF                 	db	255
 11825                           
 11826                           ;Config register CONFIG1H @ 0x300001
 11827                           ;	Oscillator Selection bits
 11828                           ;	OSC = HSPLL, HS oscillator, PLL enabled (Clock Frequency = 4 x FOSC1)
 11829                           ;	Fail-Safe Clock Monitor Enable bit
 11830                           ;	FCMEN = OFF, Fail-Safe Clock Monitor disabled
 11831                           ;	Internal/External Oscillator Switchover bit
 11832                           ;	IESO = OFF, Two-Speed Start-up disabled
 11833  300001                     	org	3145729
 11834  300001  06                 	db	6
 11835                           
 11836                           ;Config register CONFIG2L @ 0x300002
 11837                           ;	Power-up Timer Enable bit
 11838                           ;	PWRT = OFF, PWRT disabled
 11839                           ;	Brown-out Reset Enable bits
 11840                           ;	BOREN = OFF, Brown-out Reset disabled in hardware and software
 11841                           ;	Brown-out Voltage bits
 11842                           ;	BORV = 3, Minimum setting
 11843  300002                     	org	3145730
 11844  300002  19                 	db	25
 11845                           
 11846                           ;Config register CONFIG2H @ 0x300003
 11847                           ;	Watchdog Timer
 11848                           ;	WDT = OFF, WDT disabled (control is placed on the SWDTEN bit)
 11849                           ;	Watchdog Timer Postscale Select bits
 11850                           ;	WDTPS = 32768, 1:32768
 11851  300003                     	org	3145731
 11852  300003  1E                 	db	30
 11853                           
 11854                           ;Config register CONFIG3L @ 0x300004
 11855                           ;	Processor Data Memory Mode Select bits
 11856                           ;	MODE = MC, Microcontroller mode
 11857                           ;	Address Bus Width Select bits
 11858                           ;	ADDRBW = ADDR20BIT, 20-bit Address Bus
 11859                           ;	Data Bus Width Select bit
 11860                           ;	DATABW = DATA16BIT, 16-bit External Bus mode
 11861                           ;	External Bus Data Wait Enable bit
 11862                           ;	WAIT = OFF, Wait selections are unavailable for table reads and table writes
 11863  300004                     	org	3145732
 11864  300004  F3                 	db	243
 11865                           
 11866                           ;Config register CONFIG3H @ 0x300005
 11867                           ;	CCP2 MUX bit
 11868                           ;	CCP2MX = PORTC, ECCP2 input/output is multiplexed with RC1
 11869                           ;	ECCP MUX bit
 11870                           ;	ECCPMX = PORTE, ECCP1/3 (P1B/P1C/P3B/P3C) are multiplexed onto RE6, RE5, RE4 and RE3 r
      +                          espectively
 11871                           ;	Low-Power Timer1 Oscillator Enable bit
 11872                           ;	LPT1OSC = OFF, Timer1 configured for higher power operation
 11873                           ;	MCLR Pin Enable bit
 11874                           ;	MCLRE = ON, MCLR pin enabled; RG5 input pin disabled
 11875  300005                     	org	3145733
 11876  300005  83                 	db	131
 11877                           
 11878                           ;Config register CONFIG4L @ 0x300006
 11879                           ;	Stack Full/Underflow Reset Enable bit
 11880                           ;	STVREN = ON, Stack full/underflow will cause Reset
 11881                           ;	Single-Supply ICSP Enable bit
 11882                           ;	LVP = OFF, Single-Supply ICSP disabled
 11883                           ;	Boot Block Size Select bits
 11884                           ;	BBSIZ = BB2K, 1K word (2 Kbytes) Boot Block size
 11885                           ;	Extended Instruction Set Enable bit
 11886                           ;	XINST = OFF, Instruction set extension and Indexed Addressing mode disabled (Legacy mo
      +                          de)
 11887                           ;	Background Debugger Enable bit
 11888                           ;	DEBUG = OFF, Background debugger disabled, RB6 and RB7 configured as general purpose I
      +                          /O pins
 11889  300006                     	org	3145734
 11890  300006  81                 	db	129
 11891                           
 11892                           ; Padding undefined space
 11893  300007                     	org	3145735
 11894  300007  FF                 	db	255
 11895                           
 11896                           ;Config register CONFIG5L @ 0x300008
 11897                           ;	Code Protection bit Block 0
 11898                           ;	CP0 = OFF, Block 0 (000800, 001000 or 002000-003FFFh) not code-protected
 11899                           ;	Code Protection bit Block 1
 11900                           ;	CP1 = OFF, Block 1 (004000-007FFFh) not code-protected
 11901                           ;	Code Protection bit Block 2
 11902                           ;	CP2 = OFF, Block 2 (008000-00BFFFh) not code-protected
 11903                           ;	Code Protection bit Block 3
 11904                           ;	CP3 = OFF, Block 3 (00C000-00FFFFh) not code-protected
 11905                           ;	Code Protection bit Block 4
 11906                           ;	CP4 = OFF, Block 4 (010000-013FFFh) not code-protected
 11907                           ;	Code Protection bit Block 5
 11908                           ;	CP5 = OFF, Block 5 (014000-017FFFh) not code-protected
 11909                           ;	Code Protection bit Block 6
 11910                           ;	CP6 = OFF, Block 6 (01BFFF-018000h) not code-protected
 11911                           ;	Code Protection bit Block 7
 11912                           ;	CP7 = OFF, Block 7 (01C000-01FFFFh) not code-protected
 11913  300008                     	org	3145736
 11914  300008  FF                 	db	255
 11915                           
 11916                           ;Config register CONFIG5H @ 0x300009
 11917                           ;	Boot Block Code Protection bit
 11918                           ;	CPB = OFF, Boot Block (000000-0007FFh) not code-protected
 11919                           ;	Data EEPROM Code Protection bit
 11920                           ;	CPD = OFF, Data EEPROM not code-protected
 11921  300009                     	org	3145737
 11922  300009  C0                 	db	192
 11923                           
 11924                           ;Config register CONFIG6L @ 0x30000A
 11925                           ;	Write Protection bit Block 0
 11926                           ;	WRT0 = OFF, Block 0 (000800, 001000 or 002000-003FFFh) not write-protected
 11927                           ;	Write Protection bit Block 1
 11928                           ;	WRT1 = OFF, Block 1 (004000-007FFFh) not write-protected
 11929                           ;	Write Protection bit Block 2
 11930                           ;	WRT2 = OFF, Block 2 (008000-00BFFFh) not write-protected
 11931                           ;	Write Protection bit Block 3
 11932                           ;	WRT3 = OFF, Block 3 (00C000-00FFFFh) not write-protected
 11933                           ;	Write Protection bit Block 4
 11934                           ;	WRT4 = OFF, Block 4 (010000-013FFFh) not write-protected
 11935                           ;	Write Protection bit Block 5
 11936                           ;	WRT5 = OFF, Block 5 (014000-017FFFh) not write-protected
 11937                           ;	Write Protection bit Block 6
 11938                           ;	WRT6 = OFF, Block 6 (01BFFF-018000h) not write-protected
 11939                           ;	Write Protection bit Block 7
 11940                           ;	WRT7 = OFF, Block 7 (01C000-01FFFFh) not write-protected
 11941  30000A                     	org	3145738
 11942  30000A  FF                 	db	255
 11943                           
 11944                           ;Config register CONFIG6H @ 0x30000B
 11945                           ;	Configuration Register Write Protection bit
 11946                           ;	WRTC = OFF, Configuration registers (300000-3000FFh) not write-protected
 11947                           ;	Boot Block Write Protection bit
 11948                           ;	WRTB = OFF, Boot Block (000000-007FFF, 000FFF or 001FFFh) not write-protected
 11949                           ;	Data EEPROM Write Protection bit
 11950                           ;	WRTD = OFF, Data EEPROM not write-protected
 11951  30000B                     	org	3145739
 11952  30000B  E0                 	db	224
 11953                           
 11954                           ;Config register CONFIG7L @ 0x30000C
 11955                           ;	Table Read Protection bit Block 0
 11956                           ;	EBTR0 = OFF, Block 0 (000800, 001000 or 002000-003FFFh) not protected from table reads
      +                           executed in other blocks
 11957                           ;	Table Read Protection bit Block 1
 11958                           ;	EBTR1 = OFF, Block 1 (004000-007FFFh) not protected from table reads executed in other
      +                           blocks
 11959                           ;	Table Read Protection bit Block 2
 11960                           ;	EBTR2 = OFF, Block 2 (008000-00BFFFh) not protected from table reads executed in other
      +                           blocks
 11961                           ;	Table Read Protection bit Block 3
 11962                           ;	EBTR3 = OFF, Block 3 (00C000-00FFFFh) not protected from table reads executed in other
      +                           blocks
 11963                           ;	Table Read Protection bit Block 4
 11964                           ;	EBTR4 = OFF, Block 4 (010000-013FFFh) not protected from table reads executed in other
      +                           blocks
 11965                           ;	Table Read Protection bit Block 5
 11966                           ;	EBTR5 = OFF, Block 5 (014000-017FFFh) not protected from table reads executed in other
      +                           blocks
 11967                           ;	Table Read Protection bit Block 6
 11968                           ;	EBTR6 = OFF, Block 6 (018000-01BFFFh) not protected from table reads executed in other
      +                           blocks
 11969                           ;	Table Read Protection bit Block 7
 11970                           ;	EBTR7 = OFF, Block 7 (01C000-01FFFFh) not protected from table reads executed in other
      +                           blocks
 11971  30000C                     	org	3145740
 11972  30000C  FF                 	db	255
 11973                           
 11974                           ;Config register CONFIG7H @ 0x30000D
 11975                           ;	Boot Block Table Read Protection bit
 11976                           ;	EBTRB = OFF, Boot Block (000000-007FFF, 000FFF or 001FFFh) not protected from table re
      +                          ads executed in other blocks
 11977  30000D                     	org	3145741
 11978  30000D  40                 	db	64
 11979                           tosu	equ	0xFFF
 11980                           tosh	equ	0xFFE
 11981                           tosl	equ	0xFFD
 11982                           stkptr	equ	0xFFC
 11983                           pclatu	equ	0xFFB
 11984                           pclath	equ	0xFFA
 11985                           pcl	equ	0xFF9
 11986                           tblptru	equ	0xFF8
 11987                           tblptrh	equ	0xFF7
 11988                           tblptrl	equ	0xFF6
 11989                           tablat	equ	0xFF5
 11990                           prodh	equ	0xFF4
 11991                           prodl	equ	0xFF3
 11992                           indf0	equ	0xFEF
 11993                           postinc0	equ	0xFEE
 11994                           postdec0	equ	0xFED
 11995                           preinc0	equ	0xFEC
 11996                           plusw0	equ	0xFEB
 11997                           fsr0h	equ	0xFEA
 11998                           fsr0l	equ	0xFE9
 11999                           wreg	equ	0xFE8
 12000                           indf1	equ	0xFE7
 12001                           postinc1	equ	0xFE6
 12002                           postdec1	equ	0xFE5
 12003                           preinc1	equ	0xFE4
 12004                           plusw1	equ	0xFE3
 12005                           fsr1h	equ	0xFE2
 12006                           fsr1l	equ	0xFE1
 12007                           bsr	equ	0xFE0
 12008                           indf2	equ	0xFDF
 12009                           postinc2	equ	0xFDE
 12010                           postdec2	equ	0xFDD
 12011                           preinc2	equ	0xFDC
 12012                           plusw2	equ	0xFDB
 12013                           fsr2h	equ	0xFDA
 12014                           fsr2l	equ	0xFD9
 12015                           status	equ	0xFD8

Data Sizes:
    Strings     78
    Constant    0
    Data        48
    BSS         474
    Persistent  0
    Stack       0

Auto Spaces:
    Space          Size  Autos    Used
    COMRAM           94     93      93
    BANK0           160    124     159
    BANK1           256     27     254
    BANK2           256      0     132
    BANK3           256      0     128
    BANK4           256      0       0
    BANK5           256      0       0
    BANK6           256      0       0
    BANK7           256      0       0
    BANK8           256      0       0
    BANK9           256      0       0
    BANK10          256      0       0
    BANK11          256      0       0
    BANK12          256      0       0
    BANK13          256      0       0
    BANK14          256      0       0
    BANK15           96      0       0

Pointer List with Targets:

    strncmp@_r	PTR const unsigned char  size(2) Largest target is 4
		 -> STR_104(CODE[3]), STR_100(CODE[3]), STR_95(CODE[3]), STR_91(CODE[3]), 
		 -> STR_86(CODE[4]), STR_82(CODE[4]), STR_77(CODE[3]), STR_72(CODE[3]), 
		 -> STR_67(CODE[4]), STR_62(CODE[3]), STR_57(CODE[3]), STR_52(CODE[4]), 
		 -> STR_47(CODE[3]), STR_42(CODE[3]), STR_37(CODE[4]), STR_32(CODE[3]), 
		 -> STR_28(CODE[3]), STR_23(CODE[3]), STR_19(CODE[3]), STR_14(CODE[4]), 
		 -> STR_10(CODE[4]), 

    strncmp@r	PTR const unsigned char  size(2) Largest target is 4
		 -> STR_104(CODE[3]), STR_100(CODE[3]), STR_95(CODE[3]), STR_91(CODE[3]), 
		 -> STR_86(CODE[4]), STR_82(CODE[4]), STR_77(CODE[3]), STR_72(CODE[3]), 
		 -> STR_67(CODE[4]), STR_62(CODE[3]), STR_57(CODE[3]), STR_52(CODE[4]), 
		 -> STR_47(CODE[3]), STR_42(CODE[3]), STR_37(CODE[4]), STR_32(CODE[3]), 
		 -> STR_28(CODE[3]), STR_23(CODE[3]), STR_19(CODE[3]), STR_14(CODE[4]), 
		 -> STR_10(CODE[4]), 

    strncmp@_l	PTR const unsigned char  size(2) Largest target is 5
		 -> STR_7(CODE[5]), 

    strncmp@l	PTR const unsigned char  size(2) Largest target is 5
		 -> STR_7(CODE[5]), 

    strlen@s	PTR const unsigned char  size(2) Largest target is 32
		 -> stoa@nuls(COMRAM[7]), dbuf(BANK1[32]), ?_snprintf(BANK0[2]), 

    strlen@a	PTR const unsigned char  size(2) Largest target is 32
		 -> stoa@nuls(COMRAM[7]), dbuf(BANK1[32]), ?_snprintf(BANK0[2]), 

    strcmp@r	PTR const unsigned char  size(2) Largest target is 4
		 -> STR_6(CODE[4]), STR_5(CODE[4]), STR_4(CODE[4]), STR_3(CODE[4]), 
		 -> STR_2(CODE[4]), STR_1(CODE[4]), 

    strcmp@l	PTR const unsigned char  size(2) Largest target is 4
		 -> evaluate_packet@command(BANK1[4]), 

    fputs@s	PTR const unsigned char  size(2) Largest target is 32
		 -> dbuf(BANK1[32]), 

    fputs@fp	PTR struct _IO_FILE size(2) Largest target is 7
		 -> vsnprintf@f(BANK0[6]), 

    fputc@fp.buffer	PTR unsigned char  size(2) Largest target is 9
		 -> int_to_hex_and_push@hexStr(BANK0[9]), 

    fputc@fp	PTR struct _IO_FILE size(2) Largest target is 7
		 -> vsnprintf@f(BANK0[6]), 

    atoi@s	PTR const unsigned char  size(2) Largest target is 5
		 -> STR_7(CODE[5]), 

    vfprintf@ap	PTR PTR void  size(2) Largest target is 2
		 -> snprintf@ap(COMRAM[2]), 

    vfprintf@fp	PTR struct _IO_FILE size(2) Largest target is 7
		 -> vsnprintf@f(BANK0[6]), 

    vfprintf@fmt	PTR const unsigned char  size(2) Largest target is 5
		 -> STR_7(CODE[5]), 

    vfprintf@cfmt	PTR unsigned char  size(2) Largest target is 5
		 -> STR_7(CODE[5]), 

    vfpfcnvrt@cp	PTR unsigned char  size(2) Largest target is 2
		 -> ?_snprintf(BANK0[2]), 

    vfpfcnvrt@vp	PTR void  size(2) Largest target is 2
		 -> ?_snprintf(BANK0[2]), 

    vfpfcnvrt@fp	PTR struct _IO_FILE size(2) Largest target is 7
		 -> vsnprintf@f(BANK0[6]), 

    vfpfcnvrt@ap	PTR PTR void  size(2) Largest target is 2
		 -> snprintf@ap(COMRAM[2]), 

    vfpfcnvrt@fmt	PTR PTR unsigned char  size(2) Largest target is 2
		 -> vfprintf@cfmt(COMRAM[2]), 

    xtoa@fp	PTR struct _IO_FILE size(2) Largest target is 7
		 -> vsnprintf@f(BANK0[6]), 

    utoa@fp	PTR struct _IO_FILE size(2) Largest target is 7
		 -> vsnprintf@f(BANK0[6]), 

    stoa@fp	PTR struct _IO_FILE size(2) Largest target is 7
		 -> vsnprintf@f(BANK0[6]), 

    stoa@s	PTR unsigned char  size(2) Largest target is 2
		 -> ?_snprintf(BANK0[2]), 

    stoa@cp	PTR unsigned char  size(2) Largest target is 7
		 -> stoa@nuls(COMRAM[7]), ?_snprintf(BANK0[2]), 

    otoa@fp	PTR struct _IO_FILE size(2) Largest target is 7
		 -> vsnprintf@f(BANK0[6]), 

    dtoa@fp	PTR struct _IO_FILE size(2) Largest target is 7
		 -> vsnprintf@f(BANK0[6]), 

    ctoa@fp	PTR struct _IO_FILE size(2) Largest target is 7
		 -> vsnprintf@f(BANK0[6]), 

    pad@fp	PTR struct _IO_FILE size(2) Largest target is 7
		 -> vsnprintf@f(BANK0[6]), 

    pad@buf	PTR unsigned char  size(2) Largest target is 32
		 -> dbuf(BANK1[32]), 

    vsnprintf@ap	PTR PTR void  size(2) Largest target is 2
		 -> snprintf@ap(COMRAM[2]), 

    vsnprintf@fmt	PTR const unsigned char  size(2) Largest target is 5
		 -> STR_7(CODE[5]), 

    vsnprintf@s	PTR unsigned char  size(2) Largest target is 9
		 -> int_to_hex_and_push@hexStr(BANK0[9]), 

    S1629_IO_FILE$buffer	PTR unsigned char  size(2) Largest target is 9
		 -> int_to_hex_and_push@hexStr(BANK0[9]), 

    f.buffer	PTR unsigned char  size(2) Largest target is 9
		 -> int_to_hex_and_push@hexStr(BANK0[9]), 

    snprintf@fmt	PTR const unsigned char  size(2) Largest target is 5
		 -> STR_7(CODE[5]), 

    snprintf@s	PTR unsigned char  size(2) Largest target is 9
		 -> int_to_hex_and_push@hexStr(BANK0[9]), 

    snprintf@ap	PTR void [1] size(2) Largest target is 2
		 -> ?_snprintf(BANK0[2]), 

    write_string_to_output_buffer@str	PTR unsigned char  size(2) Largest target is 8
		 -> set_message@string_1145(BANK0[5]), set_message@string_1143(BANK0[8]), set_message@string_1141(BANK0[8]), set_message@string_1139(BANK0[8]), 
		 -> set_message@string(BANK0[8]), set_message@start_string(BANK0[4]), 

    int_to_hex_and_push@ptr	PTR unsigned char  size(2) Largest target is 9
		 -> int_to_hex_and_push@hexStr(BANK0[9]), 

    get_command_type@command	PTR unsigned char  size(2) Largest target is 4
		 -> evaluate_packet@command(BANK1[4]), 

    hex_string_to_int@packet	PTR unsigned char  size(2) Largest target is 128
		 -> packet(BANK3[128]), 


Critical Paths under _main in COMRAM

    None.

Critical Paths under _highPriorityISR in COMRAM

    i2_buffer_pop->i2_buffer_is_empty
    _write_string_to_output_buffer->_buffer_push
    _int_to_hex_and_push->_snprintf
    _snprintf->_vsnprintf
    _vsnprintf->_vfprintf
    _vfprintf->_vfpfcnvrt
    _vfpfcnvrt->_xtoa
    _xtoa->_pad
    _toupper->_islower
    _utoa->_pad
    _stoa->_fputc
    _otoa->_pad
    _dtoa->_pad
    _pad->_fputs
    _fputs->_fputc
    _abs->___aomod
    _ctoa->_fputc
    _atoi->_isspace

Critical Paths under _main in BANK0

    None.

Critical Paths under _highPriorityISR in BANK0

    _highPriorityISR->_set_message
    _set_message->_int_to_hex_and_push
    _int_to_hex_and_push->_snprintf
    _snprintf->_vsnprintf
    _vfprintf->_vfpfcnvrt

Critical Paths under _main in BANK1

    _main->_evaluate_packet
    _initialize_variables->_initialize_buffer
    _evaluate_packet->_hex_string_to_int
    _hex_string_to_int->_char_to_int
    _get_command_type->_strcmp
    _create_packet->_buffer_pop
    _buffer_pop->_buffer_is_empty

Critical Paths under _highPriorityISR in BANK1

    None.

Critical Paths under _main in BANK2

    None.

Critical Paths under _highPriorityISR in BANK2

    None.

Critical Paths under _main in BANK3

    None.

Critical Paths under _highPriorityISR in BANK3

    None.

Critical Paths under _main in BANK4

    None.

Critical Paths under _highPriorityISR in BANK4

    None.

Critical Paths under _main in BANK5

    None.

Critical Paths under _highPriorityISR in BANK5

    None.

Critical Paths under _main in BANK6

    None.

Critical Paths under _highPriorityISR in BANK6

    None.

Critical Paths under _main in BANK7

    None.

Critical Paths under _highPriorityISR in BANK7

    None.

Critical Paths under _main in BANK8

    None.

Critical Paths under _highPriorityISR in BANK8

    None.

Critical Paths under _main in BANK9

    None.

Critical Paths under _highPriorityISR in BANK9

    None.

Critical Paths under _main in BANK10

    None.

Critical Paths under _highPriorityISR in BANK10

    None.

Critical Paths under _main in BANK11

    None.

Critical Paths under _highPriorityISR in BANK11

    None.

Critical Paths under _main in BANK12

    None.

Critical Paths under _highPriorityISR in BANK12

    None.

Critical Paths under _main in BANK13

    None.

Critical Paths under _highPriorityISR in BANK13

    None.

Critical Paths under _main in BANK14

    None.

Critical Paths under _highPriorityISR in BANK14

    None.

Critical Paths under _main in BANK15

    None.

Critical Paths under _highPriorityISR in BANK15

    None.

Call Graph Tables:

 ---------------------------------------------------------------------------------
 (Depth) Function   	        Calls       Base Space   Used Autos Params    Refs
 ---------------------------------------------------------------------------------
 (0) _main                                                 0     0      0    3166
                      _create_packet
                    _evaluate_packet
                         _initialize
               _initialize_variables
 ---------------------------------------------------------------------------------
 (1) _initialize_variables                                 0     0      0     226
                       _clear_packet
                  _initialize_buffer
 ---------------------------------------------------------------------------------
 (2) _initialize_buffer                                    5     5      0     158
                                              0 BANK1      5     5      0
 ---------------------------------------------------------------------------------
 (1) _initialize                                           0     0      0       0
 ---------------------------------------------------------------------------------
 (1) _evaluate_packet                                     13    13      0    2691
                                             14 BANK1     13    13      0
                   _get_command_type
                  _hex_string_to_int
 ---------------------------------------------------------------------------------
 (2) _hex_string_to_int                                   11     7      4    1117
                                              3 BANK1     11     7      4
                        _char_to_int
 ---------------------------------------------------------------------------------
 (3) _char_to_int                                          3     1      2     198
                                              0 BANK1      3     1      2
 ---------------------------------------------------------------------------------
 (2) _get_command_type                                     2     0      2    1232
                                              5 BANK1      2     0      2
                             _strcmp
 ---------------------------------------------------------------------------------
 (3) _strcmp                                               5     1      4    1024
                                              0 BANK1      5     1      4
 ---------------------------------------------------------------------------------
 (1) _create_packet                                        2     2      0     249
                                              5 BANK1      2     2      0
                    _buffer_is_empty
                         _buffer_pop
                       _clear_packet
 ---------------------------------------------------------------------------------
 (2) _clear_packet                                         2     2      0      68
                                              0 BANK1      2     2      0
 ---------------------------------------------------------------------------------
 (2) _buffer_pop                                           2     2      0      69
                                              3 BANK1      2     2      0
                    _buffer_is_empty
 ---------------------------------------------------------------------------------
 (3) _buffer_is_empty                                      3     1      2      22
                                              0 BANK1      3     1      2
 ---------------------------------------------------------------------------------
 Estimated maximum stack depth 3
 ---------------------------------------------------------------------------------
 (Depth) Function   	        Calls       Base Space   Used Autos Params    Refs
 ---------------------------------------------------------------------------------
 (4) _highPriorityISR                                     15    15      0   98821
                                            109 BANK0     15    15      0
                        _buffer_push
                _int_to_hex_and_push
                        _set_message
                  i2_buffer_is_empty
                       i2_buffer_pop
 ---------------------------------------------------------------------------------
 (5) i2_buffer_pop                                         2     2      0      69
                                              3 COMRAM     2     2      0
                  i2_buffer_is_empty
 ---------------------------------------------------------------------------------
 (6) i2_buffer_is_empty                                    3     1      2      22
                                              0 COMRAM     3     1      2
 ---------------------------------------------------------------------------------
 (5) _set_message                                         43    43      0   49965
                                             66 BANK0     43    43      0
                        _buffer_push
                _int_to_hex_and_push
      _write_string_to_output_buffer
 ---------------------------------------------------------------------------------
 (6) _write_string_to_output_buffer                        2     0      2    1023
                                              2 COMRAM     2     0      2
                        _buffer_push
 ---------------------------------------------------------------------------------
 (6) _int_to_hex_and_push                                 13    11      2   48153
                                             53 BANK0     13    11      2
                        _buffer_push
                           _snprintf
 ---------------------------------------------------------------------------------
 (7) _snprintf                                            12     4      8   47133
                                             89 COMRAM     4     4      0
                                             45 BANK0      8     0      8
                          _vsnprintf
 ---------------------------------------------------------------------------------
 (8) _vsnprintf                                           23    15      8   46759
                                             84 COMRAM     5     5      0
                                             27 BANK0     18    10      8
                           _vfprintf
 ---------------------------------------------------------------------------------
 (9) _vfprintf                                             8     2      6   45996
                                             76 COMRAM     8     2      6
                          _vfpfcnvrt
 ---------------------------------------------------------------------------------
 (10) _vfpfcnvrt                                          46    40      6   45535
                                             66 COMRAM    10     4      6
                                              0 BANK0     27    27      0
                               _atoi
                               _ctoa
                               _dtoa
                              _fputc
                            _isdigit
                               _otoa
                               _stoa
                            _strncmp
                               _utoa
                               _xtoa
 ---------------------------------------------------------------------------------
 (11) _xtoa                                               39    28     11    7759
                                             27 COMRAM    39    28     11
                            _isalpha
                            _isupper
                                _pad
                            _toupper
 ---------------------------------------------------------------------------------
 (12) _toupper                                             8     6      2     412
                                              6 COMRAM     8     6      2
                            _islower
 ---------------------------------------------------------------------------------
 (13) _islower                                             6     4      2     161
                                              0 COMRAM     6     4      2
 ---------------------------------------------------------------------------------
 (12) _isupper                                             6     4      2     161
                                              0 COMRAM     6     4      2
 ---------------------------------------------------------------------------------
 (12) _isalpha                                             6     4      2     161
                                              0 COMRAM     6     4      2
 ---------------------------------------------------------------------------------
 (11) _utoa                                               32    22     10    6799
                                             27 COMRAM    32    22     10
                            ___lodiv
                            ___lomod
                                _pad
 ---------------------------------------------------------------------------------
 (12) ___lomod                                            17     1     16     311
                                              0 COMRAM    17     1     16
 ---------------------------------------------------------------------------------
 (12) ___lodiv                                            25     9     16     314
                                              0 COMRAM    25     9     16
 ---------------------------------------------------------------------------------
 (11) _strncmp                                            11     5      6    5013
                                              0 COMRAM    11     5      6
 ---------------------------------------------------------------------------------
 (11) _stoa                                               22    18      4    2595
                                              9 COMRAM    22    18      4
                              _fputc
                             _strlen
 ---------------------------------------------------------------------------------
 (11) _otoa                                               34    24     10    6244
                                             27 COMRAM    34    24     10
                                _pad
 ---------------------------------------------------------------------------------
 (11) _dtoa                                               36    26     10    7398
                                             27 COMRAM    36    26     10
                            ___aodiv
                            ___aomod
                                _abs
                                _pad
 ---------------------------------------------------------------------------------
 (12) _pad                                                11     5      6    5293
                                             16 COMRAM    11     5      6
                              _fputc
                              _fputs
                             _strlen
 ---------------------------------------------------------------------------------
 (13) _strlen                                              4     2      2     242
                                              0 COMRAM     4     2      2
 ---------------------------------------------------------------------------------
 (13) _fputs                                               7     3      4    2147
                                              9 COMRAM     7     3      4
                              _fputc
 ---------------------------------------------------------------------------------
 (12) _abs                                                 4     2      2     142
                                             18 COMRAM     4     2      2
                            ___aomod (ARG)
 ---------------------------------------------------------------------------------
 (12) ___aomod                                            18     2     16     448
                                              0 COMRAM    18     2     16
 ---------------------------------------------------------------------------------
 (12) ___aodiv                                            26    10     16     452
                                              0 COMRAM    26    10     16
 ---------------------------------------------------------------------------------
 (11) _ctoa                                                8     5      3    2101
                                              9 COMRAM     8     5      3
                              _fputc
 ---------------------------------------------------------------------------------
 (14) _fputc                                               9     5      4    1746
                                              0 COMRAM     9     5      4
                              _putch
 ---------------------------------------------------------------------------------
 (15) _putch                                               1     1      0       0
 ---------------------------------------------------------------------------------
 (11) _atoi                                               15    13      2    1764
                                              7 COMRAM    15    13      2
                             ___wmul
                            _isdigit
                            _isspace
 ---------------------------------------------------------------------------------
 (12) _isspace                                             7     5      2     207
                                              0 COMRAM     7     5      2
 ---------------------------------------------------------------------------------
 (11) _isdigit                                             6     4      2     313
                                              0 COMRAM     6     4      2
 ---------------------------------------------------------------------------------
 (12) ___wmul                                              6     2      4     771
                                              0 COMRAM     6     2      4
 ---------------------------------------------------------------------------------
 (7) _buffer_push                                          2     1      1     522
                                              0 COMRAM     2     1      1
 ---------------------------------------------------------------------------------
 Estimated maximum stack depth 15
 ---------------------------------------------------------------------------------

 Call Graph Graphs:

 _main (ROOT)
   _create_packet
     _buffer_is_empty
     _buffer_pop
       _buffer_is_empty
     _clear_packet
   _evaluate_packet
     _get_command_type
       _strcmp
     _hex_string_to_int
       _char_to_int
   _initialize
   _initialize_variables
     _clear_packet
     _initialize_buffer

 _highPriorityISR (ROOT)
   _buffer_push
   _int_to_hex_and_push
     _buffer_push
     _snprintf
       _vsnprintf
         _vfprintf
           _vfpfcnvrt
             _atoi
               ___wmul
               _isdigit
               _isspace
             _ctoa
               _fputc
                 _putch
             _dtoa
               ___aodiv
               ___aomod
               _abs
                 ___aomod (ARG)
               _pad
                 _fputc
                   _putch
                 _fputs
                   _fputc
                     _putch
                 _strlen
             _fputc
               _putch
             _isdigit
             _otoa
               _pad
                 _fputc
                   _putch
                 _fputs
                   _fputc
                     _putch
                 _strlen
             _stoa
               _fputc
                 _putch
               _strlen
             _strncmp
             _utoa
               ___lodiv
               ___lomod
               _pad
                 _fputc
                   _putch
                 _fputs
                   _fputc
                     _putch
                 _strlen
             _xtoa
               _isalpha
               _isupper
               _pad
                 _fputc
                   _putch
                 _fputs
                   _fputc
                     _putch
                 _strlen
               _toupper
                 _islower
   _set_message
     _buffer_push
     _int_to_hex_and_push
       _buffer_push
       _snprintf
         _vsnprintf
           _vfprintf
             _vfpfcnvrt
               _atoi
                 ___wmul
                 _isdigit
                 _isspace
               _ctoa
                 _fputc
                   _putch
               _dtoa
                 ___aodiv
                 ___aomod
                 _abs
                   ___aomod (ARG)
                 _pad
                   _fputc
                     _putch
                   _fputs
                     _fputc
                       _putch
                   _strlen
               _fputc
                 _putch
               _isdigit
               _otoa
                 _pad
                   _fputc
                     _putch
                   _fputs
                     _fputc
                       _putch
                   _strlen
               _stoa
                 _fputc
                   _putch
                 _strlen
               _strncmp
               _utoa
                 ___lodiv
                 ___lomod
                 _pad
                   _fputc
                     _putch
                   _fputs
                     _fputc
                       _putch
                   _strlen
               _xtoa
                 _isalpha
                 _isupper
                 _pad
                   _fputc
                     _putch
                   _fputs
                     _fputc
                       _putch
                   _strlen
                 _toupper
                   _islower
     _write_string_to_output_buffer
       _buffer_push
   i2_buffer_is_empty
   i2_buffer_pop
     i2_buffer_is_empty

 Address spaces:
Name               Size   Autos  Total    Cost      Usage
BIGRAM             F5F      0       0      37        0.0%
EEDATA             400      0       0       0        0.0%
BITBANK14          100      0       0      33        0.0%
BANK14             100      0       0      34        0.0%
BITBANK13          100      0       0      30        0.0%
BANK13             100      0       0      31        0.0%
BITBANK12          100      0       0      28        0.0%
BANK12             100      0       0      29        0.0%
BITBANK11          100      0       0      26        0.0%
BANK11             100      0       0      27        0.0%
BITBANK10          100      0       0      24        0.0%
BANK10             100      0       0      25        0.0%
BITBANK9           100      0       0      22        0.0%
BANK9              100      0       0      23        0.0%
BITBANK8           100      0       0      20        0.0%
BANK8              100      0       0      21        0.0%
BITBANK7           100      0       0      18        0.0%
BANK7              100      0       0      19        0.0%
BITBANK6           100      0       0      16        0.0%
BANK6              100      0       0      17        0.0%
BITBANK5           100      0       0      14        0.0%
BANK5              100      0       0      15        0.0%
BITBANK4           100      0       0      12        0.0%
BANK4              100      0       0      13        0.0%
BITBANK3           100      0       0      10        0.0%
BANK3              100      0      80      11       50.0%
BITBANK2           100      0       0       8        0.0%
BANK2              100      0      84       9       51.6%
BITBANK1           100      0       0       6        0.0%
BANK1              100     1B      FE       7       99.2%
BITBANK0            A0      0       0       4        0.0%
BANK0               A0     7C      9F       5       99.4%
BITBANK15           60      0       0      35        0.0%
BANK15              60      0       0      36        0.0%
BITCOMRAM           5E      0       0       0        0.0%
COMRAM              5E     5D      5D       1       98.9%
BITSFR               0      0       0     200        0.0%
SFR                  0      0       0     200        0.0%
STACK                0      0       0       2        0.0%
NULL                 0      0       0       0        0.0%
ABS                  0      0     2FE      32        0.0%
DATA                 0      0     2FE       3        0.0%
CODE                 0      0       0       0        0.0%


Microchip Technology PIC18 Macro Assembler V2.30 build 20200825195618 
Symbol Table                                                                                   Thu May 30 15:05:54 2024

                   ___wmul@multiplicand 0003                       _hex_string_to_int 458A  
                                   l203 4620                                     l204 4628  
                                   l151 4588                                     l208 3DFA  
                                   l217 29DC                                     l250 4348  
                                   l155 4A90                                     l171 4754  
                                   l228 2806                                     l253 486A  
                                   l174 4758                                     l190 3FE4  
                                   l247 4CF4                                     l177 3FE4  
                                   l329 4CB6                                     l194 46C4  
                                   l197 46C0                                     _abs 4C3C  
                                   _pad 4414                      ?_hex_string_to_int 01E6  
             i2buffer_is_empty@buf_type 0003                                     wreg 000FE8  
                            _TXSTA1bits 000FAC                 set_message@message_sent 00CB  
                        create_packet@c 01E8                                    ?_abs 0013  
                                  l4100 4508                                    l4022 4A6C  
                                  l4014 4A36                                    l1374 4964  
                                  l4102 4518                                    l4016 4A48  
                                  l4120 46CA                                    l4200 3DF2  
                                  l4112 4558                                    l4104 451C  
                                  l4130 470C                                    l4122 46DC  
                                  l4050 4640                                    l4114 4568  
                                  l4106 453C                     ??_hex_string_to_int 01EA  
                                  l4140 474C                                    l4124 46E2  
                                  l4132 4718                                    l4204 3DF8  
                                  l4060 4680                                    l4052 4650  
                                  l4300 2712                                    l4116 456C  
                                  l4134 471E                                    l4126 46F4  
                                  l4118 46CA                                    l4150 4CC4  
                                  l4310 279A                                    l4302 2734  
                                  l4136 4732                                    l4128 46F8  
                                  l4152 4CD4                                    l4144 4CBA  
                                  l4240 3F0C                                    l4080 4926  
                                  l4064 4690                                    l4056 4660  
                                  l4048 462E                                    l4160 45BC  
                                  l4320 27BC                                    l4312 27AE  
                                  l4304 273E                                    l4400 4346  
                                  l4138 4738                                    l4154 4CD8  
                                  l4250 3F44                                    l4242 3F1C  
                                  l4082 493E                                    l4074 48EC  
                                  l4170 3D0C                                    l4066 46A0  
                                  l4058 4670                                    l4162 45E0  
                                  l4330 280A                                    l4322 27BE  
                                  l4314 27B0                                    l4306 275E  
                                  l4410 4814                                    l4260 3F7E  
                                  l4244 3F26                                    l4252 3F4E  
                                  l4076 48F0                                    l4180 3D40  
                                  l4068 46B0                                    l4164 45F2  
                                  l4156 458A                                    l4340 2858  
                                  l4316 27B8                                    l4324 27E6  
                                  l4308 277E                                    l4420 481E  
                                  l4412 4816                                    l4404 47E4  
                                  l4092 44DE                                    l4270 3FCA  
                                  l4262 3F90                                    l4254 3F5E  
                                  l4246 3F38                                    l4238 3EF2  
                                  l4078 48F8                                    l4182 3D68  
                                  l4174 3D12                                    l4158 45A0  
                                  l4166 45F6                                    l4350 28D2  
                                  l4342 287E                                    l4334 2820  
                                  l4326 27F8                                    l4318 27BA  
                                  l4430 4850                                    l4422 4820  
                                  l4414 4818                                    l4406 4808  
                                  l4094 44F0                                    l4272 3FDC  
                                  l4264 3FA0                                    l4256 3F68  
                                  l4248 3F40                                    l4192 3D9C  
                                  l4176 3D3A                                    l4168 3CE2  
                                  l4360 293E                                    l4352 28D4  
                                  l4344 2892                                    l4336 283C  
                                  l4328 27FA                                    l4280 26A6  
                                  l4440 4866                                    l4432 4852  
                                  l4424 4822                                    l4416 481A  
                                  l4408 480A                                    l4266 3FB0  
                                  l4194 3DC4                                    l4186 3D6E  
                                  l4362 2950                                    l4354 28FE  
                                  l4346 2894                                    l4338 2850  
                                  l4370 29D2                                    l4290 26CE  
                                  l4442 4868                                    l4434 4860  
                                  l4426 4824                                    l4418 481C  
                                  l4268 3FB8                                    l4188 3D96  
                                  l4364 2952                                    l4356 2912  
                                  l4348 28BE                                    l4292 26EA  
                                  l4276 268E                                    l4436 4862  
                                  l4428 4832                                    l4380 427E  
                                  l4198 3DCA                                    l4358 2914  
                                  l4294 26EE                                    l4286 26AE  
                                  l4438 4864                                    l4390 433C  
                                  l4382 428A                                    ?_pad 0011  
                                  l4296 2702                                    l4368 2980  
                                  l4288 26CA                                    l4392 433E  
                                  l4384 4294                                    l4298 270A  
                                  l4394 4340                                    l4386 4338  
                                  l4396 4342                                    l4388 433A  
                                  l4660 4C7C                                    l4398 4344  
                                  l4670 4C92                                    l4662 4C80  
                                  l4664 4C84                                    l4674 4CAA  
                                  l4666 4C88                                    l4676 4CAE  
                                  l4668 4C8C                                    l4758 2994  
                                  STR_1 1032                                    STR_2 1026  
                                  STR_3 102A                                    STR_4 1036  
                                  STR_5 102E                                    STR_6 1022  
                                  STR_7 1001                                    STR_8 100A  
                                  _LATB 000F8A                                    u5000 3F90  
                                  u5001 3F8C                                    u5010 3FCA  
                                  u5011 3FC6                                    u5020 3FDC  
                                  u5100 28AE                                    u5021 3FD8  
                                  u5101 28A6                                    _IPR1 000F9F  
                                  u5110 28D2                                    u5030 26A2  
                                  u5111 28CE                                    u5031 269E  
                                  _PIE1 000F9D                                    u5120 28EE  
                                  u5040 26EA                                    u5121 28E6  
                                  u5041 26E6                                    u5130 2912  
                                  u5050 27AE                                    u5131 290E  
                                  u5051 27AA                                    u5140 292E  
                                  u5108 28B2                                    u5060 27F8  
                                  u5141 2926                                    u5061 27F4  
                                  u5150 2950                                    u5070 281C  
                                  u5151 294C                                    u5071 2818  
                                  u4600 4A88                                    u5160 2970  
                                  u5128 28F2                                    u5080 2850  
                                  u4601 4A82                                    u5161 2966  
                                  u5081 284C                                    u4610 4A8A  
                                  u5090 2892                                    u5091 288E  
                                  u4700 46B0                                    u5148 2932  
                                  u4701 46AC                                    u4710 4926  
                                  u4711 4922                                    u4720 493E  
                                  u4800 45E0                                    u5168 2974  
                                  u4721 493A                                    u4801 45DC  
                                  u4570 4A48                                    u4650 4640  
                                  u4810 4620                                    u4730 44F0  
                                  u4571 4A44                                    u4651 463C  
                                  u4811 461C                                    u4731 44EC  
                                  u4580 4A62                                    u4820 3D0C  
                                  u4660 4650                                    u4740 4538  
                                  u4581 4A5C                                    u4821 3D08  
                                  u4661 464C                                    u4741 4534  
                                  u4590 4A64                                    u4830 3D3A  
                                  u4670 4670                                    u4750 4588  
                                  u4831 3D36                                    u4671 466C  
                                  u4751 4584                                    u4760 46DC  
                                  u4840 3D68                                    u4680 4680  
                                  u5720 4CA6                                    u4761 46D8  
                                  u4841 3D64                                    u4681 467C  
                                  u5721 4CA2                                    _PIR1 000F9E  
                                  u4770 470C                                    u4850 3D96  
                                  u4690 46A0                                    u4771 4708  
                                  u4851 3D92                                    u4691 469C  
                                  u4780 474C                                    u4860 3DC4  
                                  u4781 4748                                    u4861 3DC0  
                                  u4790 4CF4                                    u4950 3F0C  
                                  u4870 3DF2                                    u4791 4CF0  
                                  u4951 3F08                                    u4871 3DEE  
                                  u4960 3F1C                                    u4961 3F18  
                                  u4970 3F38                                    u4971 3F34  
                                  u4980 3F5E                                    u4981 3F5A  
                                  u4990 3F7A                                    u4991 3F76  
                                  abs@a 0013                                    _dbuf 0193  
                                  _atoi 35B0                                    _ctoa 40D6  
                                  _main 4C7C                                    _dtoa 29DE  
                                  _prec 00E0               __size_of_get_command_type 011A  
                                  _otoa 33C0                                    _nout 00DC  
                                  pad@i 0018                                    pad@p 0015  
                                  fsr1h 000FE2                                    fsr2h 000FDA  
                                  indf1 000FE7                                    indf2 000FDF  
                                  fsr1l 000FE1                                    pad@w 001A  
                                  fsr2l 000FD9                                    _stoa 38DC  
                                  btemp 005E                                    _utoa 31BC  
                                  _xtoa 2CC2                                    prodh 000FF4  
                                  prodl 000FF3                                    start 000E  
                  _initialize_variables 427E               initialize_buffer@buf_type 01E3  
                       ??_create_packet 01E8                            ___param_bank 000000  
                          buffer_push@c 0002                                   ??_abs 0015  
                                 ??_pad 0017               __end_of_hex_string_to_int 462A  
                          _BAUDCON1bits 000F7E                         __end_of___aodiv 38DC  
                                 ?_atoi 0008                                   ?_ctoa 000A  
                                 ?_main 0001                                   ?_dtoa 001C  
                       __end_of___aomod 3BC6                                   STR_10 100A  
                                 STR_12 100E                                   STR_14 100E  
                                 STR_30 1040                                   STR_23 100F  
                                 STR_32 1040                                   STR_42 1017  
                                 STR_26 103D                                   STR_50 1012  
                                 STR_19 100B                                   STR_35 1016  
                                 STR_28 103D                                   STR_52 1012  
                                 STR_60 1043                                   STR_37 1016  
                                 STR_45 1046                                   STR_62 1043  
                                 STR_47 1046                                   STR_72 101B  
                                 STR_80 101E                                   STR_57 1013  
                                 STR_65 101A                                   STR_82 101E  
                                 STR_67 101A                                   STR_91 101F  
                                 STR_75 1049                                   STR_84 1006  
                                 STR_77 1049                                   STR_86 1006  
                                 STR_95 1007                                   STR_98 104C  
                                 ?_otoa 001C                  int_to_hex_and_push@num 0095  
                                 ?_stoa 000A                  int_to_hex_and_push@ptr 00A0  
                                 ?_utoa 001C                                   _T0CON 000FD5  
                       __end_of___lodiv 40D6                                   ?_xtoa 001C  
                       __end_of___lomod 427E                                   i2l320 2662  
                                 i2l161 48B4                                   i2l313 2610  
                                 i2l155 4B4A                                   i2l171 47E0  
                                 i2l315 261E                                   i2l332 4EC8  
                                 i2l165 48EA                                   i2l174 47E2  
                                 i2l318 2650                                   i2l265 4E42  
                                 i2l259 49CA                                   i2l446 38DA  
                                 i2l288 31BA                                   i2l459 3BC4  
                                 i2l770 40B4                                   i2l780 425C  
                                 i2l777 40D4                                   i2l787 427C  
                          vfpfcnvrt@fmt 0045                                   _TMR0H 000FD7  
                          vfpfcnvrt@llu 0073                                   _TMR0L 000FD6  
                                 _TRISB 000F93                                   _TRISC 000F94  
                                 _TRISH 000F99                    __end_of_clear_packet 4CF6  
                      set_message@F5190 01BB                        set_message@F5184 01DF  
                      set_message@F5192 01B3                        set_message@F5194 01DA  
                      set_message@F5186 01CB                        set_message@F5188 01C3  
                                 _flags 00E2                                   _errno 0184  
                                 _fputc 434A                         __end_of_isalpha 4D32  
                                 _fputs 4BF8                         __end_of_isdigit 4DDA  
                                 _input 0100                        evaluate_packet@i 01FA  
                                 _speed 00FA                                   atoi@n 0015  
                                 pad@fp 0011                                   atoi@s 0008  
                                 _width 00DE                                   ctoa@c 000C  
                                 _putch 4ECA                                   ctoa@l 000E  
                                 ctoa@w 0010                                   dtoa@d 001E  
                                 dtoa@i 003E                                   dtoa@n 0036  
                                 dtoa@p 0030                                   dtoa@s 0034  
                                 dtoa@w 0032                         __end_of_islower 4D6A  
                       __end_of_isspace 4BF8                         __end_of_isupper 4DA2  
                                 tablat 000FF5                                   otoa@d 001E  
                                 otoa@i 003C                                   otoa@n 0034  
                                 otoa@p 002E                                   otoa@t 0030  
                                 otoa@w 0032                    __size_of_char_to_int 009C  
                                 plusw1 000FE3                                   plusw2 000FDB  
                                 stoa@i 0016                                   stoa@l 001E  
                                 stoa@p 001C                                   stoa@s 000C  
                                 stoa@w 0018                                   ttemp5 005F  
                                 ttemp6 0062                                   ttemp7 0066  
                                 utoa@d 001E                                   utoa@i 003A  
                                 utoa@n 0032                                   utoa@p 002E  
                                 utoa@w 0030                                   status 000FD8  
                 __size_ofi2_buffer_pop 008A                                   wtemp8 005F  
                                 xtoa@c 0041                                   xtoa@d 001E  
                                 xtoa@i 003F                                   xtoa@n 0037  
                                 xtoa@p 0033                                   xtoa@w 0035  
                                 xtoa@x 0026                         __end_of_strncmp 3EF2  
                       __end_of_toupper 4AF0                        ___lodiv@dividend 0001  
                 ?_initialize_variables 0001                            _toupper$2006 000D  
                      buffer_pop@result 01E7                         __initialization 4B4C  
                          __end_of_atoi 3754                            __end_of_ctoa 41AE  
                          __end_of_main 4CBA                            __end_of_dtoa 2CC2  
                          __end_of_otoa 35B0                            __end_of_stoa 3A62  
                          __end_of_utoa 33C0                            __end_of_xtoa 2F9C  
                    initialize_buffer@i 01E4        write_string_to_output_buffer@str 0003  
                                ??_atoi 000A                                  ??_ctoa 000D  
                                ??_main 01FE                                  ??_dtoa 0026  
                                ??_otoa 0026                                  ??_stoa 000E  
                                ??_utoa 0026                                  ??_xtoa 0027  
                         __activetblptr 000003                        ___lodiv@quotient 0011  
                          i2_buffer_pop 475A                                  _ADCON0 000FC2  
                                _ADCON1 000FC1                                  _ADCON2 000FC0  
                                ?_fputc 0001                                  STR_100 104C  
                                STR_102 103A                                  ?_fputs 000A  
                                STR_104 103A                                  _ADRESH 000FC4  
                                _ADRESL 000FC3                                  ?_putch 0001  
              __size_of_highPriorityISR 2686                                  _GODONE 007E11  
                                i2l1010 4EA2                                  i2l1111 2CC0  
                                i2l1023 3CC0                                  i2l1018 3CE0  
                                i2l1116 33F8                                  i2l1125 3548  
                                i2l1118 3400                                  i2l1150 3A60  
                                i2l1134 395C                                  i2l1127 35AE  
                                i2l1312 374A                                  i2l1080 413C  
                                i2l1064 445A                                  i2l1136 3964  
                                i2l1320 4D30                                  i2l1232 22F4  
                                i2l1145 3A0E                                  i2l1209 114A  
                                i2l1146 3A58                                  i2l1170 2CFA  
                                i2l1315 3752                                  i2l1083 417E  
                                i2l1067 449C                                  i2l1091 2A7E  
                                i2l1155 31F4                                  i2l3100 4DDA  
                                i2l1340 4DA0                                  i2l1172 2D02  
                                i2l1085 41AC                                  i2l1069 44D8  
                                i2l1093 2A86                                  i2l1165 33BE  
                                i2l1157 31FC                                  i2l1405 4D68  
                                i2l1326 4DD8                                  i2l1334 4BF6  
                                i2l3102 4DE6                                  i2l3110 4D32  
                                i2l3120 3754                                  i2l3104 4DEA  
                                i2l3200 3FE6                                  i2l4000 3C58  
                                i2l1281 4C72                                  i2l1193 2F36  
                                i2l3114 4EA4                                  i2l3130 3798  
                                i2l3122 3758                                  i2l3106 4E02  
                                i2l3210 403A                                  i2l3202 3FF2  
                                i2l4002 3C6C                                  i2l4010 3CD8  
                                i2l1355 4412                                  i2l1363 4C3A  
                                i2l1195 2F9A                                  i2l1179 2D98  
                                i2l3116 4EC0                                  i2l3300 40EA  
                                i2l3140 37EE                                  i2l3132 37B8  
                                i2l3124 3766                                  i2l1284 4C7A  
                                i2l1380 4E0E                                  i2l3220 40AE  
                                i2l3212 404C                                  i2l3204 4010  
                                i2l1276 4A28                                  i2l4004 3C7A  
                                i2l1277 4A30                                  i2l4030 4890  
                                i2l1366 4ECA                                  i2l3302 40F6  
                                i2l3150 3870                                  i2l3142 3802  
                                i2l3134 37BC                                  i2l3126 3786  
                                i2l3214 407A                                  i2l3206 4018  
                                i2l3230 41F6                                  i2l3222 41AE  
                                i2l4006 3CB0                                  i2l4040 48CA  
                                i2l4032 4894                                  i2l3080 435C  
                                i2l3320 418E                                  i2l3312 4134  
                                i2l3304 4102                                  i2l3160 38BA  
                                i2l3152 3872                                  i2l3144 3810  
                                i2l3136 37C8                                  i2l3128 378A  
                                i2l3240 4424                                  i2l3400 3436  
                                i2l1384 3EF0                                  i2l3216 409A  
                                i2l3208 402C                                  i2l3232 4224  
                                i2l3224 41CC                                  i2l4008 3CC8  
                                i2l4042 48CE                                  i2l4034 48A8  
                                i2l4026 486E                                  i2l3082 436E  
                                i2l3322 41A0                                  i2l3314 4148  
                                i2l3306 4110                                  i2l3154 3884  
                                i2l3146 3822                                  i2l3138 37E6  
                                i2l3170 3A94                                  i2l3250 447A  
                                i2l3242 4438                                  i2l3330 2A26  
                                i2l3410 3468                                  i2l3402 3442  
                                i2l3218 409C                                  i2l3234 4244  
                                i2l3226 41D4                                  i2l1394 4AE6  
                                i2l4210 498C                                  i2l4044 48E2  
                                i2l4028 487E                                  i2l3084 4378  
                                i2l3316 415C                                  i2l3308 4122  
                                i2l3148 3850                                  i2l3156 388A  
                                i2l3180 3AEC                                  i2l3172 3A98  
                                i2l3164 3A62                                  i2l3260 4C3C  
                                i2l3092 4BF8                                  i2l3252 447E  
                                i2l3244 4446                                  i2l3340 2A8E  
                                i2l3332 2A46                                  i2l3420 351E  
                                i2l3412 346E                                  i2l3404 3448  
                                i2l3236 4256                                  i2l3228 41E8  
                                i2l3500 3322                                  i2l4212 499A  
                                i2l4220 4E14                                  i2l4038 48B8  
                                i2l3086 4396                                  i2l3078 434A  
                                i2l3318 4160                                  i2l3158 389A  
                                i2l3190 3B6E                                  i2l3182 3B00  
                                i2l3174 3AA6                                  i2l3166 3A66  
                                i2l3262 4C56                                  i2l3094 4C04  
                                i2l3254 44AC                                  i2l3246 4452  
                                i2l3238 4414                                  i2l3350 2AC6  
                                i2l3342 2AA0                                  i2l3334 2A56  
                                i2l3326 29DE                                  i2l3430 3580  
                                i2l3422 3538                                  i2l3406 3450  
                                i2l3414 34CC                                  i2l3502 3334  
                                i2l3510 3396                                  i2l4214 49AC  
                                i2l4222 4E26                                  i2l1399 4AEE  
                                i2l3600 364E                                  i2l3088 43CC  
                                i2l3184 3B0E                                  i2l3192 3B74  
                                i2l3176 3AC6                                  i2l3168 3A74  
                                i2l3096 4C16                                  i2l3256 44C0  
                                i2l3248 4466                                  i2l3352 2ACC  
                                i2l3360 2BBE                                  i2l3344 2AAE  
                                i2l3336 2A58                                  i2l3328 29FE  
                                i2l3424 3558                                  i2l3432 3586  
                                i2l3416 34E6                                  i2l3408 3462  
                                i2l3440 38F6                                  i2l3504 3352  
                                i2l3264 4D6A                                  i2l3272 4A92  
                                i2l3520 2CEE                                  i2l4216 49B2  
                                i2l4208 4966                                  i2l4224 4E2A  
                                i2l3282 4DA2                                  i2l3290 4BBE  
                                i2l3602 3656                                  i2l3194 3B84  
                                i2l3186 3B3C                                  i2l3178 3AE4  
                                i2l3098 4C1A                                  i2l3362 2BD8  
                                i2l3370 2C3A                                  i2l3354 2B4E  
                                i2l3346 2AB4                                  i2l3338 2A72  
                                i2l3426 356A                                  i2l3418 3504  
                                i2l3450 393A                                  i2l3442 3908  
                                i2l3506 336C                                  i2l3530 2D52  
                                i2l3522 2D18                                  i2l3514 2CC2  
                                i2l4218 4E10                                  i2l4234 4B28  
                                i2l4226 4AF2                                  i2l3292 4BEC  
                                i2l3612 370A                                  i2l3604 368E  
                                i2l3196 3BA4                                  i2l3188 3B5C  
                                i2l3380 2C80                                  i2l3372 2C4C  
                                i2l3364 2BF6                                  i2l3356 2B54  
                                i2l3348 2ABC                                  i2l3428 3570  
                                i2l3460 39BE                                  i2l3444 3910  
                                i2l3436 38DC                                  i2l3508 3386  
                                i2l3268 4CF6                                  i2l3276 4AC8  
                                i2l3532 2D58                                  i2l3524 2D20  
                                i2l3516 2CD2                                  i2l3700 1260  
                                i2l4500 30FC                                  i2l4228 4B02  
                                i2l3294 4BF0                                  i2l3286 4BA6  
                                i2l3614 371C                                  i2l3382 2C88  
                                i2l3374 2C5C                                  i2l3366 2C10  
                                i2l3358 2B5A                                  i2l3390 33D0  
                                i2l3462 39CA                                  i2l3454 3988  
                                i2l3446 3924                                  i2l3438 38EE  
                                i2l3630 3E40                                  i2l3622 3DFC  
                                i2l3278 4ADA                                  i2l3550 2E2A  
                                i2l3542 2DCC                                  i2l3534 2D60  
                                i2l3526 2D40                                  i2l3518 2CD4  
                                i2l3710 1300                                  i2l3702 1288  
                                i2l4086 4E74                                  i2l4510 312E  
                                i2l4502 3108                                  i2l3288 4BAA  
                                i2l3616 372E                                  i2l3608 36C8  
                                i2l3376 2C62                                  i2l3384 2C98  
                                i2l3368 2C2A                                  i2l3392 33D2  
                                i2l3472 3A22                                  i2l3464 39E8  
                                i2l3456 399C                                  i2l3448 392C  
                                i2l3632 3E60                                  i2l3624 3E26  
                                i2l3480 31CC                                  i2l3544 2DDE  
                                i2l3552 2E3E                                  i2l3536 2D7C  
                                i2l3560 2EB8                                  i2l3528 2D48  
                                i2l3800 1946                                  i2l3712 1320  
                                i2l3704 1290                                  i2l3720 138C  
                                i2l4088 4E7C                                  i2l4520 316A  
                                i2l4512 3140                                  i2l4504 3112  
                                i2l4600 2478                                  i2l3298 40D6  
                                i2l3378 2C74                                  i2l3394 33EC  
                                i2l3474 3A36                                  i2l3466 39EC  
                                i2l3458 39A0                                  i2l3634 3E80  
                                i2l3490 3236                                  i2l3482 31CE  
                                i2l3570 2F46                                  i2l3562 2ED4  
                                i2l3554 2E4E                                  i2l3538 2D8C  
                                i2l3802 197C                                  i2l3810 19CC  
                                i2l3730 1438                                  i2l3722 13B4  
                                i2l3714 132E                                  i2l3706 129E  
                                i2l3650 109C                                  i2l3642 1050  
                                i2l4530 31AE                                  i2l4514 3152  
                                i2l4522 3172                                  i2l4506 3114  
                                i2l4450 2FAE                                  i2l4610 24F8  
                                i2l4602 248C                                  i2l3580 35B0  
                                i2l3396 3428                                  i2l3388 33C0  
                                i2l3476 3A3A                                  i2l3468 39F0  
                                i2l3636 3E92                                  i2l3628 3E32  
                                i2l3492 323C                                  i2l3484 31E8  
                                i2l3572 2F4C                                  i2l3564 2EF2  
                                i2l3556 2E54                                  i2l3548 2E18  
                                i2l3812 1A02                                  i2l3820 1A4E  
                                i2l3804 19B4                                  i2l3740 1526  
                                i2l3732 146E                                  i2l3724 13E6  
                                i2l3708 12C6                                  i2l3660 10C2  
                                i2l3652 10A8                                  i2l3644 1078  
                                i2l4532 31B8                                  i2l4524 3184  
                                i2l4516 315E                                  i2l4508 311C  
                                i2l4460 3008                                  i2l4452 2FC0  
                                i2l4540 475C                                  i2l4620 2556  
                                i2l4612 250C                                  i2l4604 24B2  
                                i2l3590 3626                                  i2l3582 35C4  
                                i2l3398 3430                                  i2l3638 3EC4  
                                i2l3494 32B2                                  i2l3486 3224  
                                i2l3478 31BC                                  i2l3574 2F5C  
                                i2l3566 2F0C                                  i2l3558 2E5A  
                                i2l3910 206E                                  i2l3902 1FC8  
                                i2l3822 1A76                                  i2l3830 1AC0  
                                i2l3814 1A3A                                  i2l3806 19C0  
                                i2l3750 15D4                                  i2l3742 155C  
                                i2l3734 14B8                                  i2l3718 137A  
                                i2l3654 10AA                                  i2l3646 1086  
                                i2l4534 31B8                                  i2l4526 3196  
                                i2l4518 3168                                  i2l4470 303E  
                                i2l4454 2FE0                                  i2l4462 3012  
                                i2l4446 2F9C                                  i2l4550 479C  
                                i2l4542 476C                                  i2l4630 25AE  
                                i2l4622 2558                                  i2l4614 2532  
                                i2l4606 24C0                                  i2l3592 362A  
                                i2l3584 35C8                                  i2l3496 32B8  
                                i2l3488 322C                                  i2l3576 2F72  
                                i2l3568 2F26                                  i2l3920 2100  
                                i2l3904 1FFE                                  i2l3832 1AF6  
                                i2l3840 1B42                                  i2l3824 1AAC  
                                i2l3760 1680                                  i2l3752 15FC  
                                i2l3728 1402                                  i2l3680 1158  
                                i2l3672 10D4                                  i2l3664 10C8  
                                i2l3656 10BC                                  i2l3648 1098  
                                i2l4528 31A2                                  i2l4472 3050  
                                i2l4480 3070                                  i2l4456 2FEA  
                                i2l4448 2FA6                                  i2l4560 47D8  
                                i2l4544 4772                                  i2l4552 47A8  
                                i2l4632 25C0                                  i2l4624 257C  
                                i2l4640 25E8                                  i2l4616 2540  
                                i2l4608 24C8                                  i2l3586 35CC  
                                i2l3498 32BE                                  i2l3922 211A  
                                i2l3930 216A                                  i2l3906 2034  
                                i2l3850 1C1A                                  i2l3842 1B6A  
                                i2l3834 1B2E                                  i2l3770 173E  
                                i2l3762 16B6                                  i2l3738 14F0  
                                i2l3690 11D4                                  i2l3682 115A  
                                i2l4490 30BC                                  i2l4482 3082  
                                i2l4474 305C                                  i2l4458 3006  
                                i2l4466 301A                                  i2l4554 47AE  
                                i2l4546 4784                                  i2l4538 475C  
                                i2l4642 25F6                                  i2l4650 262C  
                                i2l4634 25D0                                  i2l4626 258C  
                                i2l4618 2548                                  i2l4570 2338  
                                i2l3596 3630                                  i2l3588 35EC  
                                i2l3932 21A0                                  i2l3924 2128  
                                i2l3908 205E                                  i2l3916 20B0  
                                i2l3860 1CEE                                  i2l3852 1C50  
                                i2l3844 1BB6                                  i2l3772 1786  
                                i2l3748 15AC                                  i2l3692 11F4  
                                i2l3684 1182                                  i2l3676 10E0  
                                i2l3668 10CE                                  i2l4492 30BE  
                                i2l4484 3094                                  i2l4476 3066  
                                i2l4468 302C                                  i2l4556 47C0  
                                i2l4548 4788                                  i2l4652 263A  
                                i2l4644 25F8                                  i2l4628 259E  
                                i2l4636 25DC                                  i2l4580 238E  
                                i2l4572 234A                                  i2l4564 2320  
                                i2l3598 3646                                  i2l3950 229C  
                                i2l3934 21D6                                  i2l3918 20D8  
                                i2l3758 164A                                  i2l3694 1202  
                                i2l3686 11B8                                  i2l3678 1138  
                                i2l4486 30A6                                  i2l4494 30C6  
                                i2l4478 3068                                  i2l4558 47C4  
                                i2l4654 2648                                  i2l4638 25E6  
                                i2l4590 2400                                  i2l4582 23A0  
                                i2l4566 232E                                  i2l4574 234E  
                                i2l3936 2200                                  i2l3944 2252  
                                i2l3880 1E26                                  i2l3872 1DAE  
                                i2l3864 1D26                                  i2l3856 1C70  
                                i2l3848 1BF2                                  i2l3792 18BE  
                                i2l3784 1846                                  i2l3776 17BE  
                                i2l3768 1708                                  i2l3688 11C6  
                                i2l4760 110A                                  i2l3960 22BA  
                                i2l4496 30D8                                  i2l4488 30B2  
                                i2l4656 2654                                  i2l4648 2624  
                                i2l4592 2414                                  i2l4584 23BC  
                                i2l4576 235C                                  i2l4568 2330  
                                _INTCON 000FF2                                  i2l4762 3678  
                                i2l3962 22E2                                  i2l3946 227A  
                                i2l3954 22A8                                  i2l3938 2210  
                                i2l3890 1EE4                                  i2l3882 1E5C  
                                i2l3874 1DD6                                  i2l3866 1D5C  
                                i2l3858 1CA6                                  i2l3794 18F4  
                                i2l3786 186E                                  i2l3778 17F4  
                                i2l3698 124E                                  i2l4498 30EA  
                                i2l4658 2660                                  i2l4594 2432  
                                i2l4586 23CA                                  i2l4578 235E  
                                i2l3948 2288                                  i2l3892 1F1A  
                                i2l3980 4A08                                  i2l4596 2440  
                                i2l4588 23D2                                  i2l3894 1F44  
                                i2l3974 49CC                                  i2l3990 3BEE  
                                i2l3982 3BC6                                  i2l4598 2448  
                                i2l3896 1F54                                  i2l3888 1EAE  
                                i2l3976 49D4                                  i2l3992 3C0C  
                                i2l3984 3BDA                                  i2l3898 1F8C  
                                i2l3978 49E2                                  i2l3994 3C18  
                                i2l3986 3BE4                                  i2l3996 3C24  
                                i2l3998 3C34                                  _RCREG1 000FAE  
                                _RCSTA1 000FAB                           vfpfcnvrt@done 0062  
                                _SPBRG1 000FAF                                  _TXREG1 000FAD  
                                _TXSTA1 000FAC                            vfprintf@cfmt 0053  
                          ?_set_message 0001                               ??___aodiv 0011  
                             ??___aomod 0011                                  ___wmul 4EA4  
        ?_write_string_to_output_buffer 0003                        _rb4_pressed_flag 00EC  
                             ??___lodiv 0011                               ??___lomod 0011  
                  __size_of_buffer_push 0080              __size_of_hex_string_to_int 00A0  
                                _packet 0300                                  clear_0 4B72  
                                clear_1 4B7E                                  clear_2 4B8A  
                                clear_3 4B96             __end_of_int_to_hex_and_push 49CC  
                                pad@buf 0013                                  ctoa@fp 000A  
                                _output 0200                                  dtoa@fp 001C  
                                _strcmp 48EC                  set_message@string_1141 00B2  
                set_message@string_1143 00BA                  set_message@string_1145 00C2  
                set_message@string_1139 00AA                                  _strlen 4DDA  
                                fputc@c 0001                                  fputs@c 000E  
                                fputs@i 000F                                  fputs@s 000A  
                             ??_isalpha 0003                               ??_isdigit 0003  
                             ??_islower 0003                            __mediumconst 0000  
                             ??_isspace 0003                                  otoa@fp 001C  
                                tblptrh 000FF7                               ??_isupper 0003  
                                tblptrl 000FF6                                  tblptru 000FF8  
                                stoa@cp 001A                                  stoa@fp 000A  
                                putch@c 0001                        __end_of_vfprintf 4A32  
                                utoa@fp 001C                        __end_of_snprintf 4EA4  
                                xtoa@fp 001C                               ??_strncmp 0007  
                             ??_toupper 0009                              __accesstop 0060  
               __end_of__initialization 4B9C                  ??_initialize_variables 01E8  
                      _get_command_type 3CE2                       set_message@string 00A2  
                         ___rparam_used 000001                          __pcstackCOMRAM 0001  
                          __pidataBANK1 4E44                           __end_of_fputc 4414  
                         __end_of_fputs 4C3C                           __end_of_putch 4ECC  
                 __size_of_clear_packet 003C               int_to_hex_and_push@hexStr 0097  
                initialize_buffer@i_952 01E6                                 ??_fputc 0005  
                               ??_fputs 000E                                 ??_putch 0001  
                            __pbssBANK0 00DC                              __pbssBANK1 0100  
                            __pbssBANK2 0200                              __pbssBANK3 0300  
             evaluate_packet@led_number 01FC                   _packet_is_proccessing 018E  
                     ??_highPriorityISR 00CD                            _clear_packet 4CBA  
              __size_of_buffer_is_empty 0060                                 ?___wmul 0001  
                      _rb5_pressed_flag 00EA                __size_of_evaluate_packet 0350  
                            _alt_period 00F8                                 ?_strcmp 01E3  
                               ?_strlen 0001                      __size_of_vfpfcnvrt 12A6  
                            _buffer_pop 46C6                                 _SPBRGH1 000F7F  
                     _initialize_buffer 44DA                        ___lomod@dividend 0001  
               set_message@start_string 00C7                      ?_initialize_buffer 0001  
                               __Hparam 0000                                 __Lparam 0000  
                   ??_initialize_buffer 01E3                      __size_of_vsnprintf 011C  
                            _manualflag 0186                   __end_of_create_packet 3FE6  
                               ___aodiv 3754                                 ___aomod 3A62  
                     i2_buffer_is_empty 4AF0                         __size_of___wmul 0026  
                               ___lodiv 3FE6                                 ___lomod 41AE  
                             ?_vfprintf 004D                            __psmallconst 1000  
           evaluate_packet@command_type 01F7                    __size_of_set_message 0220  
                             ?_snprintf 008D                                 __pcinit 4B4C  
                               _rb4mode 00E4                      ?i2_buffer_is_empty 0001  
                               _rb5mode 018C                                 _rb6mode 018A  
                               _rb7mode 0188                     buffer_push@buf_type 0001  
                               __ramtop 1000                              _initialize 47E4  
                               __ptext0 4C7C                                 __ptext1 427E  
                               __ptext2 44DA                                 __ptext3 47E4  
                               __ptext4 268E                                 __ptext5 458A  
                               __ptext6 462A                                 __ptext7 3CE2  
                               __ptext8 48EC                                 __ptext9 3EF2  
                       __size_of_strcmp 007A                         __size_of_strlen 0036  
                          __size_of_abs 0040                            __size_of_pad 00C6  
                               _isalpha 4CF6                                 _isdigit 4DA2  
                               _islower 4D32                                 _isspace 4BA6  
                   ??i2_buffer_is_empty 0003                                 _isupper 4D6A  
             __end_of_initialize_buffer 458A                                 atoi@neg 000E  
               get_command_type@command 01E8                           ??_char_to_int 01E5  
                               _strncmp 3DFC                          __pintcode_body 22F6  
                               _toupper 4A92                    end_of_initialization 4B9C  
                               fputc@fp 0003                        highPriorityISR@c 00D9  
                               int_func 22F6                                 fputs@fp 000C  
                        _operation_mode 00FE               __end_ofi2_buffer_is_empty 4B4C  
                     __end_of_vfpfcnvrt 22F6                                 postdec1 000FE5  
                               postdec2 000FDD                                 postinc0 000FEE  
                               postinc1 000FE6                                 postinc2 000FDE  
                            ??_vfprintf 0053                        _rb6_pressed_flag 00E8  
                            ??_snprintf 005A                                 strcmp@l 01E3  
                               strcmp@r 01E5                                 strlen@a 0003  
                    i2buffer_pop@result 0005                                 strlen@s 0001  
                             _PORTBbits 000F81                __end_of_get_command_type 3DFC  
                     ??_buffer_is_empty 01E5                       ??_evaluate_packet 01F1  
                    buffer_pop@buf_type 01E6                   highPriorityISR@result 00DA  
                             _TRISAbits 000F92                               _TRISBbits 000F93  
                             _TRISCbits 000F94                               _TRISDbits 000F95  
                           ?_buffer_pop 0001                       __end_of_vsnprintf 3CE2  
       ??_write_string_to_output_buffer 0005                     __end_of_char_to_int 46C6  
                         ??_buffer_push 0002                             vfpfcnvrt@ap 0047  
                           vfpfcnvrt@cp 0060                             vfpfcnvrt@fp 0043  
                           vfpfcnvrt@ll 0068                          __end_of___wmul 4ECA  
                           vfpfcnvrt@vp 0070                             ?_initialize 0001  
                        __end_of_strcmp 4966                          __end_of_strlen 4E10  
                   start_initialization 4B4C                         ___lodiv@divisor 0009  
                       ___lodiv@counter 0019            __size_of_int_to_hex_and_push 0066  
            __size_of_initialize_buffer 00B0                             __end_of_abs 4C7C  
                           __end_of_pad 44DA                         _highPriorityISR 0008  
         __size_of_initialize_variables 00CC                           clear_packet@i 01E3  
            __size_ofi2_buffer_is_empty 005C                             vfprintf@fmt 004F  
                   __size_of_buffer_pop 0094                                ??___wmul 0005  
                           __pdataBANK1 01B3                        _rb7_pressed_flag 00E6  
                   __end_of_buffer_push 48EC                                ??_strcmp 01E7  
                              ??_strlen 0003                            vsnprintf@cnt 0085  
                          vsnprintf@fmt 007F                           __pcstackBANK0 0060  
                         __pcstackBANK1 01E3                        ___aodiv@dividend 0001  
                           snprintf@fmt 0091                             _char_to_int 462A  
 __end_of_write_string_to_output_buffer 4E44  __size_of_write_string_to_output_buffer 0034  
         _write_string_to_output_buffer 4E10                      create_packet@c_965 01E9  
                   __size_of_initialize 0088                               _atoi$1915 0010  
                             _atoi$1916 0014                               _atoi$1917 0012  
               buffer_is_empty@buf_type 01E5                               _dtoa$1738 002E  
                             __pintcode 0008                                ?___aodiv 0001  
                              ?___aomod 0001                        ___aodiv@quotient 0013  
                              ?___lodiv 0001                                ?___lomod 0001  
                     __size_of_vfprintf 0066                             _alt_counter 00F6  
                     __size_of_snprintf 0030                         ___lomod@divisor 0009  
               __end_of_highPriorityISR 268E                             __smallconst 1000  
                       ___lomod@counter 0011                                _BAUDCON1 000F7E  
                              ?_isalpha 0001                                ?_isdigit 0001  
                              ?_islower 0001                                ?_isspace 0001  
                              ?_isupper 0001                           ?i2_buffer_pop 0001  
                          char_to_int@c 01E5                          __size_of_fputc 00CA  
                        __size_of_fputs 0044                                ?_strncmp 0001  
                              ?_toupper 0007                          __size_of_putch 0002  
                         _pkt_body_size 0190                      hex_string_to_int@i 01EF  
                        ___wmul@product 0005                                _LATAbits 000F89  
                              _LATBbits 000F8A                                _LATCbits 000F8B  
                              _LATDbits 000F8C                                _IPR1bits 000F9F  
                              _PIE1bits 000F9D                                i2u300_40 3850  
                              i2u300_41 384C                                i2u301_40 389A  
                              i2u301_41 3896                                i2u302_40 3A74  
                              i2u310_40 403A                                i2u302_41 3A70  
                              i2u310_41 4036                                i2u303_40 3AA6  
                              i2u311_40 407A                                i2u303_41 3AA2  
                              i2u311_41 4076                                i2u400_40 372E  
                              i2u304_40 3AE4                                i2u312_40 41CC  
                              i2u320_40 4D9A                                i2u400_41 372A  
                              i2u304_41 3AE0                                i2u312_41 41C8  
                              i2u320_41 4D94                                i2u305_40 3B0E  
                              i2u401_40 3E26                                i2u313_40 41F6  
                              i2u321_40 4D9C                                i2u305_41 3B0A  
                              i2u401_41 3E22                                i2u313_41 41F2  
                              i2u330_40 4BEC                                i2u306_40 3B3C  
                              i2u402_40 3E60                                i2u314_40 4224  
                              i2u322_40 4D2A                                i2u410_40 11C6  
                              i2u330_41 4BE8                                i2u306_41 3B38  
                              i2u402_41 3E5C                                i2u314_41 4220  
                              i2u322_41 4D24                                i2u410_41 11C2  
                              i2u331_40 40EA                                i2u307_40 3B84  
                              i2u315_40 4424                                i2u403_40 3E80  
                              i2u323_40 4D2C                                i2u411_40 1246  
                              i2u331_41 40E6                                i2u307_41 3B80  
                              i2u315_41 4420                                i2u403_41 3E7C  
                              i2u411_41 1240                                i2u332_40 4110  
                              i2u316_40 4446                                i2u340_40 2A72  
                              i2u404_40 3E92                                i2u324_40 4AC2  
                              i2u420_40 1438                                i2u412_40 1248  
                              i2u332_41 410C                                i2u316_41 4442  
                              i2u340_41 2A6E                                i2u404_41 3E8E  
                              i2u308_41 3FEC                                i2u324_41 4ABC  
                              i2u420_41 1434                                i2u333_40 4130  
                              i2u317_40 449C                                i2u341_40 2AA0  
                              i2u405_40 3EC4                                i2u309_40 4010  
                              i2u325_40 4AC4                                i2u421_40 146E  
                              i2u413_40 1260                                i2u333_41 412C  
                              i2u317_41 4498                                i2u341_41 2A9C  
                              i2u405_41 3EC0                                i2u309_41 400C  
                              i2u421_41 146A                                i2u413_41 125C  
                              i2u334_40 417E                                i2u318_40 44AC  
                              i2u350_40 2C74                                i2u342_40 2AAE  
                              i2u326_40 4ADA                                i2u430_40 186E  
                              i2u422_40 1526                                i2u414_40 1288  
                              i2u406_40 1078                                i2u334_41 417A  
                              i2u318_41 44A8                                i2u350_41 2C70  
                              i2u342_41 2AAA                                i2u326_41 4AD6  
                              i2u430_41 186A                                i2u422_41 1522  
                              i2u414_41 1284                                i2u406_41 1074  
                              i2u327_40 4DD2                                i2u335_40 418E  
                              i2u319_40 4C56                                i2u343_40 2BD8  
                              i2u351_40 33D0                                i2u431_40 18F4  
                              i2u423_40 155C                                i2u415_40 12C6  
                              i2u407_40 114A                                i2u327_41 4DCC  
                              i2u335_41 418A                                i2u319_41 4C52  
                              i2u343_41 2BD4                                i2u351_41 33CC  
                              i2u431_41 18F0                                i2u423_41 1558  
                              i2u415_41 12C2                                i2u407_41 1146  
                              i2u328_40 4DD4                                i2u344_40 2BF6  
                              i2u336_40 2A0E                                i2u360_40 356A  
                              i2u352_40 33EC                                i2u440_40 1DD6  
                              i2u432_40 197C                                i2u424_40 15D4  
                              i2u416_40 1372                                i2u408_40 1158  
                              i2u520_40 303E                                i2u344_41 2BF2  
                              i2u336_41 2A08                                i2u360_41 3566  
                              i2u352_41 33E8                                i2u440_41 1DD2  
                              i2u432_41 1978                                i2u424_41 15D0  
                              i2u416_41 136C                                i2u408_41 1154  
                              i2u520_41 303A                                i2u329_40 4BBE  
                              i2u345_40 2C10                                i2u337_40 2A10  
                              i2u353_40 34A6                                i2u441_40 1E5C  
                              i2u433_40 1A02                                i2u425_40 15FC  
                              i2u417_40 1374                                i2u409_40 1182  
                              i2u329_41 4BBA                                i2u345_41 2C0C  
                              i2u361_41 38E6                                i2u441_41 1E58  
                              i2u433_41 19FE                                i2u425_41 15F8  
                              i2u409_41 117E                                i2u521_41 3048  
                              _PIR1bits 000F9E                                i2u353_45 3494  
                              i2u290_40 43CC                                i2u346_40 2C2A  
                              i2u338_40 2A26                                i2u354_40 34E6  
                              i2u362_40 3908                                i2u370_40 31CC  
                              i2u450_40 227A                                i2u442_40 1EE4  
                              i2u434_40 1A76                                i2u426_40 1680  
                              i2u418_40 138C                                i2u522_40 3082  
                              i2u290_41 43C8                                i2u346_41 2C26  
                              i2u338_41 2A22                                i2u354_41 34E2  
                              i2u362_41 3904                                i2u370_41 31C8  
                              i2u450_41 2276                                i2u442_41 1EE0  
                              i2u434_41 1A72                                i2u426_41 167C  
                              i2u418_41 1388                                i2u530_41 314A  
                              i2u522_41 307E                                i2u291_40 4C3A  
                              i2u347_40 2C3A                                i2u339_40 2A56  
                              i2u355_40 3504                                i2u363_40 393A  
                              i2u371_40 31E8                                i2u443_40 1F1A  
                              i2u435_40 1AF6                                i2u427_40 16B6  
                              i2u419_40 13B4                                i2u451_40 4A28  
                              i2u531_40 3184                                i2u523_40 3094  
                              i2u291_41 4C36                                i2u347_41 2C36  
                              i2u339_41 2A52                                i2u355_41 3500  
                              i2u363_41 3936                                i2u371_41 31E4  
                              i2u443_41 1F16                                i2u435_41 1AF2  
                              i2u427_41 16B2                                i2u419_41 13B0  
                              i2u451_41 4A24                                i2u531_41 3180  
                              i2u523_41 3090                                i2u292_40 4E02  
                              i2u348_40 2C4C                                i2u356_40 351E  
                              i2u364_40 3958                                i2u372_40 3334  
                              i2u380_40 2D7C                                i2u444_40 1FFE  
                              i2u436_40 1B6A                                i2u428_40 173E  
                              i2u452_40 3BDA                                i2u540_40 2370  
                              i2u292_41 4DFE                                i2u348_41 2C48  
                              i2u356_41 351A                                i2u364_41 3954  
                              i2u372_41 3330                                i2u380_41 2D78  
                              i2u444_41 1FFA                                i2u436_41 1B66  
                              i2u428_41 173A                                i2u452_41 3BD6  
                              i2u532_41 318E                                i2u524_41 309E  
                              i2u349_40 2C5C                                i2u357_40 3538  
                              i2u365_40 3984                                i2u373_40 3352  
                              i2u293_40 4D62                                i2u381_40 2DC6  
                              i2u445_40 2034                                i2u437_40 1C1A  
                              i2u429_40 17F4                                i2u453_40 3C0C  
                              i2u525_40 30D8                                i2u517_40 2FC0  
                              i2u533_40 476C                                i2u541_40 238E  
                              i2u349_41 2C58                                i2u357_41 3534  
                              i2u365_41 3980                                i2u373_41 334E  
                              i2u293_41 4D5C                                i2u381_41 2DC0  
                              i2u445_41 2030                                i2u437_41 1C16  
                              i2u429_41 17F0                                i2u453_41 3C08  
                              i2u525_41 30D4                                i2u517_41 2FBC  
                              i2u533_41 4768                                i2u541_41 238A  
                              i2u462_40 487E                                i2u358_40 3548  
                              i2u366_40 39BE                                i2u374_40 336C  
                              i2u294_40 4D64                                i2u390_40 2F0C  
                              i2u382_40 2DC8                                i2u446_40 20D8  
                              i2u438_40 1CA6                                i2u454_40 3C6C  
                              i2u526_40 30EA                                i2u518_40 2FE0  
                              i2u534_40 479C                                i2u550_40 2440  
                              i2u542_40 23A0                                i2u462_41 487A  
                              i2u358_41 3544                                i2u366_41 39BA  
                              i2u374_41 3368                                i2u390_41 2F08  
                              i2u446_41 20D4                                i2u438_41 1CA2  
                              i2u454_41 3C68                                i2u526_41 30E6  
                              i2u518_41 2FDC                                i2u534_41 4798  
                              i2u550_41 243C                                i2u542_41 239C  
                       _buffer_is_empty 4A32                                i2u463_40 48A8  
                              i2u287_40 435C                                i2u295_40 3766  
                              i2u359_40 3558                                i2u367_40 3A0E  
                              i2u375_40 3386                                i2u391_40 2F26  
                              i2u383_40 2DDE                                i2u447_40 2100  
                              i2u439_40 1D5C                                i2u455_40 3C7A  
                              i2u519_40 302C                                i2u535_40 47D8  
                              i2u551_40 2458                                i2u543_40 23B2  
                              i2u463_41 48A4                                i2u287_41 4358  
                              i2u295_41 3762                                i2u359_41 3554  
                              i2u367_41 3A0A                                i2u375_41 3382  
                              i2u391_41 2F22                                i2u383_41 2DDA  
                              i2u447_41 20FC                                i2u439_41 1D58  
                              i2u455_41 3C76                                i2u527_41 30F4  
                              i2u519_41 3028                                i2u535_41 47D4  
                              i2u551_41 2452                                i2u543_41 23AA  
                              i2u464_40 48E2                                i2u288_40 436E  
                              i2u296_40 3798                                i2u368_40 3A1E  
                              i2u376_40 3396                                i2u392_40 2F36  
                              i2u384_40 2E12                                i2u448_40 21A0  
                              i2u456_40 3CB0                                i2u528_40 312E  
                              i2u560_40 250C                                i2u552_40 245A  
                              i2u544_40 23CA                                i2u543_48 23B6  
                              i2u536_40 232E                                i2u464_41 48DE  
                              i2u288_41 436A                                i2u296_41 3794  
                              i2u368_41 3A1A                                i2u376_41 3392  
                              i2u392_41 2F32                                i2u384_41 2E0C  
                              i2u448_41 219C                                i2u456_41 3CAC  
                              i2u528_41 312A                                i2u560_41 2508  
                              i2u544_41 23C6                                i2u536_41 232A  
                              i2u289_40 4396                                i2u369_40 3A58  
                              i2u393_40 2F46                                i2u385_40 2E14  
                              i2u377_40 2CD2                                i2u449_40 21D6  
                              i2u529_40 3140                                i2u561_40 2520  
                              i2u553_40 2478                                i2u545_40 23E2  
                              i2u537_40 234A                                i2u289_41 4392  
                              i2u297_41 37C2                                i2u369_41 3A54  
                              i2u393_41 2F42                                i2u377_41 2CCE  
                              i2u449_41 21D2                                i2u529_41 313C  
                              i2u561_41 2516                                i2u553_41 2474  
                              i2u545_41 23DC                                i2u537_41 2346  
                              i2u394_40 35EC                                i2u298_40 37E6  
                              i2u386_40 2E2A                                i2u378_40 2CEE  
                              i2u490_40 4B02                                i2u570_40 263A  
                              i2u562_40 2540                                i2u561_48 2524  
                              i2u554_40 248C                                i2u546_40 23E4  
                              i2u538_40 235C                                i2u394_41 35E8  
                              i2u298_41 37E2                                i2u386_41 2E26  
                              i2u378_41 2CEA                                i2u490_41 4AFE  
                              i2u570_41 2636                                i2u562_41 253C  
                              i2u554_41 2488                                i2u538_41 2358  
                              i2u395_40 3626                                i2u299_40 3810  
                              i2u387_40 2E92                                i2u379_40 2D18  
                              i2u491_40 4B1E                                i2u571_40 2648  
                              i2u563_40 2556                                i2u555_40 24A0  
                              i2u547_40 2400                                i2u539_40 236E  
                              i2u395_41 3622                                i2u299_41 380C  
                              i2u379_41 2D14                                i2u491_41 4B18  
                              i2u571_41 2644                                i2u563_41 2552  
                              i2u555_41 2496                                i2u547_41 23FC  
                              i2u539_41 2368                                i2u387_45 2E80  
                              i2u396_40 3642                                i2u388_40 2ED4  
                              i2u492_40 4B20                                i2u564_40 257C  
                              i2u556_40 24C0                                i2u555_48 24A4  
                              i2u548_40 2414                                i2u396_41 363E  
                              i2u388_41 2ED0                                i2u564_41 2578  
                              i2u556_41 24BC                                i2u548_41 2410  
                              i2u397_40 3704                                i2u389_40 2EF2  
                              i2u493_40 4B44                                i2u565_40 259E  
                              i2u557_40 24D8                                i2u549_40 2428  
                              i2u397_41 36FE                                i2u389_41 2EEE  
                              i2u493_41 4B3E                                i2u565_41 259A  
                              i2u557_41 24D2                                i2u549_41 241E  
                              i2u398_40 3706                                i2u494_40 4B46  
                              i2u566_40 25C0                                i2u558_40 24DA  
                              i2u549_48 242C                                i2u566_41 25BC  
                              i2u399_40 371C                                i2u567_40 25F6  
                              i2u559_40 24F8                                i2u399_41 3718  
                              i2u567_41 25F2                                i2u559_41 24F4  
                              i2u488_40 49CA                                i2u568_40 2610  
                              i2u488_41 49C6                                i2u568_41 260C  
                              i2u489_40 4E42                                i2u569_40 261E  
                              i2u489_41 4E3E                                i2u569_41 261A  
                         ??_set_message 005E                             _buffer_push 486C  
                              _RCONbits 000FD0                               _pkt_state 0192  
                       _evaluate_packet 268E                   hex_string_to_int@size 01E8  
                             _vfpfcnvrt 1050                               _xtoa$1775 002F  
                             _xtoa$1776 0031                       ___wmul@multiplier 0001  
                     ?_get_command_type 01E8                          ??i2_buffer_pop 0004  
                    ??_get_command_type 01EA                            ??_buffer_pop 01E6  
                          _isspace$1943 0007                              vfpfcnvrt@c 0072  
                             copy_data0 4B60                  __size_of_create_packet 00F4  
                             _vsnprintf 3BC6                                __Hrparam 0000  
                            vfprintf@ap 0051                                __Lrparam 0000  
                            vfprintf@fp 004D                     _int_to_hex_and_push 4966  
                    __end_of_buffer_pop 475A                        __size_of___aodiv 0188  
                      __size_of___aomod 0164                             vsnprintf@ap 0081  
                      __size_of___lodiv 00F0                        __size_of___lomod 00D0  
                            ?_vfpfcnvrt 0043                            ??_initialize 01E3  
                            snprintf@ap 005C                         ___aodiv@divisor 0009  
                   __end_of_set_message 31BC                         ___aodiv@counter 0011  
                      ?_highPriorityISR 0001                                _rb4_prev 00F4  
                              _rb5_prev 00F2                                _rb6_prev 00F0  
                              _rb7_prev 00EE                        __size_of_isalpha 003C  
                      __size_of_isdigit 0038                    ?_int_to_hex_and_push 0095  
                      __size_of_islower 0038                        __size_of_isspace 0052  
                              __ptext10 4CBA                                __ptext11 46C6  
                              __ptext20 3BC6                                __ptext12 4A32  
                              __ptext21 49CC                                __ptext30 3FE6  
                              __ptext22 1050                                __ptext14 475A  
                              __ptext31 3DFC                                __ptext23 2CC2  
                              __ptext15 4AF0                                __ptext40 3754  
                              __ptext32 38DC                                __ptext24 4A92  
                              __ptext16 2F9C                                __ptext41 40D6  
                              __ptext33 33C0                                __ptext25 4D32  
                              __ptext17 4E10                                __ptext42 434A  
                              __ptext34 29DE                                __ptext26 4D6A  
                              __ptext18 4966                                __ptext43 4ECA  
                              __ptext35 4414                                __ptext27 4CF6  
                              __ptext19 4E74                                __ptext44 35B0  
                              __ptext36 4DDA                                __ptext28 31BC  
                              __ptext45 4BA6                                __ptext37 4BF8  
                              __ptext29 41AE                                __ptext46 4DA2  
                              __ptext38 4C3C                                __ptext47 4EA4  
                              __ptext39 3A62                                __ptext48 486C  
                      __size_of_isupper 0038                                _distance 00FC  
                      __size_of_strncmp 00F6                        __size_of_toupper 005E  
                            ?_vsnprintf 007B                 __end_of_buffer_is_empty 4A92  
                         __size_of_atoi 01A4                           __size_of_ctoa 00D8  
                         __size_of_main 003E                           __size_of_dtoa 02E4  
               __end_of_evaluate_packet 29DE                           __size_of_otoa 01F0  
                         __size_of_stoa 0186                           __size_of_utoa 0204  
                         __size_of_xtoa 02DA                      __end_of_initialize 486C  
                         ?_clear_packet 0001                               stoa@F1154 01D3  
                              int$flags 005E                           _create_packet 3EF2  
                              _vfprintf 49CC                                _snprintf 4E74  
                      ___aomod@dividend 0001            __end_of_initialize_variables 434A  
                        _vfpfcnvrt$1790 0064                          _vfpfcnvrt$1791 0066  
                            _INTCONbits 000FF2                    i2buffer_pop@buf_type 0004  
                 ??_int_to_hex_and_push 005E                                isalpha@c 0001  
                              isdigit@c 0001                              vsnprintf@f 0087  
                            vsnprintf@n 007D                              vsnprintf@s 007B  
                          ?_char_to_int 01E3                               snprintf@n 008F  
                             snprintf@s 008D                                intlevel2 0000  
                              islower@c 0001                                isspace@c 0001  
                            _RCSTA1bits 000FAB                          ??_clear_packet 01E3  
                              isupper@c 0001                               strncmp@_l 0001  
                             strncmp@_r 0003                    __end_ofi2_buffer_pop 47E4  
                           _set_message 2F9C                          ?_create_packet 0001  
                       ___aomod@divisor 0009                             ??_vfpfcnvrt 0049  
                              stoa@nuls 000F                         ___aomod@counter 0011  
               hex_string_to_int@packet 01E6                 evaluate_packet@open_rbs 01F8  
               hex_string_to_int@result 01ED                          _vsnprintf$1653 0083  
                              strncmp@l 0008                                strncmp@n 0005  
                              strncmp@r 000A                  evaluate_packet@command 01F3  
                              toupper@c 0007                            ___aodiv@sign 0012  
                           ??_vsnprintf 0055                        ?_buffer_is_empty 01E3  
                      ?_evaluate_packet 0001                            ___aomod@sign 0012  
                          ?_buffer_push 0001  
